Archive member included to satisfy reference by file (symbol)

../MasterUpgraded_bsp//newlib/nios2-elf/lib/libc.a(lib_a-printf.o)
                              obj/default/float2_functionality.o (printf)
../MasterUpgraded_bsp//newlib/nios2-elf/lib/libc.a(lib_a-vfprintf.o)
                              ../MasterUpgraded_bsp//newlib/nios2-elf/lib/libc.a(lib_a-printf.o) (___vfprintf_internal_r)
../MasterUpgraded_bsp//newlib/nios2-elf/lib/libc.a(lib_a-wsetup.o)
                              ../MasterUpgraded_bsp//newlib/nios2-elf/lib/libc.a(lib_a-vfprintf.o) (__swsetup_r)
../MasterUpgraded_bsp//newlib/nios2-elf/lib/libc.a(lib_a-dtoa.o)
                              ../MasterUpgraded_bsp//newlib/nios2-elf/lib/libc.a(lib_a-vfprintf.o) (_dtoa_r)
../MasterUpgraded_bsp//newlib/nios2-elf/lib/libc.a(lib_a-fflush.o)
                              ../MasterUpgraded_bsp//newlib/nios2-elf/lib/libc.a(lib_a-vfprintf.o) (_fflush_r)
../MasterUpgraded_bsp//newlib/nios2-elf/lib/libc.a(lib_a-findfp.o)
                              ../MasterUpgraded_bsp//newlib/nios2-elf/lib/libc.a(lib_a-vfprintf.o) (__sinit)
../MasterUpgraded_bsp//newlib/nios2-elf/lib/libc.a(lib_a-freer.o)
                              ../MasterUpgraded_bsp//newlib/nios2-elf/lib/libc.a(lib_a-vfprintf.o) (_free_r)
../MasterUpgraded_bsp//newlib/nios2-elf/lib/libc.a(lib_a-fwalk.o)
                              ../MasterUpgraded_bsp//newlib/nios2-elf/lib/libc.a(lib_a-findfp.o) (_fwalk)
../MasterUpgraded_bsp//newlib/nios2-elf/lib/libc.a(lib_a-impure.o)
                              ../MasterUpgraded_bsp//newlib/nios2-elf/lib/libc.a(lib_a-printf.o) (_impure_ptr)
../MasterUpgraded_bsp//newlib/nios2-elf/lib/libc.a(lib_a-localeconv.o)
                              ../MasterUpgraded_bsp//newlib/nios2-elf/lib/libc.a(lib_a-vfprintf.o) (_localeconv_r)
../MasterUpgraded_bsp//newlib/nios2-elf/lib/libc.a(lib_a-locale.o)
                              ../MasterUpgraded_bsp//newlib/nios2-elf/lib/libc.a(lib_a-localeconv.o) (__global_locale)
../MasterUpgraded_bsp//newlib/nios2-elf/lib/libc.a(lib_a-makebuf.o)
                              ../MasterUpgraded_bsp//newlib/nios2-elf/lib/libc.a(lib_a-wsetup.o) (__smakebuf_r)
../MasterUpgraded_bsp//newlib/nios2-elf/lib/libc.a(lib_a-mallocr.o)
                              ../MasterUpgraded_bsp//newlib/nios2-elf/lib/libc.a(lib_a-freer.o) (__malloc_av_)
../MasterUpgraded_bsp//newlib/nios2-elf/lib/libc.a(lib_a-mbtowc_r.o)
                              ../MasterUpgraded_bsp//newlib/nios2-elf/lib/libc.a(lib_a-locale.o) (__ascii_mbtowc)
../MasterUpgraded_bsp//newlib/nios2-elf/lib/libc.a(lib_a-memchr.o)
                              ../MasterUpgraded_bsp//newlib/nios2-elf/lib/libc.a(lib_a-vfprintf.o) (memchr)
../MasterUpgraded_bsp//newlib/nios2-elf/lib/libc.a(lib_a-memcpy.o)
                              ../MasterUpgraded_bsp//newlib/nios2-elf/lib/libc.a(lib_a-dtoa.o) (memcpy)
../MasterUpgraded_bsp//newlib/nios2-elf/lib/libc.a(lib_a-memset.o)
                              ../MasterUpgraded_bsp//newlib/nios2-elf/lib/libc.a(lib_a-findfp.o) (memset)
../MasterUpgraded_bsp//newlib/nios2-elf/lib/libc.a(lib_a-mprec.o)
                              ../MasterUpgraded_bsp//newlib/nios2-elf/lib/libc.a(lib_a-dtoa.o) (_Balloc)
../MasterUpgraded_bsp//newlib/nios2-elf/lib/libc.a(lib_a-sbrkr.o)
                              ../MasterUpgraded_bsp//newlib/nios2-elf/lib/libc.a(lib_a-freer.o) (_sbrk_r)
../MasterUpgraded_bsp//newlib/nios2-elf/lib/libc.a(lib_a-stdio.o)
                              ../MasterUpgraded_bsp//newlib/nios2-elf/lib/libc.a(lib_a-findfp.o) (__sread)
../MasterUpgraded_bsp//newlib/nios2-elf/lib/libc.a(lib_a-strcmp.o)
                              ../MasterUpgraded_bsp//newlib/nios2-elf/lib/libc.a(lib_a-locale.o) (strcmp)
../MasterUpgraded_bsp//newlib/nios2-elf/lib/libc.a(lib_a-strlen.o)
                              ../MasterUpgraded_bsp//newlib/nios2-elf/lib/libc.a(lib_a-vfprintf.o) (strlen)
../MasterUpgraded_bsp//newlib/nios2-elf/lib/libc.a(lib_a-vfiprintf.o)
                              ../MasterUpgraded_bsp//newlib/nios2-elf/lib/libc.a(lib_a-vfprintf.o) (__sprint_r)
../MasterUpgraded_bsp//newlib/nios2-elf/lib/libc.a(lib_a-wctomb_r.o)
                              ../MasterUpgraded_bsp//newlib/nios2-elf/lib/libc.a(lib_a-locale.o) (__ascii_wctomb)
../MasterUpgraded_bsp//newlib/nios2-elf/lib/libc.a(lib_a-writer.o)
                              ../MasterUpgraded_bsp//newlib/nios2-elf/lib/libc.a(lib_a-stdio.o) (_write_r)
../MasterUpgraded_bsp//newlib/nios2-elf/lib/libc.a(closer.o)
                              ../MasterUpgraded_bsp//newlib/nios2-elf/lib/libc.a(lib_a-stdio.o) (_close_r)
../MasterUpgraded_bsp//newlib/nios2-elf/lib/libc.a(lib_a-assert.o)
                              ../MasterUpgraded_bsp//newlib/nios2-elf/lib/libc.a(lib_a-dtoa.o) (__assert_func)
../MasterUpgraded_bsp//newlib/nios2-elf/lib/libc.a(lib_a-callocr.o)
                              ../MasterUpgraded_bsp//newlib/nios2-elf/lib/libc.a(lib_a-mprec.o) (_calloc_r)
../MasterUpgraded_bsp//newlib/nios2-elf/lib/libc.a(lib_a-ctype_.o)
                              ../MasterUpgraded_bsp//newlib/nios2-elf/lib/libc.a(lib_a-locale.o) (_ctype_b)
../MasterUpgraded_bsp//newlib/nios2-elf/lib/libc.a(lib_a-fclose.o)
                              ../MasterUpgraded_bsp//newlib/nios2-elf/lib/libc.a(lib_a-findfp.o) (_fclose_r)
../MasterUpgraded_bsp//newlib/nios2-elf/lib/libc.a(lib_a-fiprintf.o)
                              ../MasterUpgraded_bsp//newlib/nios2-elf/lib/libc.a(lib_a-assert.o) (fiprintf)
../MasterUpgraded_bsp//newlib/nios2-elf/lib/libc.a(lib_a-fputwc.o)
                              ../MasterUpgraded_bsp//newlib/nios2-elf/lib/libc.a(lib_a-vfiprintf.o) (_fputwc_r)
../MasterUpgraded_bsp//newlib/nios2-elf/lib/libc.a(lib_a-fstatr.o)
                              ../MasterUpgraded_bsp//newlib/nios2-elf/lib/libc.a(lib_a-makebuf.o) (_fstat_r)
../MasterUpgraded_bsp//newlib/nios2-elf/lib/libc.a(lib_a-fvwrite.o)
                              ../MasterUpgraded_bsp//newlib/nios2-elf/lib/libc.a(lib_a-vfiprintf.o) (__sfvwrite_r)
../MasterUpgraded_bsp//newlib/nios2-elf/lib/libc.a(lib_a-int_errno.o)
                              ../MasterUpgraded_bsp//newlib/nios2-elf/lib/libc.a(lib_a-sbrkr.o) (errno)
../MasterUpgraded_bsp//newlib/nios2-elf/lib/libc.a(lib_a-isattyr.o)
                              ../MasterUpgraded_bsp//newlib/nios2-elf/lib/libc.a(lib_a-makebuf.o) (_isatty_r)
../MasterUpgraded_bsp//newlib/nios2-elf/lib/libc.a(lib_a-lseekr.o)
                              ../MasterUpgraded_bsp//newlib/nios2-elf/lib/libc.a(lib_a-stdio.o) (_lseek_r)
../MasterUpgraded_bsp//newlib/nios2-elf/lib/libc.a(lib_a-memmove.o)
                              ../MasterUpgraded_bsp//newlib/nios2-elf/lib/libc.a(lib_a-fvwrite.o) (memmove)
../MasterUpgraded_bsp//newlib/nios2-elf/lib/libc.a(lib_a-readr.o)
                              ../MasterUpgraded_bsp//newlib/nios2-elf/lib/libc.a(lib_a-stdio.o) (_read_r)
../MasterUpgraded_bsp//newlib/nios2-elf/lib/libc.a(lib_a-reallocr.o)
                              ../MasterUpgraded_bsp//newlib/nios2-elf/lib/libc.a(lib_a-fvwrite.o) (_realloc_r)
../MasterUpgraded_bsp//newlib/nios2-elf/lib/libc.a(lib_a-vfiprintfr_1.o)
                              ../MasterUpgraded_bsp//newlib/nios2-elf/lib/libc.a(lib_a-fiprintf.o) (_vfiprintf_r)
../MasterUpgraded_bsp//newlib/nios2-elf/lib/libc.a(lib_a-wbuf.o)
                              ../MasterUpgraded_bsp//newlib/nios2-elf/lib/libc.a(lib_a-fputwc.o) (__swbuf_r)
../MasterUpgraded_bsp//newlib/nios2-elf/lib/libc.a(lib_a-wcrtomb.o)
                              ../MasterUpgraded_bsp//newlib/nios2-elf/lib/libc.a(lib_a-fputwc.o) (_wcrtomb_r)
../MasterUpgraded_bsp//newlib/nios2-elf/lib/libc.a(lib_a-abort.o)
                              ../MasterUpgraded_bsp//newlib/nios2-elf/lib/libc.a(lib_a-assert.o) (abort)
../MasterUpgraded_bsp//newlib/nios2-elf/lib/libc.a(lib_a-signal.o)
                              ../MasterUpgraded_bsp//newlib/nios2-elf/lib/libc.a(lib_a-abort.o) (raise)
../MasterUpgraded_bsp//newlib/nios2-elf/lib/libc.a(lib_a-signalr.o)
                              ../MasterUpgraded_bsp//newlib/nios2-elf/lib/libc.a(lib_a-signal.o) (_kill_r)
/home/omaralkhatib/intelFPGA_lite/20.1/nios2eds/bin/gnu/H-x86_64-pc-linux-gnu/bin/../lib/gcc/nios2-elf/9.2.1/libgcc.a(_udivdi3.o)
                              ../MasterUpgraded_bsp//newlib/nios2-elf/lib/libc.a(lib_a-vfprintf.o) (__udivdi3)
/home/omaralkhatib/intelFPGA_lite/20.1/nios2eds/bin/gnu/H-x86_64-pc-linux-gnu/bin/../lib/gcc/nios2-elf/9.2.1/libgcc.a(_umoddi3.o)
                              ../MasterUpgraded_bsp//newlib/nios2-elf/lib/libc.a(lib_a-vfprintf.o) (__umoddi3)
/home/omaralkhatib/intelFPGA_lite/20.1/nios2eds/bin/gnu/H-x86_64-pc-linux-gnu/bin/../lib/gcc/nios2-elf/9.2.1/libgcc.a(lib2-divmod.o)
                              ../MasterUpgraded_bsp//newlib/nios2-elf/lib/libc.a(lib_a-vfprintf.o) (__divsi3)
/home/omaralkhatib/intelFPGA_lite/20.1/nios2eds/bin/gnu/H-x86_64-pc-linux-gnu/bin/../lib/gcc/nios2-elf/9.2.1/libgcc.a(adddf3.o)
                              ../MasterUpgraded_bsp//newlib/nios2-elf/lib/libc.a(lib_a-dtoa.o) (__adddf3)
/home/omaralkhatib/intelFPGA_lite/20.1/nios2eds/bin/gnu/H-x86_64-pc-linux-gnu/bin/../lib/gcc/nios2-elf/9.2.1/libgcc.a(divdf3.o)
                              ../MasterUpgraded_bsp//newlib/nios2-elf/lib/libc.a(lib_a-dtoa.o) (__divdf3)
/home/omaralkhatib/intelFPGA_lite/20.1/nios2eds/bin/gnu/H-x86_64-pc-linux-gnu/bin/../lib/gcc/nios2-elf/9.2.1/libgcc.a(eqdf2.o)
                              ../MasterUpgraded_bsp//newlib/nios2-elf/lib/libc.a(lib_a-vfprintf.o) (__eqdf2)
/home/omaralkhatib/intelFPGA_lite/20.1/nios2eds/bin/gnu/H-x86_64-pc-linux-gnu/bin/../lib/gcc/nios2-elf/9.2.1/libgcc.a(gedf2.o)
                              ../MasterUpgraded_bsp//newlib/nios2-elf/lib/libc.a(lib_a-dtoa.o) (__gtdf2)
/home/omaralkhatib/intelFPGA_lite/20.1/nios2eds/bin/gnu/H-x86_64-pc-linux-gnu/bin/../lib/gcc/nios2-elf/9.2.1/libgcc.a(ledf2.o)
                              ../MasterUpgraded_bsp//newlib/nios2-elf/lib/libc.a(lib_a-vfprintf.o) (__ledf2)
/home/omaralkhatib/intelFPGA_lite/20.1/nios2eds/bin/gnu/H-x86_64-pc-linux-gnu/bin/../lib/gcc/nios2-elf/9.2.1/libgcc.a(muldf3.o)
                              ../MasterUpgraded_bsp//newlib/nios2-elf/lib/libc.a(lib_a-dtoa.o) (__muldf3)
/home/omaralkhatib/intelFPGA_lite/20.1/nios2eds/bin/gnu/H-x86_64-pc-linux-gnu/bin/../lib/gcc/nios2-elf/9.2.1/libgcc.a(subdf3.o)
                              ../MasterUpgraded_bsp//newlib/nios2-elf/lib/libc.a(lib_a-dtoa.o) (__subdf3)
/home/omaralkhatib/intelFPGA_lite/20.1/nios2eds/bin/gnu/H-x86_64-pc-linux-gnu/bin/../lib/gcc/nios2-elf/9.2.1/libgcc.a(unorddf2.o)
                              ../MasterUpgraded_bsp//newlib/nios2-elf/lib/libc.a(lib_a-vfprintf.o) (__unorddf2)
/home/omaralkhatib/intelFPGA_lite/20.1/nios2eds/bin/gnu/H-x86_64-pc-linux-gnu/bin/../lib/gcc/nios2-elf/9.2.1/libgcc.a(fixdfsi.o)
                              ../MasterUpgraded_bsp//newlib/nios2-elf/lib/libc.a(lib_a-dtoa.o) (__fixdfsi)
/home/omaralkhatib/intelFPGA_lite/20.1/nios2eds/bin/gnu/H-x86_64-pc-linux-gnu/bin/../lib/gcc/nios2-elf/9.2.1/libgcc.a(floatsidf.o)
                              ../MasterUpgraded_bsp//newlib/nios2-elf/lib/libc.a(lib_a-dtoa.o) (__floatsidf)
/home/omaralkhatib/intelFPGA_lite/20.1/nios2eds/bin/gnu/H-x86_64-pc-linux-gnu/bin/../lib/gcc/nios2-elf/9.2.1/libgcc.a(floatunsidf.o)
                              ../MasterUpgraded_bsp//newlib/nios2-elf/lib/libc.a(lib_a-dtoa.o) (__floatunsidf)
/home/omaralkhatib/intelFPGA_lite/20.1/nios2eds/bin/gnu/H-x86_64-pc-linux-gnu/bin/../lib/gcc/nios2-elf/9.2.1/libgcc.a(_clz.o)
                              /home/omaralkhatib/intelFPGA_lite/20.1/nios2eds/bin/gnu/H-x86_64-pc-linux-gnu/bin/../lib/gcc/nios2-elf/9.2.1/libgcc.a(_udivdi3.o) (__clz_tab)
/home/omaralkhatib/intelFPGA_lite/20.1/nios2eds/bin/gnu/H-x86_64-pc-linux-gnu/bin/../lib/gcc/nios2-elf/9.2.1/libgcc.a(_clzsi2.o)
                              /home/omaralkhatib/intelFPGA_lite/20.1/nios2eds/bin/gnu/H-x86_64-pc-linux-gnu/bin/../lib/gcc/nios2-elf/9.2.1/libgcc.a(adddf3.o) (__clzsi2)
../MasterUpgraded_bsp//libhal_bsp.a(alt_close.o)
                              ../MasterUpgraded_bsp//newlib/nios2-elf/lib/libc.a(closer.o) (close)
../MasterUpgraded_bsp//libhal_bsp.a(alt_dev.o)
                              ../MasterUpgraded_bsp//libhal_bsp.a(alt_close.o) (alt_fd_list)
../MasterUpgraded_bsp//libhal_bsp.a(alt_errno.o)
                              ../MasterUpgraded_bsp//libhal_bsp.a(alt_close.o) (alt_errno)
../MasterUpgraded_bsp//libhal_bsp.a(alt_exit.o)
                              ../MasterUpgraded_bsp//newlib/nios2-elf/lib/libc.a(lib_a-abort.o) (_exit)
../MasterUpgraded_bsp//libhal_bsp.a(alt_fstat.o)
                              ../MasterUpgraded_bsp//newlib/nios2-elf/lib/libc.a(lib_a-fstatr.o) (fstat)
../MasterUpgraded_bsp//libhal_bsp.a(alt_getpid.o)
                              ../MasterUpgraded_bsp//newlib/nios2-elf/lib/libc.a(lib_a-signalr.o) (getpid)
../MasterUpgraded_bsp//libhal_bsp.a(alt_isatty.o)
                              ../MasterUpgraded_bsp//newlib/nios2-elf/lib/libc.a(lib_a-isattyr.o) (isatty)
../MasterUpgraded_bsp//libhal_bsp.a(alt_kill.o)
                              ../MasterUpgraded_bsp//newlib/nios2-elf/lib/libc.a(lib_a-signalr.o) (kill)
../MasterUpgraded_bsp//libhal_bsp.a(alt_load.o)
                              ../MasterUpgraded_bsp//obj/HAL/src/crt0.o (alt_load)
../MasterUpgraded_bsp//libhal_bsp.a(alt_lseek.o)
                              ../MasterUpgraded_bsp//newlib/nios2-elf/lib/libc.a(lib_a-lseekr.o) (lseek)
../MasterUpgraded_bsp//libhal_bsp.a(alt_main.o)
                              ../MasterUpgraded_bsp//obj/HAL/src/crt0.o (alt_main)
../MasterUpgraded_bsp//libhal_bsp.a(alt_malloc_lock.o)
                              ../MasterUpgraded_bsp//newlib/nios2-elf/lib/libc.a(lib_a-freer.o) (__malloc_lock)
../MasterUpgraded_bsp//libhal_bsp.a(alt_read.o)
                              ../MasterUpgraded_bsp//newlib/nios2-elf/lib/libc.a(lib_a-readr.o) (read)
../MasterUpgraded_bsp//libhal_bsp.a(alt_release_fd.o)
                              ../MasterUpgraded_bsp//libhal_bsp.a(alt_close.o) (alt_release_fd)
../MasterUpgraded_bsp//libhal_bsp.a(alt_sbrk.o)
                              ../MasterUpgraded_bsp//newlib/nios2-elf/lib/libc.a(lib_a-sbrkr.o) (sbrk)
../MasterUpgraded_bsp//libhal_bsp.a(alt_usleep.o)
                              obj/default/float2_functionality.o (usleep)
../MasterUpgraded_bsp//libhal_bsp.a(alt_write.o)
                              ../MasterUpgraded_bsp//newlib/nios2-elf/lib/libc.a(lib_a-writer.o) (write)
../MasterUpgraded_bsp//libhal_bsp.a(alt_sys_init.o)
                              ../MasterUpgraded_bsp//libhal_bsp.a(alt_main.o) (alt_irq_init)
../MasterUpgraded_bsp//libhal_bsp.a(altera_avalon_jtag_uart_fd.o)
                              ../MasterUpgraded_bsp//libhal_bsp.a(alt_sys_init.o) (altera_avalon_jtag_uart_read_fd)
../MasterUpgraded_bsp//libhal_bsp.a(altera_avalon_jtag_uart_init.o)
                              ../MasterUpgraded_bsp//libhal_bsp.a(alt_sys_init.o) (altera_avalon_jtag_uart_init)
../MasterUpgraded_bsp//libhal_bsp.a(altera_avalon_jtag_uart_ioctl.o)
                              ../MasterUpgraded_bsp//libhal_bsp.a(altera_avalon_jtag_uart_fd.o) (altera_avalon_jtag_uart_ioctl)
../MasterUpgraded_bsp//libhal_bsp.a(altera_avalon_jtag_uart_read.o)
                              ../MasterUpgraded_bsp//libhal_bsp.a(altera_avalon_jtag_uart_fd.o) (altera_avalon_jtag_uart_read)
../MasterUpgraded_bsp//libhal_bsp.a(altera_avalon_jtag_uart_write.o)
                              ../MasterUpgraded_bsp//libhal_bsp.a(altera_avalon_jtag_uart_fd.o) (altera_avalon_jtag_uart_write)
../MasterUpgraded_bsp//libhal_bsp.a(altera_avalon_timer_sc.o)
                              ../MasterUpgraded_bsp//libhal_bsp.a(alt_sys_init.o) (alt_avalon_timer_sc_init)
../MasterUpgraded_bsp//libhal_bsp.a(altera_up_avalon_accelerometer_spi.o)
                              obj/default/float2_functionality.o (alt_up_accelerometer_spi_open_dev)
../MasterUpgraded_bsp//libhal_bsp.a(alt_alarm_start.o)
                              ../MasterUpgraded_bsp//libhal_bsp.a(altera_avalon_jtag_uart_init.o) (alt_alarm_start)
../MasterUpgraded_bsp//libhal_bsp.a(alt_busy_sleep.o)
                              ../MasterUpgraded_bsp//libhal_bsp.a(alt_usleep.o) (alt_busy_sleep)
../MasterUpgraded_bsp//libhal_bsp.a(alt_dcache_flush_all.o)
                              ../MasterUpgraded_bsp//libhal_bsp.a(alt_load.o) (alt_dcache_flush_all)
../MasterUpgraded_bsp//libhal_bsp.a(alt_dev_llist_insert.o)
                              ../MasterUpgraded_bsp//libhal_bsp.a(alt_sys_init.o) (alt_dev_llist_insert)
../MasterUpgraded_bsp//libhal_bsp.a(alt_do_ctors.o)
                              ../MasterUpgraded_bsp//libhal_bsp.a(alt_main.o) (_do_ctors)
../MasterUpgraded_bsp//libhal_bsp.a(alt_do_dtors.o)
                              ../MasterUpgraded_bsp//libhal_bsp.a(alt_main.o) (_do_dtors)
../MasterUpgraded_bsp//libhal_bsp.a(alt_find_dev.o)
                              ../MasterUpgraded_bsp//libhal_bsp.a(altera_up_avalon_accelerometer_spi.o) (alt_find_dev)
../MasterUpgraded_bsp//libhal_bsp.a(alt_icache_flush_all.o)
                              ../MasterUpgraded_bsp//libhal_bsp.a(alt_load.o) (alt_icache_flush_all)
../MasterUpgraded_bsp//libhal_bsp.a(alt_io_redirect.o)
                              ../MasterUpgraded_bsp//libhal_bsp.a(alt_main.o) (alt_io_redirect)
../MasterUpgraded_bsp//libhal_bsp.a(alt_irq_register.o)
                              ../MasterUpgraded_bsp//libhal_bsp.a(altera_avalon_jtag_uart_init.o) (alt_irq_register)
../MasterUpgraded_bsp//libhal_bsp.a(alt_irq_vars.o)
                              ../MasterUpgraded_bsp//libhal_bsp.a(alt_irq_register.o) (alt_irq_active)
../MasterUpgraded_bsp//libhal_bsp.a(alt_open.o)
                              ../MasterUpgraded_bsp//libhal_bsp.a(alt_io_redirect.o) (open)
../MasterUpgraded_bsp//libhal_bsp.a(alt_tick.o)
                              ../MasterUpgraded_bsp//libhal_bsp.a(altera_avalon_jtag_uart_init.o) (_alt_tick_rate)
../MasterUpgraded_bsp//libhal_bsp.a(altera_nios2_gen2_irq.o)
                              ../MasterUpgraded_bsp//libhal_bsp.a(alt_sys_init.o) (altera_nios2_gen2_irq_init)
../MasterUpgraded_bsp//libhal_bsp.a(alt_find_file.o)
                              ../MasterUpgraded_bsp//libhal_bsp.a(alt_open.o) (alt_find_file)
../MasterUpgraded_bsp//libhal_bsp.a(alt_get_fd.o)
                              ../MasterUpgraded_bsp//libhal_bsp.a(alt_open.o) (alt_get_fd)
../MasterUpgraded_bsp//libhal_bsp.a(alt_icache_flush.o)
                              ../MasterUpgraded_bsp//libhal_bsp.a(alt_icache_flush_all.o) (alt_icache_flush)
../MasterUpgraded_bsp//libhal_bsp.a(alt_irq_entry.o)
                              ../MasterUpgraded_bsp//libhal_bsp.a(alt_irq_register.o) (alt_irq_entry)
../MasterUpgraded_bsp//libhal_bsp.a(alt_irq_handler.o)
                              ../MasterUpgraded_bsp//libhal_bsp.a(alt_irq_register.o) (alt_irq)
../MasterUpgraded_bsp//libhal_bsp.a(alt_exception_entry.o)
                              ../MasterUpgraded_bsp//libhal_bsp.a(alt_irq_entry.o) (alt_exception)
../MasterUpgraded_bsp//libhal_bsp.a(alt_instruction_exception_entry.o)
                              ../MasterUpgraded_bsp//libhal_bsp.a(alt_exception_entry.o) (alt_instruction_exception_entry)
../MasterUpgraded_bsp//newlib/nios2-elf/lib/libc.a(lib_a-atexit.o)
                              ../MasterUpgraded_bsp//libhal_bsp.a(alt_main.o) (atexit)
../MasterUpgraded_bsp//newlib/nios2-elf/lib/libc.a(lib_a-exit.o)
                              ../MasterUpgraded_bsp//libhal_bsp.a(alt_main.o) (exit)
../MasterUpgraded_bsp//newlib/nios2-elf/lib/libc.a(lib_a-memcmp.o)
                              ../MasterUpgraded_bsp//libhal_bsp.a(alt_find_dev.o) (memcmp)
../MasterUpgraded_bsp//newlib/nios2-elf/lib/libc.a(lib_a-__atexit.o)
                              ../MasterUpgraded_bsp//newlib/nios2-elf/lib/libc.a(lib_a-atexit.o) (__register_exitproc)
../MasterUpgraded_bsp//newlib/nios2-elf/lib/libc.a(lib_a-__call_atexit.o)
                              ../MasterUpgraded_bsp//newlib/nios2-elf/lib/libc.a(lib_a-exit.o) (__call_exitprocs)

Allocating common symbols
Common symbol       size              file

alt_irq             0x100             ../MasterUpgraded_bsp//libhal_bsp.a(alt_irq_handler.o)
errno               0x4               ../MasterUpgraded_bsp//newlib/nios2-elf/lib/libc.a(lib_a-int_errno.o)

Memory Configuration

Name             Origin             Length             Attributes
reset            0x0000000004000000 0x0000000000000020
dram_controller  0x0000000004000020 0x0000000003ffffe0
*default*        0x0000000000000000 0xffffffffffffffff

Linker script and memory map

LOAD ../MasterUpgraded_bsp//obj/HAL/src/crt0.o
LOAD obj/default/float2_functionality.o
LOAD /home/omaralkhatib/intelFPGA_lite/20.1/nios2eds/bin/gnu/H-x86_64-pc-linux-gnu/bin/../lib/gcc/nios2-elf/9.2.1/../../../../../H-x86_64-pc-linux-gnu/nios2-elf/lib/libstdc++.a
LOAD ../MasterUpgraded_bsp//newlib/nios2-elf/lib/libm.a
LOAD /home/omaralkhatib/intelFPGA_lite/20.1/nios2eds/bin/gnu/H-x86_64-pc-linux-gnu/bin/../lib/gcc/nios2-elf/9.2.1/libgcc.a
START GROUP
LOAD ../MasterUpgraded_bsp//newlib/nios2-elf/lib/libc.a
LOAD /home/omaralkhatib/intelFPGA_lite/20.1/nios2eds/bin/gnu/H-x86_64-pc-linux-gnu/bin/../lib/gcc/nios2-elf/9.2.1/libgcc.a
LOAD ../MasterUpgraded_bsp//libhal_bsp.a
LOAD ../MasterUpgraded_bsp//newlib/nios2-elf/lib/libm.a
END GROUP
LOAD /home/omaralkhatib/intelFPGA_lite/20.1/nios2eds/bin/gnu/H-x86_64-pc-linux-gnu/bin/../lib/gcc/nios2-elf/9.2.1/libgcc.a
                0x0000000004000000                __alt_mem_dram_controller = 0x4000000

.entry          0x0000000004000000       0x20
 *(.entry)
 .entry         0x0000000004000000       0x20 ../MasterUpgraded_bsp//obj/HAL/src/crt0.o
                0x0000000004000000                __reset

.exceptions     0x0000000004000020      0x21c
                0x0000000004000020                PROVIDE (__ram_exceptions_start = ABSOLUTE (.))
                0x0000000004000020                . = ALIGN (0x20)
 *(.irq)
 *(.exceptions.entry.label)
 .exceptions.entry.label
                0x0000000004000020        0x0 ../MasterUpgraded_bsp//libhal_bsp.a(alt_irq_entry.o)
                0x0000000004000020                alt_irq_entry
 .exceptions.entry.label
                0x0000000004000020        0x0 ../MasterUpgraded_bsp//libhal_bsp.a(alt_exception_entry.o)
                0x0000000004000020                alt_exception
 *(.exceptions.entry.user)
 *(.exceptions.entry.ecc_fatal)
 *(.exceptions.entry)
 .exceptions.entry
                0x0000000004000020       0x54 ../MasterUpgraded_bsp//libhal_bsp.a(alt_exception_entry.o)
 *(.exceptions.irqtest.user)
 *(.exceptions.irqtest)
 .exceptions.irqtest
                0x0000000004000074       0x10 ../MasterUpgraded_bsp//libhal_bsp.a(alt_irq_entry.o)
 *(.exceptions.irqhandler.user)
 *(.exceptions.irqhandler)
 .exceptions.irqhandler
                0x0000000004000084        0x4 ../MasterUpgraded_bsp//libhal_bsp.a(alt_irq_entry.o)
 *(.exceptions.irqreturn.user)
 *(.exceptions.irqreturn)
 .exceptions.irqreturn
                0x0000000004000088        0x4 ../MasterUpgraded_bsp//libhal_bsp.a(alt_irq_entry.o)
 *(.exceptions.notirq.label)
 .exceptions.notirq.label
                0x000000000400008c        0x0 ../MasterUpgraded_bsp//libhal_bsp.a(alt_irq_entry.o)
 *(.exceptions.notirq.user)
 *(.exceptions.notirq)
 .exceptions.notirq
                0x000000000400008c        0x8 ../MasterUpgraded_bsp//libhal_bsp.a(alt_exception_entry.o)
 *(.exceptions.soft.user)
 *(.exceptions.soft)
 *(.exceptions.unknown.user)
 *(.exceptions.unknown)
 .exceptions.unknown
                0x0000000004000094       0x14 ../MasterUpgraded_bsp//libhal_bsp.a(alt_exception_entry.o)
 *(.exceptions.exit.label)
 .exceptions.exit.label
                0x00000000040000a8        0x0 ../MasterUpgraded_bsp//libhal_bsp.a(alt_irq_entry.o)
 .exceptions.exit.label
                0x00000000040000a8        0x0 ../MasterUpgraded_bsp//libhal_bsp.a(alt_exception_entry.o)
 *(.exceptions.exit.user)
 *(.exceptions.exit)
 .exceptions.exit
                0x00000000040000a8       0x54 ../MasterUpgraded_bsp//libhal_bsp.a(alt_exception_entry.o)
 *(.exceptions)
 .exceptions    0x00000000040000fc       0xcc ../MasterUpgraded_bsp//libhal_bsp.a(alt_irq_handler.o)
                0x00000000040000fc                alt_irq_handler
 .exceptions    0x00000000040001c8       0x74 ../MasterUpgraded_bsp//libhal_bsp.a(alt_instruction_exception_entry.o)
                0x00000000040001c8                alt_instruction_exception_entry
                0x000000000400023c                PROVIDE (__ram_exceptions_end = ABSOLUTE (.))
                0x0000000004000020                PROVIDE (__flash_exceptions_start = LOADADDR (.exceptions))

.text           0x000000000400023c    0x13424
                [!provide]                        PROVIDE (stext = ABSOLUTE (.))
 *(.interp)
 *(.hash)
 *(.dynsym)
 *(.dynstr)
 *(.gnu.version)
 *(.gnu.version_d)
 *(.gnu.version_r)
 *(.rel.init)
 *(.rela.init)
 *(.rel.text .rel.text.* .rel.gnu.linkonce.t.*)
 *(.rela.text .rela.text.* .rela.gnu.linkonce.t.*)
 *(.rel.fini)
 *(.rela.fini)
 *(.rel.rodata .rel.rodata.* .rel.gnu.linkonce.r.*)
 *(.rela.rodata .rela.rodata.* .rela.gnu.linkonce.r.*)
 *(.rel.data .rel.data.* .rel.gnu.linkonce.d.*)
 *(.rela.data .rela.data.* .rela.gnu.linkonce.d.*)
 *(.rel.tdata .rel.tdata.* .rel.gnu.linkonce.td.*)
 *(.rela.tdata .rela.tdata.* .rela.gnu.linkonce.td.*)
 *(.rel.tbss .rel.tbss.* .rel.gnu.linkonce.tb.*)
 *(.rela.tbss .rela.tbss.* .rela.gnu.linkonce.tb.*)
 *(.rel.ctors)
 *(.rela.ctors)
 *(.rel.dtors)
 *(.rela.dtors)
 *(.rel.got)
 *(.rela.got)
 *(.rel.sdata .rel.sdata.* .rel.gnu.linkonce.s.*)
 *(.rela.sdata .rela.sdata.* .rela.gnu.linkonce.s.*)
 *(.rel.sbss .rel.sbss.* .rel.gnu.linkonce.sb.*)
 *(.rela.sbss .rela.sbss.* .rela.gnu.linkonce.sb.*)
 *(.rel.sdata2 .rel.sdata2.* .rel.gnu.linkonce.s2.*)
 *(.rela.sdata2 .rela.sdata2.* .rela.gnu.linkonce.s2.*)
 *(.rel.sbss2 .rel.sbss2.* .rel.gnu.linkonce.sb2.*)
 *(.rela.sbss2 .rela.sbss2.* .rela.gnu.linkonce.sb2.*)
 *(.rel.bss .rel.bss.* .rel.gnu.linkonce.b.*)
 *(.rela.bss .rela.bss.* .rela.gnu.linkonce.b.*)
 *(.rel.plt)
 *(.rela.plt)
 *(.rel.dyn)
 *(.init)
 *(.plt)
 *(.text .stub .text.* .gnu.linkonce.t.*)
 .text          0x000000000400023c       0x4c ../MasterUpgraded_bsp//obj/HAL/src/crt0.o
                0x000000000400023c                _start
 .text          0x0000000004000288       0xf0 obj/default/float2_functionality.o
                0x0000000004000288                sendReading
                0x00000000040002c4                main
 .text          0x0000000004000378        0x0 ../MasterUpgraded_bsp//newlib/nios2-elf/lib/libc.a(lib_a-printf.o)
 .text._printf_r
                0x0000000004000378       0x64 ../MasterUpgraded_bsp//newlib/nios2-elf/lib/libc.a(lib_a-printf.o)
                0x0000000004000378                _printf_r
 .text.printf   0x00000000040003dc       0x68 ../MasterUpgraded_bsp//newlib/nios2-elf/lib/libc.a(lib_a-printf.o)
                0x00000000040003dc                printf
 .text          0x0000000004000444        0x0 ../MasterUpgraded_bsp//newlib/nios2-elf/lib/libc.a(lib_a-vfprintf.o)
 .text.__sbprintf
                0x0000000004000444       0xf0 ../MasterUpgraded_bsp//newlib/nios2-elf/lib/libc.a(lib_a-vfprintf.o)
 .text.__vfprintf_internal
                0x0000000004000534       0x50 ../MasterUpgraded_bsp//newlib/nios2-elf/lib/libc.a(lib_a-vfprintf.o)
                0x0000000004000534                __vfprintf_internal
 .text.___vfprintf_internal_r
                0x0000000004000584     0x2140 ../MasterUpgraded_bsp//newlib/nios2-elf/lib/libc.a(lib_a-vfprintf.o)
                0x0000000004000584                ___vfprintf_internal_r
 .text.cvt      0x00000000040026c4      0x208 ../MasterUpgraded_bsp//newlib/nios2-elf/lib/libc.a(lib_a-vfprintf.o)
 .text.exponent
                0x00000000040028cc      0x148 ../MasterUpgraded_bsp//newlib/nios2-elf/lib/libc.a(lib_a-vfprintf.o)
 .text          0x0000000004002a14        0x0 ../MasterUpgraded_bsp//newlib/nios2-elf/lib/libc.a(lib_a-wsetup.o)
 .text.__swsetup_r
                0x0000000004002a14      0x1a0 ../MasterUpgraded_bsp//newlib/nios2-elf/lib/libc.a(lib_a-wsetup.o)
                0x0000000004002a14                __swsetup_r
 .text          0x0000000004002bb4        0x0 ../MasterUpgraded_bsp//newlib/nios2-elf/lib/libc.a(lib_a-dtoa.o)
 .text.quorem   0x0000000004002bb4      0x3a4 ../MasterUpgraded_bsp//newlib/nios2-elf/lib/libc.a(lib_a-dtoa.o)
 .text._dtoa_r  0x0000000004002f58     0x1c2c ../MasterUpgraded_bsp//newlib/nios2-elf/lib/libc.a(lib_a-dtoa.o)
                0x0000000004002f58                _dtoa_r
 .text          0x0000000004004b84        0x0 ../MasterUpgraded_bsp//newlib/nios2-elf/lib/libc.a(lib_a-fflush.o)
 .text.__sflush_r
                0x0000000004004b84      0x2fc ../MasterUpgraded_bsp//newlib/nios2-elf/lib/libc.a(lib_a-fflush.o)
                0x0000000004004b84                __sflush_r
 .text._fflush_r
                0x0000000004004e80       0x88 ../MasterUpgraded_bsp//newlib/nios2-elf/lib/libc.a(lib_a-fflush.o)
                0x0000000004004e80                _fflush_r
 .text.fflush   0x0000000004004f08       0x54 ../MasterUpgraded_bsp//newlib/nios2-elf/lib/libc.a(lib_a-fflush.o)
                0x0000000004004f08                fflush
 .text          0x0000000004004f5c        0x0 ../MasterUpgraded_bsp//newlib/nios2-elf/lib/libc.a(lib_a-findfp.o)
 .text.std      0x0000000004004f5c       0xf0 ../MasterUpgraded_bsp//newlib/nios2-elf/lib/libc.a(lib_a-findfp.o)
 .text.stdin_init
                0x000000000400504c       0x3c ../MasterUpgraded_bsp//newlib/nios2-elf/lib/libc.a(lib_a-findfp.o)
 .text.stdout_init
                0x0000000004005088       0x3c ../MasterUpgraded_bsp//newlib/nios2-elf/lib/libc.a(lib_a-findfp.o)
 .text.stderr_init
                0x00000000040050c4       0x3c ../MasterUpgraded_bsp//newlib/nios2-elf/lib/libc.a(lib_a-findfp.o)
 .text.__sfmoreglue
                0x0000000004005100       0xa4 ../MasterUpgraded_bsp//newlib/nios2-elf/lib/libc.a(lib_a-findfp.o)
                0x0000000004005100                __sfmoreglue
 .text.__sfp    0x00000000040051a4      0x194 ../MasterUpgraded_bsp//newlib/nios2-elf/lib/libc.a(lib_a-findfp.o)
                0x00000000040051a4                __sfp
 .text._cleanup_r
                0x0000000004005338       0x44 ../MasterUpgraded_bsp//newlib/nios2-elf/lib/libc.a(lib_a-findfp.o)
                0x0000000004005338                _cleanup_r
 .text._cleanup
                0x000000000400537c       0x34 ../MasterUpgraded_bsp//newlib/nios2-elf/lib/libc.a(lib_a-findfp.o)
                0x000000000400537c                _cleanup
 .text.__sinit  0x00000000040053b0       0xb4 ../MasterUpgraded_bsp//newlib/nios2-elf/lib/libc.a(lib_a-findfp.o)
                0x00000000040053b0                __sinit
 .text.__sfp_lock_acquire
                0x0000000004005464       0x20 ../MasterUpgraded_bsp//newlib/nios2-elf/lib/libc.a(lib_a-findfp.o)
                0x0000000004005464                __sfp_lock_acquire
 .text.__sfp_lock_release
                0x0000000004005484       0x20 ../MasterUpgraded_bsp//newlib/nios2-elf/lib/libc.a(lib_a-findfp.o)
                0x0000000004005484                __sfp_lock_release
 .text.__sinit_lock_acquire
                0x00000000040054a4       0x20 ../MasterUpgraded_bsp//newlib/nios2-elf/lib/libc.a(lib_a-findfp.o)
                0x00000000040054a4                __sinit_lock_acquire
 .text.__sinit_lock_release
                0x00000000040054c4       0x20 ../MasterUpgraded_bsp//newlib/nios2-elf/lib/libc.a(lib_a-findfp.o)
                0x00000000040054c4                __sinit_lock_release
 .text.__fp_lock
                0x00000000040054e4       0x24 ../MasterUpgraded_bsp//newlib/nios2-elf/lib/libc.a(lib_a-findfp.o)
 .text.__fp_unlock
                0x0000000004005508       0x24 ../MasterUpgraded_bsp//newlib/nios2-elf/lib/libc.a(lib_a-findfp.o)
 .text.__fp_lock_all
                0x000000000400552c       0x40 ../MasterUpgraded_bsp//newlib/nios2-elf/lib/libc.a(lib_a-findfp.o)
                0x000000000400552c                __fp_lock_all
 .text.__fp_unlock_all
                0x000000000400556c       0x40 ../MasterUpgraded_bsp//newlib/nios2-elf/lib/libc.a(lib_a-findfp.o)
                0x000000000400556c                __fp_unlock_all
 .text          0x00000000040055ac        0x0 ../MasterUpgraded_bsp//newlib/nios2-elf/lib/libc.a(lib_a-freer.o)
 .text._free_r  0x00000000040055ac      0x558 ../MasterUpgraded_bsp//newlib/nios2-elf/lib/libc.a(lib_a-freer.o)
                0x00000000040055ac                _free_r
 .text._malloc_trim_r
                0x0000000004005b04      0x1c0 ../MasterUpgraded_bsp//newlib/nios2-elf/lib/libc.a(lib_a-freer.o)
                0x0000000004005b04                _malloc_trim_r
 .text          0x0000000004005cc4        0x0 ../MasterUpgraded_bsp//newlib/nios2-elf/lib/libc.a(lib_a-fwalk.o)
 .text._fwalk   0x0000000004005cc4       0xd8 ../MasterUpgraded_bsp//newlib/nios2-elf/lib/libc.a(lib_a-fwalk.o)
                0x0000000004005cc4                _fwalk
 .text._fwalk_reent
                0x0000000004005d9c       0xdc ../MasterUpgraded_bsp//newlib/nios2-elf/lib/libc.a(lib_a-fwalk.o)
                0x0000000004005d9c                _fwalk_reent
 .text          0x0000000004005e78        0x0 ../MasterUpgraded_bsp//newlib/nios2-elf/lib/libc.a(lib_a-impure.o)
 .text          0x0000000004005e78        0x0 ../MasterUpgraded_bsp//newlib/nios2-elf/lib/libc.a(lib_a-localeconv.o)
 .text.__get_global_locale
                0x0000000004005e78       0x24 ../MasterUpgraded_bsp//newlib/nios2-elf/lib/libc.a(lib_a-localeconv.o)
 .text.__get_current_locale
                0x0000000004005e9c       0x28 ../MasterUpgraded_bsp//newlib/nios2-elf/lib/libc.a(lib_a-localeconv.o)
 .text.__get_C_locale
                0x0000000004005ec4       0x28 ../MasterUpgraded_bsp//newlib/nios2-elf/lib/libc.a(lib_a-localeconv.o)
 .text.__localeconv_l
                0x0000000004005eec       0x50 ../MasterUpgraded_bsp//newlib/nios2-elf/lib/libc.a(lib_a-localeconv.o)
                0x0000000004005eec                __localeconv_l
 .text._localeconv_r
                0x0000000004005f3c       0x34 ../MasterUpgraded_bsp//newlib/nios2-elf/lib/libc.a(lib_a-localeconv.o)
                0x0000000004005f3c                _localeconv_r
 .text.localeconv
                0x0000000004005f70       0x30 ../MasterUpgraded_bsp//newlib/nios2-elf/lib/libc.a(lib_a-localeconv.o)
                0x0000000004005f70                localeconv
 .text          0x0000000004005fa0        0x0 ../MasterUpgraded_bsp//newlib/nios2-elf/lib/libc.a(lib_a-locale.o)
 .text.__get_global_locale
                0x0000000004005fa0       0x24 ../MasterUpgraded_bsp//newlib/nios2-elf/lib/libc.a(lib_a-locale.o)
 .text.__get_current_locale
                0x0000000004005fc4       0x28 ../MasterUpgraded_bsp//newlib/nios2-elf/lib/libc.a(lib_a-locale.o)
 .text._setlocale_r
                0x0000000004005fec       0x80 ../MasterUpgraded_bsp//newlib/nios2-elf/lib/libc.a(lib_a-locale.o)
                0x0000000004005fec                _setlocale_r
 .text.__locale_mb_cur_max
                0x000000000400606c       0x38 ../MasterUpgraded_bsp//newlib/nios2-elf/lib/libc.a(lib_a-locale.o)
                0x000000000400606c                __locale_mb_cur_max
 .text.setlocale
                0x00000000040060a4       0x40 ../MasterUpgraded_bsp//newlib/nios2-elf/lib/libc.a(lib_a-locale.o)
                0x00000000040060a4                setlocale
 .text          0x00000000040060e4        0x0 ../MasterUpgraded_bsp//newlib/nios2-elf/lib/libc.a(lib_a-makebuf.o)
 .text.__smakebuf_r
                0x00000000040060e4      0x1a8 ../MasterUpgraded_bsp//newlib/nios2-elf/lib/libc.a(lib_a-makebuf.o)
                0x00000000040060e4                __smakebuf_r
 .text.__swhatbuf_r
                0x000000000400628c       0xe8 ../MasterUpgraded_bsp//newlib/nios2-elf/lib/libc.a(lib_a-makebuf.o)
                0x000000000400628c                __swhatbuf_r
 .text          0x0000000004006374        0x0 ../MasterUpgraded_bsp//newlib/nios2-elf/lib/libc.a(lib_a-mallocr.o)
 .text.malloc_extend_top
                0x0000000004006374      0x3c4 ../MasterUpgraded_bsp//newlib/nios2-elf/lib/libc.a(lib_a-mallocr.o)
 .text._malloc_r
                0x0000000004006738      0xb68 ../MasterUpgraded_bsp//newlib/nios2-elf/lib/libc.a(lib_a-mallocr.o)
                0x0000000004006738                _malloc_r
 .text          0x00000000040072a0        0x0 ../MasterUpgraded_bsp//newlib/nios2-elf/lib/libc.a(lib_a-mbtowc_r.o)
 .text.__get_global_locale
                0x00000000040072a0       0x24 ../MasterUpgraded_bsp//newlib/nios2-elf/lib/libc.a(lib_a-mbtowc_r.o)
 .text.__get_current_locale
                0x00000000040072c4       0x28 ../MasterUpgraded_bsp//newlib/nios2-elf/lib/libc.a(lib_a-mbtowc_r.o)
 .text._mbtowc_r
                0x00000000040072ec       0x58 ../MasterUpgraded_bsp//newlib/nios2-elf/lib/libc.a(lib_a-mbtowc_r.o)
                0x00000000040072ec                _mbtowc_r
 .text.__ascii_mbtowc
                0x0000000004007344       0x94 ../MasterUpgraded_bsp//newlib/nios2-elf/lib/libc.a(lib_a-mbtowc_r.o)
                0x0000000004007344                __ascii_mbtowc
 .text          0x00000000040073d8        0x0 ../MasterUpgraded_bsp//newlib/nios2-elf/lib/libc.a(lib_a-memchr.o)
 .text.memchr   0x00000000040073d8      0x1bc ../MasterUpgraded_bsp//newlib/nios2-elf/lib/libc.a(lib_a-memchr.o)
                0x00000000040073d8                memchr
 .text          0x0000000004007594        0x0 ../MasterUpgraded_bsp//newlib/nios2-elf/lib/libc.a(lib_a-memcpy.o)
 .text.memcpy   0x0000000004007594      0x188 ../MasterUpgraded_bsp//newlib/nios2-elf/lib/libc.a(lib_a-memcpy.o)
                0x0000000004007594                memcpy
 .text          0x000000000400771c        0x0 ../MasterUpgraded_bsp//newlib/nios2-elf/lib/libc.a(lib_a-memset.o)
 .text.memset   0x000000000400771c      0x1c4 ../MasterUpgraded_bsp//newlib/nios2-elf/lib/libc.a(lib_a-memset.o)
                0x000000000400771c                memset
 .text          0x00000000040078e0        0x0 ../MasterUpgraded_bsp//newlib/nios2-elf/lib/libc.a(lib_a-mprec.o)
 .text._Balloc  0x00000000040078e0      0x124 ../MasterUpgraded_bsp//newlib/nios2-elf/lib/libc.a(lib_a-mprec.o)
                0x00000000040078e0                _Balloc
 .text._Bfree   0x0000000004007a04       0x74 ../MasterUpgraded_bsp//newlib/nios2-elf/lib/libc.a(lib_a-mprec.o)
                0x0000000004007a04                _Bfree
 .text.__multadd
                0x0000000004007a78      0x1b8 ../MasterUpgraded_bsp//newlib/nios2-elf/lib/libc.a(lib_a-mprec.o)
                0x0000000004007a78                __multadd
 .text.__s2b    0x0000000004007c30      0x1b8 ../MasterUpgraded_bsp//newlib/nios2-elf/lib/libc.a(lib_a-mprec.o)
                0x0000000004007c30                __s2b
 .text.__hi0bits
                0x0000000004007de8       0x8c ../MasterUpgraded_bsp//newlib/nios2-elf/lib/libc.a(lib_a-mprec.o)
                0x0000000004007de8                __hi0bits
 .text.__lo0bits
                0x0000000004007e74       0xec ../MasterUpgraded_bsp//newlib/nios2-elf/lib/libc.a(lib_a-mprec.o)
                0x0000000004007e74                __lo0bits
 .text.__i2b    0x0000000004007f60       0x84 ../MasterUpgraded_bsp//newlib/nios2-elf/lib/libc.a(lib_a-mprec.o)
                0x0000000004007f60                __i2b
 .text.__multiply
                0x0000000004007fe4      0x3dc ../MasterUpgraded_bsp//newlib/nios2-elf/lib/libc.a(lib_a-mprec.o)
                0x0000000004007fe4                __multiply
 .text.__pow5mult
                0x00000000040083c0      0x170 ../MasterUpgraded_bsp//newlib/nios2-elf/lib/libc.a(lib_a-mprec.o)
                0x00000000040083c0                __pow5mult
 .text.__lshift
                0x0000000004008530      0x21c ../MasterUpgraded_bsp//newlib/nios2-elf/lib/libc.a(lib_a-mprec.o)
                0x0000000004008530                __lshift
 .text.__mcmp   0x000000000400874c      0x104 ../MasterUpgraded_bsp//newlib/nios2-elf/lib/libc.a(lib_a-mprec.o)
                0x000000000400874c                __mcmp
 .text.__mdiff  0x0000000004008850      0x2f4 ../MasterUpgraded_bsp//newlib/nios2-elf/lib/libc.a(lib_a-mprec.o)
                0x0000000004008850                __mdiff
 .text.__ulp    0x0000000004008b44       0xc4 ../MasterUpgraded_bsp//newlib/nios2-elf/lib/libc.a(lib_a-mprec.o)
                0x0000000004008b44                __ulp
 .text.__b2d    0x0000000004008c08      0x1fc ../MasterUpgraded_bsp//newlib/nios2-elf/lib/libc.a(lib_a-mprec.o)
                0x0000000004008c08                __b2d
 .text.__d2b    0x0000000004008e04      0x264 ../MasterUpgraded_bsp//newlib/nios2-elf/lib/libc.a(lib_a-mprec.o)
                0x0000000004008e04                __d2b
 .text.__ratio  0x0000000004009068      0x11c ../MasterUpgraded_bsp//newlib/nios2-elf/lib/libc.a(lib_a-mprec.o)
                0x0000000004009068                __ratio
 .text._mprec_log10
                0x0000000004009184       0xb4 ../MasterUpgraded_bsp//newlib/nios2-elf/lib/libc.a(lib_a-mprec.o)
                0x0000000004009184                _mprec_log10
 .text.__copybits
                0x0000000004009238       0xc4 ../MasterUpgraded_bsp//newlib/nios2-elf/lib/libc.a(lib_a-mprec.o)
                0x0000000004009238                __copybits
 .text.__any_on
                0x00000000040092fc      0x124 ../MasterUpgraded_bsp//newlib/nios2-elf/lib/libc.a(lib_a-mprec.o)
                0x00000000040092fc                __any_on
 .text          0x0000000004009420        0x0 ../MasterUpgraded_bsp//newlib/nios2-elf/lib/libc.a(lib_a-sbrkr.o)
 .text._sbrk_r  0x0000000004009420       0x60 ../MasterUpgraded_bsp//newlib/nios2-elf/lib/libc.a(lib_a-sbrkr.o)
                0x0000000004009420                _sbrk_r
 .text          0x0000000004009480        0x0 ../MasterUpgraded_bsp//newlib/nios2-elf/lib/libc.a(lib_a-stdio.o)
 .text.__sread  0x0000000004009480       0x9c ../MasterUpgraded_bsp//newlib/nios2-elf/lib/libc.a(lib_a-stdio.o)
                0x0000000004009480                __sread
 .text.__seofread
                0x000000000400951c       0x30 ../MasterUpgraded_bsp//newlib/nios2-elf/lib/libc.a(lib_a-stdio.o)
                0x000000000400951c                __seofread
 .text.__swrite
                0x000000000400954c       0xb4 ../MasterUpgraded_bsp//newlib/nios2-elf/lib/libc.a(lib_a-stdio.o)
                0x000000000400954c                __swrite
 .text.__sseek  0x0000000004009600       0xa0 ../MasterUpgraded_bsp//newlib/nios2-elf/lib/libc.a(lib_a-stdio.o)
                0x0000000004009600                __sseek
 .text.__sclose
                0x00000000040096a0       0x54 ../MasterUpgraded_bsp//newlib/nios2-elf/lib/libc.a(lib_a-stdio.o)
                0x00000000040096a0                __sclose
 .text          0x00000000040096f4        0x0 ../MasterUpgraded_bsp//newlib/nios2-elf/lib/libc.a(lib_a-strcmp.o)
 .text.strcmp   0x00000000040096f4      0x140 ../MasterUpgraded_bsp//newlib/nios2-elf/lib/libc.a(lib_a-strcmp.o)
                0x00000000040096f4                strcmp
 .text          0x0000000004009834        0x0 ../MasterUpgraded_bsp//newlib/nios2-elf/lib/libc.a(lib_a-strlen.o)
 .text.strlen   0x0000000004009834       0xf4 ../MasterUpgraded_bsp//newlib/nios2-elf/lib/libc.a(lib_a-strlen.o)
                0x0000000004009834                strlen
 .text          0x0000000004009928        0x0 ../MasterUpgraded_bsp//newlib/nios2-elf/lib/libc.a(lib_a-vfiprintf.o)
 .text.__sprint_r
                0x0000000004009928      0x130 ../MasterUpgraded_bsp//newlib/nios2-elf/lib/libc.a(lib_a-vfiprintf.o)
                0x0000000004009928                __sprint_r
 .text.__sbprintf
                0x0000000004009a58       0xf0 ../MasterUpgraded_bsp//newlib/nios2-elf/lib/libc.a(lib_a-vfiprintf.o)
 .text.__vfiprintf_internal
                0x0000000004009b48       0x50 ../MasterUpgraded_bsp//newlib/nios2-elf/lib/libc.a(lib_a-vfiprintf.o)
                0x0000000004009b48                __vfiprintf_internal
 .text.___vfiprintf_internal_r
                0x0000000004009b98     0x12a0 ../MasterUpgraded_bsp//newlib/nios2-elf/lib/libc.a(lib_a-vfiprintf.o)
                0x0000000004009b98                ___vfiprintf_internal_r
 .text          0x000000000400ae38        0x0 ../MasterUpgraded_bsp//newlib/nios2-elf/lib/libc.a(lib_a-wctomb_r.o)
 .text.__get_global_locale
                0x000000000400ae38       0x24 ../MasterUpgraded_bsp//newlib/nios2-elf/lib/libc.a(lib_a-wctomb_r.o)
 .text.__get_current_locale
                0x000000000400ae5c       0x28 ../MasterUpgraded_bsp//newlib/nios2-elf/lib/libc.a(lib_a-wctomb_r.o)
 .text._wctomb_r
                0x000000000400ae84       0x50 ../MasterUpgraded_bsp//newlib/nios2-elf/lib/libc.a(lib_a-wctomb_r.o)
                0x000000000400ae84                _wctomb_r
 .text.__ascii_wctomb
                0x000000000400aed4       0x78 ../MasterUpgraded_bsp//newlib/nios2-elf/lib/libc.a(lib_a-wctomb_r.o)
                0x000000000400aed4                __ascii_wctomb
 .text          0x000000000400af4c        0x0 ../MasterUpgraded_bsp//newlib/nios2-elf/lib/libc.a(lib_a-writer.o)
 .text._write_r
                0x000000000400af4c       0x70 ../MasterUpgraded_bsp//newlib/nios2-elf/lib/libc.a(lib_a-writer.o)
                0x000000000400af4c                _write_r
 .text          0x000000000400afbc        0x0 ../MasterUpgraded_bsp//newlib/nios2-elf/lib/libc.a(closer.o)
 .text._close_r
                0x000000000400afbc       0x60 ../MasterUpgraded_bsp//newlib/nios2-elf/lib/libc.a(closer.o)
                0x000000000400afbc                _close_r
 .text          0x000000000400b01c        0x0 ../MasterUpgraded_bsp//newlib/nios2-elf/lib/libc.a(lib_a-assert.o)
 .text.__assert_func
                0x000000000400b01c       0x84 ../MasterUpgraded_bsp//newlib/nios2-elf/lib/libc.a(lib_a-assert.o)
                0x000000000400b01c                __assert_func
 .text.__assert
                0x000000000400b0a0       0x30 ../MasterUpgraded_bsp//newlib/nios2-elf/lib/libc.a(lib_a-assert.o)
                0x000000000400b0a0                __assert
 .text          0x000000000400b0d0        0x0 ../MasterUpgraded_bsp//newlib/nios2-elf/lib/libc.a(lib_a-callocr.o)
 .text._calloc_r
                0x000000000400b0d0      0x164 ../MasterUpgraded_bsp//newlib/nios2-elf/lib/libc.a(lib_a-callocr.o)
                0x000000000400b0d0                _calloc_r
 .text          0x000000000400b234        0x0 ../MasterUpgraded_bsp//newlib/nios2-elf/lib/libc.a(lib_a-ctype_.o)
 .text          0x000000000400b234        0x0 ../MasterUpgraded_bsp//newlib/nios2-elf/lib/libc.a(lib_a-fclose.o)
 .text._fclose_r
                0x000000000400b234      0x12c ../MasterUpgraded_bsp//newlib/nios2-elf/lib/libc.a(lib_a-fclose.o)
                0x000000000400b234                _fclose_r
 .text.fclose   0x000000000400b360       0x38 ../MasterUpgraded_bsp//newlib/nios2-elf/lib/libc.a(lib_a-fclose.o)
                0x000000000400b360                fclose
 .text          0x000000000400b398        0x0 ../MasterUpgraded_bsp//newlib/nios2-elf/lib/libc.a(lib_a-fiprintf.o)
 .text._fiprintf_r
                0x000000000400b398       0x5c ../MasterUpgraded_bsp//newlib/nios2-elf/lib/libc.a(lib_a-fiprintf.o)
                0x000000000400b398                _fiprintf_r
 .text.fiprintf
                0x000000000400b3f4       0x60 ../MasterUpgraded_bsp//newlib/nios2-elf/lib/libc.a(lib_a-fiprintf.o)
                0x000000000400b3f4                fiprintf
 .text          0x000000000400b454        0x0 ../MasterUpgraded_bsp//newlib/nios2-elf/lib/libc.a(lib_a-fputwc.o)
 .text.__fputwc
                0x000000000400b454      0x1d8 ../MasterUpgraded_bsp//newlib/nios2-elf/lib/libc.a(lib_a-fputwc.o)
                0x000000000400b454                __fputwc
 .text._fputwc_r
                0x000000000400b62c       0x88 ../MasterUpgraded_bsp//newlib/nios2-elf/lib/libc.a(lib_a-fputwc.o)
                0x000000000400b62c                _fputwc_r
 .text.fputwc   0x000000000400b6b4       0x68 ../MasterUpgraded_bsp//newlib/nios2-elf/lib/libc.a(lib_a-fputwc.o)
                0x000000000400b6b4                fputwc
 .text          0x000000000400b71c        0x0 ../MasterUpgraded_bsp//newlib/nios2-elf/lib/libc.a(lib_a-fstatr.o)
 .text._fstat_r
                0x000000000400b71c       0x68 ../MasterUpgraded_bsp//newlib/nios2-elf/lib/libc.a(lib_a-fstatr.o)
                0x000000000400b71c                _fstat_r
 .text          0x000000000400b784        0x0 ../MasterUpgraded_bsp//newlib/nios2-elf/lib/libc.a(lib_a-fvwrite.o)
 .text.__sfvwrite_r
                0x000000000400b784      0x5d4 ../MasterUpgraded_bsp//newlib/nios2-elf/lib/libc.a(lib_a-fvwrite.o)
                0x000000000400b784                __sfvwrite_r
 .text          0x000000000400bd58        0x0 ../MasterUpgraded_bsp//newlib/nios2-elf/lib/libc.a(lib_a-int_errno.o)
 .text          0x000000000400bd58        0x0 ../MasterUpgraded_bsp//newlib/nios2-elf/lib/libc.a(lib_a-isattyr.o)
 .text._isatty_r
                0x000000000400bd58       0x60 ../MasterUpgraded_bsp//newlib/nios2-elf/lib/libc.a(lib_a-isattyr.o)
                0x000000000400bd58                _isatty_r
 .text          0x000000000400bdb8        0x0 ../MasterUpgraded_bsp//newlib/nios2-elf/lib/libc.a(lib_a-lseekr.o)
 .text._lseek_r
                0x000000000400bdb8       0x70 ../MasterUpgraded_bsp//newlib/nios2-elf/lib/libc.a(lib_a-lseekr.o)
                0x000000000400bdb8                _lseek_r
 .text          0x000000000400be28        0x0 ../MasterUpgraded_bsp//newlib/nios2-elf/lib/libc.a(lib_a-memmove.o)
 .text.memmove  0x000000000400be28      0x208 ../MasterUpgraded_bsp//newlib/nios2-elf/lib/libc.a(lib_a-memmove.o)
                0x000000000400be28                memmove
 .text          0x000000000400c030        0x0 ../MasterUpgraded_bsp//newlib/nios2-elf/lib/libc.a(lib_a-readr.o)
 .text._read_r  0x000000000400c030       0x70 ../MasterUpgraded_bsp//newlib/nios2-elf/lib/libc.a(lib_a-readr.o)
                0x000000000400c030                _read_r
 .text          0x000000000400c0a0        0x0 ../MasterUpgraded_bsp//newlib/nios2-elf/lib/libc.a(lib_a-reallocr.o)
 .text._realloc_r
                0x000000000400c0a0      0xbf4 ../MasterUpgraded_bsp//newlib/nios2-elf/lib/libc.a(lib_a-reallocr.o)
                0x000000000400c0a0                _realloc_r
 .text          0x000000000400cc94        0x0 ../MasterUpgraded_bsp//newlib/nios2-elf/lib/libc.a(lib_a-vfiprintfr_1.o)
 .text._vfiprintf_r
                0x000000000400cc94       0x54 ../MasterUpgraded_bsp//newlib/nios2-elf/lib/libc.a(lib_a-vfiprintfr_1.o)
                0x000000000400cc94                _vfiprintf_r
 .text          0x000000000400cce8        0x0 ../MasterUpgraded_bsp//newlib/nios2-elf/lib/libc.a(lib_a-wbuf.o)
 .text.__swbuf_r
                0x000000000400cce8      0x168 ../MasterUpgraded_bsp//newlib/nios2-elf/lib/libc.a(lib_a-wbuf.o)
                0x000000000400cce8                __swbuf_r
 .text.__swbuf  0x000000000400ce50       0x40 ../MasterUpgraded_bsp//newlib/nios2-elf/lib/libc.a(lib_a-wbuf.o)
                0x000000000400ce50                __swbuf
 .text          0x000000000400ce90        0x0 ../MasterUpgraded_bsp//newlib/nios2-elf/lib/libc.a(lib_a-wcrtomb.o)
 .text.__get_global_locale
                0x000000000400ce90       0x24 ../MasterUpgraded_bsp//newlib/nios2-elf/lib/libc.a(lib_a-wcrtomb.o)
 .text.__get_current_locale
                0x000000000400ceb4       0x28 ../MasterUpgraded_bsp//newlib/nios2-elf/lib/libc.a(lib_a-wcrtomb.o)
 .text._wcrtomb_r
                0x000000000400cedc       0xb4 ../MasterUpgraded_bsp//newlib/nios2-elf/lib/libc.a(lib_a-wcrtomb.o)
                0x000000000400cedc                _wcrtomb_r
 .text.wcrtomb  0x000000000400cf90       0xb8 ../MasterUpgraded_bsp//newlib/nios2-elf/lib/libc.a(lib_a-wcrtomb.o)
                0x000000000400cf90                wcrtomb
 .text          0x000000000400d048        0x0 ../MasterUpgraded_bsp//newlib/nios2-elf/lib/libc.a(lib_a-abort.o)
 .text.abort    0x000000000400d048       0x20 ../MasterUpgraded_bsp//newlib/nios2-elf/lib/libc.a(lib_a-abort.o)
                0x000000000400d048                abort
 .text          0x000000000400d068        0x0 ../MasterUpgraded_bsp//newlib/nios2-elf/lib/libc.a(lib_a-signal.o)
 .text._init_signal_r
                0x000000000400d068       0x9c ../MasterUpgraded_bsp//newlib/nios2-elf/lib/libc.a(lib_a-signal.o)
                0x000000000400d068                _init_signal_r
 .text._signal_r
                0x000000000400d104       0xb4 ../MasterUpgraded_bsp//newlib/nios2-elf/lib/libc.a(lib_a-signal.o)
                0x000000000400d104                _signal_r
 .text._raise_r
                0x000000000400d1b8      0x104 ../MasterUpgraded_bsp//newlib/nios2-elf/lib/libc.a(lib_a-signal.o)
                0x000000000400d1b8                _raise_r
 .text.__sigtramp_r
                0x000000000400d2bc       0xe4 ../MasterUpgraded_bsp//newlib/nios2-elf/lib/libc.a(lib_a-signal.o)
                0x000000000400d2bc                __sigtramp_r
 .text.raise    0x000000000400d3a0       0x38 ../MasterUpgraded_bsp//newlib/nios2-elf/lib/libc.a(lib_a-signal.o)
                0x000000000400d3a0                raise
 .text.signal   0x000000000400d3d8       0x40 ../MasterUpgraded_bsp//newlib/nios2-elf/lib/libc.a(lib_a-signal.o)
                0x000000000400d3d8                signal
 .text._init_signal
                0x000000000400d418       0x30 ../MasterUpgraded_bsp//newlib/nios2-elf/lib/libc.a(lib_a-signal.o)
                0x000000000400d418                _init_signal
 .text.__sigtramp
                0x000000000400d448       0x38 ../MasterUpgraded_bsp//newlib/nios2-elf/lib/libc.a(lib_a-signal.o)
                0x000000000400d448                __sigtramp
 .text          0x000000000400d480        0x0 ../MasterUpgraded_bsp//newlib/nios2-elf/lib/libc.a(lib_a-signalr.o)
 .text._kill_r  0x000000000400d480       0x68 ../MasterUpgraded_bsp//newlib/nios2-elf/lib/libc.a(lib_a-signalr.o)
                0x000000000400d480                _kill_r
 .text._getpid_r
                0x000000000400d4e8       0x34 ../MasterUpgraded_bsp//newlib/nios2-elf/lib/libc.a(lib_a-signalr.o)
                0x000000000400d4e8                _getpid_r
 .text          0x000000000400d51c      0x590 /home/omaralkhatib/intelFPGA_lite/20.1/nios2eds/bin/gnu/H-x86_64-pc-linux-gnu/bin/../lib/gcc/nios2-elf/9.2.1/libgcc.a(_udivdi3.o)
                0x000000000400d51c                __udivdi3
 .text          0x000000000400daac      0x534 /home/omaralkhatib/intelFPGA_lite/20.1/nios2eds/bin/gnu/H-x86_64-pc-linux-gnu/bin/../lib/gcc/nios2-elf/9.2.1/libgcc.a(_umoddi3.o)
                0x000000000400daac                __umoddi3
 .text          0x000000000400dfe0      0x1b4 /home/omaralkhatib/intelFPGA_lite/20.1/nios2eds/bin/gnu/H-x86_64-pc-linux-gnu/bin/../lib/gcc/nios2-elf/9.2.1/libgcc.a(lib2-divmod.o)
                0x000000000400dfe0                __divsi3
                0x000000000400e060                __modsi3
                0x000000000400e0d4                __udivsi3
                0x000000000400e138                __umodsi3
 .text          0x000000000400e194      0x978 /home/omaralkhatib/intelFPGA_lite/20.1/nios2eds/bin/gnu/H-x86_64-pc-linux-gnu/bin/../lib/gcc/nios2-elf/9.2.1/libgcc.a(adddf3.o)
                0x000000000400e194                __adddf3
 .text          0x000000000400eb0c      0x860 /home/omaralkhatib/intelFPGA_lite/20.1/nios2eds/bin/gnu/H-x86_64-pc-linux-gnu/bin/../lib/gcc/nios2-elf/9.2.1/libgcc.a(divdf3.o)
                0x000000000400eb0c                __divdf3
 .text          0x000000000400f36c       0x80 /home/omaralkhatib/intelFPGA_lite/20.1/nios2eds/bin/gnu/H-x86_64-pc-linux-gnu/bin/../lib/gcc/nios2-elf/9.2.1/libgcc.a(eqdf2.o)
                0x000000000400f36c                __eqdf2
                0x000000000400f36c                __nedf2
 .text          0x000000000400f3ec       0xf0 /home/omaralkhatib/intelFPGA_lite/20.1/nios2eds/bin/gnu/H-x86_64-pc-linux-gnu/bin/../lib/gcc/nios2-elf/9.2.1/libgcc.a(gedf2.o)
                0x000000000400f3ec                __gtdf2
                0x000000000400f3ec                __gedf2
 .text          0x000000000400f4dc       0xf0 /home/omaralkhatib/intelFPGA_lite/20.1/nios2eds/bin/gnu/H-x86_64-pc-linux-gnu/bin/../lib/gcc/nios2-elf/9.2.1/libgcc.a(ledf2.o)
                0x000000000400f4dc                __ltdf2
                0x000000000400f4dc                __ledf2
 .text          0x000000000400f5cc      0x670 /home/omaralkhatib/intelFPGA_lite/20.1/nios2eds/bin/gnu/H-x86_64-pc-linux-gnu/bin/../lib/gcc/nios2-elf/9.2.1/libgcc.a(muldf3.o)
                0x000000000400f5cc                __muldf3
 .text          0x000000000400fc3c      0x934 /home/omaralkhatib/intelFPGA_lite/20.1/nios2eds/bin/gnu/H-x86_64-pc-linux-gnu/bin/../lib/gcc/nios2-elf/9.2.1/libgcc.a(subdf3.o)
                0x000000000400fc3c                __subdf3
 .text          0x0000000004010570       0x54 /home/omaralkhatib/intelFPGA_lite/20.1/nios2eds/bin/gnu/H-x86_64-pc-linux-gnu/bin/../lib/gcc/nios2-elf/9.2.1/libgcc.a(unorddf2.o)
                0x0000000004010570                __unorddf2
 .text          0x00000000040105c4       0x80 /home/omaralkhatib/intelFPGA_lite/20.1/nios2eds/bin/gnu/H-x86_64-pc-linux-gnu/bin/../lib/gcc/nios2-elf/9.2.1/libgcc.a(fixdfsi.o)
                0x00000000040105c4                __fixdfsi
 .text          0x0000000004010644       0xbc /home/omaralkhatib/intelFPGA_lite/20.1/nios2eds/bin/gnu/H-x86_64-pc-linux-gnu/bin/../lib/gcc/nios2-elf/9.2.1/libgcc.a(floatsidf.o)
                0x0000000004010644                __floatsidf
 .text          0x0000000004010700       0x90 /home/omaralkhatib/intelFPGA_lite/20.1/nios2eds/bin/gnu/H-x86_64-pc-linux-gnu/bin/../lib/gcc/nios2-elf/9.2.1/libgcc.a(floatunsidf.o)
                0x0000000004010700                __floatunsidf
 .text          0x0000000004010790        0x0 /home/omaralkhatib/intelFPGA_lite/20.1/nios2eds/bin/gnu/H-x86_64-pc-linux-gnu/bin/../lib/gcc/nios2-elf/9.2.1/libgcc.a(_clz.o)
 .text          0x0000000004010790       0x54 /home/omaralkhatib/intelFPGA_lite/20.1/nios2eds/bin/gnu/H-x86_64-pc-linux-gnu/bin/../lib/gcc/nios2-elf/9.2.1/libgcc.a(_clzsi2.o)
                0x0000000004010790                __clzsi2
 .text          0x00000000040107e4      0x10c ../MasterUpgraded_bsp//libhal_bsp.a(alt_close.o)
                0x0000000004010820                close
 .text          0x00000000040108f0       0x2c ../MasterUpgraded_bsp//libhal_bsp.a(alt_dev.o)
 .text          0x000000000401091c        0x0 ../MasterUpgraded_bsp//libhal_bsp.a(alt_errno.o)
 .text          0x000000000401091c       0x38 ../MasterUpgraded_bsp//libhal_bsp.a(alt_exit.o)
                0x000000000401091c                _exit
 .text          0x0000000004010954       0xec ../MasterUpgraded_bsp//libhal_bsp.a(alt_fstat.o)
                0x0000000004010990                fstat
 .text          0x0000000004010a40       0x20 ../MasterUpgraded_bsp//libhal_bsp.a(alt_getpid.o)
                0x0000000004010a40                getpid
 .text          0x0000000004010a60       0xe0 ../MasterUpgraded_bsp//libhal_bsp.a(alt_isatty.o)
                0x0000000004010a9c                isatty
 .text          0x0000000004010b40      0x168 ../MasterUpgraded_bsp//libhal_bsp.a(alt_kill.o)
                0x0000000004010b7c                kill
 .text          0x0000000004010ca8       0xec ../MasterUpgraded_bsp//libhal_bsp.a(alt_load.o)
                0x0000000004010d10                alt_load
 .text          0x0000000004010d94      0x110 ../MasterUpgraded_bsp//libhal_bsp.a(alt_lseek.o)
                0x0000000004010dd0                lseek
 .text          0x0000000004010ea4       0x7c ../MasterUpgraded_bsp//libhal_bsp.a(alt_main.o)
                0x0000000004010ea4                alt_main
 .text          0x0000000004010f20       0x48 ../MasterUpgraded_bsp//libhal_bsp.a(alt_malloc_lock.o)
                0x0000000004010f20                __malloc_lock
                0x0000000004010f44                __malloc_unlock
 .text          0x0000000004010f68      0x138 ../MasterUpgraded_bsp//libhal_bsp.a(alt_read.o)
                0x0000000004010fa4                read
 .text          0x00000000040110a0       0x58 ../MasterUpgraded_bsp//libhal_bsp.a(alt_release_fd.o)
                0x00000000040110a0                alt_release_fd
 .text          0x00000000040110f8       0xb8 ../MasterUpgraded_bsp//libhal_bsp.a(alt_sbrk.o)
                0x00000000040110f8                sbrk
 .text          0x00000000040111b0       0x30 ../MasterUpgraded_bsp//libhal_bsp.a(alt_usleep.o)
                0x00000000040111b0                usleep
 .text          0x00000000040111e0      0x134 ../MasterUpgraded_bsp//libhal_bsp.a(alt_write.o)
                0x000000000401121c                write
 .text          0x0000000004011314       0xe0 ../MasterUpgraded_bsp//libhal_bsp.a(alt_sys_init.o)
                0x0000000004011348                alt_irq_init
                0x0000000004011384                alt_sys_init
 .text          0x00000000040113f4      0x164 ../MasterUpgraded_bsp//libhal_bsp.a(altera_avalon_jtag_uart_fd.o)
                0x00000000040113f4                altera_avalon_jtag_uart_read_fd
                0x0000000004011454                altera_avalon_jtag_uart_write_fd
                0x00000000040114b4                altera_avalon_jtag_uart_close_fd
                0x0000000004011504                altera_avalon_jtag_uart_ioctl_fd
 .text          0x0000000004011558      0x3cc ../MasterUpgraded_bsp//libhal_bsp.a(altera_avalon_jtag_uart_init.o)
                0x0000000004011558                altera_avalon_jtag_uart_init
                0x00000000040118bc                altera_avalon_jtag_uart_close
 .text          0x0000000004011924       0xf4 ../MasterUpgraded_bsp//libhal_bsp.a(altera_avalon_jtag_uart_ioctl.o)
                0x0000000004011924                altera_avalon_jtag_uart_ioctl
 .text          0x0000000004011a18      0x220 ../MasterUpgraded_bsp//libhal_bsp.a(altera_avalon_jtag_uart_read.o)
                0x0000000004011a18                altera_avalon_jtag_uart_read
 .text          0x0000000004011c38      0x228 ../MasterUpgraded_bsp//libhal_bsp.a(altera_avalon_jtag_uart_write.o)
                0x0000000004011c38                altera_avalon_jtag_uart_write
 .text          0x0000000004011e60       0xfc ../MasterUpgraded_bsp//libhal_bsp.a(altera_avalon_timer_sc.o)
                0x0000000004011ee0                alt_avalon_timer_sc_init
 .text          0x0000000004011f5c      0x3cc ../MasterUpgraded_bsp//libhal_bsp.a(altera_up_avalon_accelerometer_spi.o)
                0x0000000004011f5c                alt_up_accelerometer_spi_open_dev
                0x0000000004011f98                alt_up_accelerometer_spi_read_address_register
                0x0000000004011fdc                alt_up_accelerometer_spi_read
                0x0000000004012044                alt_up_accelerometer_spi_write
                0x00000000040120ac                alt_up_accelerometer_spi_read_x_axis
                0x0000000004012180                alt_up_accelerometer_spi_read_y_axis
                0x0000000004012254                alt_up_accelerometer_spi_read_z_axis
 .text          0x0000000004012328      0x134 ../MasterUpgraded_bsp//libhal_bsp.a(alt_alarm_start.o)
                0x0000000004012328                alt_alarm_start
 .text          0x000000000401245c      0x158 ../MasterUpgraded_bsp//libhal_bsp.a(alt_busy_sleep.o)
                0x000000000401245c                alt_busy_sleep
 .text          0x00000000040125b4       0x4c ../MasterUpgraded_bsp//libhal_bsp.a(alt_dcache_flush_all.o)
                0x00000000040125b4                alt_dcache_flush_all
 .text          0x0000000004012600       0xe4 ../MasterUpgraded_bsp//libhal_bsp.a(alt_dev_llist_insert.o)
                0x000000000401263c                alt_dev_llist_insert
 .text          0x00000000040126e4       0x64 ../MasterUpgraded_bsp//libhal_bsp.a(alt_do_ctors.o)
                0x00000000040126e4                _do_ctors
 .text          0x0000000004012748       0x64 ../MasterUpgraded_bsp//libhal_bsp.a(alt_do_dtors.o)
                0x0000000004012748                _do_dtors
 .text          0x00000000040127ac       0x90 ../MasterUpgraded_bsp//libhal_bsp.a(alt_find_dev.o)
                0x00000000040127ac                alt_find_dev
 .text          0x000000000401283c       0x34 ../MasterUpgraded_bsp//libhal_bsp.a(alt_icache_flush_all.o)
                0x000000000401283c                alt_icache_flush_all
 .text          0x0000000004012870      0x12c ../MasterUpgraded_bsp//libhal_bsp.a(alt_io_redirect.o)
                0x0000000004012920                alt_io_redirect
 .text          0x000000000401299c      0x180 ../MasterUpgraded_bsp//libhal_bsp.a(alt_irq_register.o)
                0x000000000401299c                alt_irq_register
 .text          0x0000000004012b1c        0x0 ../MasterUpgraded_bsp//libhal_bsp.a(alt_irq_vars.o)
 .text          0x0000000004012b1c      0x248 ../MasterUpgraded_bsp//libhal_bsp.a(alt_open.o)
                0x0000000004012c10                open
 .text          0x0000000004012d64      0x1ac ../MasterUpgraded_bsp//libhal_bsp.a(alt_tick.o)
                0x0000000004012d64                alt_alarm_stop
                0x0000000004012e08                alt_tick
 .text          0x0000000004012f10       0x24 ../MasterUpgraded_bsp//libhal_bsp.a(altera_nios2_gen2_irq.o)
                0x0000000004012f10                altera_nios2_gen2_irq_init
 .text          0x0000000004012f34      0x108 ../MasterUpgraded_bsp//libhal_bsp.a(alt_find_file.o)
                0x0000000004012f34                alt_find_file
 .text          0x000000000401303c       0xa0 ../MasterUpgraded_bsp//libhal_bsp.a(alt_get_fd.o)
                0x000000000401303c                alt_get_fd
 .text          0x00000000040130dc       0x90 ../MasterUpgraded_bsp//libhal_bsp.a(alt_icache_flush.o)
                0x00000000040130dc                alt_icache_flush
 .text          0x000000000401316c        0x0 ../MasterUpgraded_bsp//libhal_bsp.a(alt_irq_entry.o)
 .text          0x000000000401316c        0x0 ../MasterUpgraded_bsp//libhal_bsp.a(alt_irq_handler.o)
 .text          0x000000000401316c        0x0 ../MasterUpgraded_bsp//libhal_bsp.a(alt_exception_entry.o)
 .text          0x000000000401316c       0x98 ../MasterUpgraded_bsp//libhal_bsp.a(alt_instruction_exception_entry.o)
                0x000000000401316c                alt_exception_cause_generated_bad_addr
 .text          0x0000000004013204        0x0 ../MasterUpgraded_bsp//newlib/nios2-elf/lib/libc.a(lib_a-atexit.o)
 .text.atexit   0x0000000004013204       0x3c ../MasterUpgraded_bsp//newlib/nios2-elf/lib/libc.a(lib_a-atexit.o)
                0x0000000004013204                atexit
 .text          0x0000000004013240        0x0 ../MasterUpgraded_bsp//newlib/nios2-elf/lib/libc.a(lib_a-exit.o)
 .text.exit     0x0000000004013240       0x48 ../MasterUpgraded_bsp//newlib/nios2-elf/lib/libc.a(lib_a-exit.o)
                0x0000000004013240                exit
 .text          0x0000000004013288        0x0 ../MasterUpgraded_bsp//newlib/nios2-elf/lib/libc.a(lib_a-memcmp.o)
 .text.memcmp   0x0000000004013288      0x134 ../MasterUpgraded_bsp//newlib/nios2-elf/lib/libc.a(lib_a-memcmp.o)
                0x0000000004013288                memcmp
 .text          0x00000000040133bc        0x0 ../MasterUpgraded_bsp//newlib/nios2-elf/lib/libc.a(lib_a-__atexit.o)
 .text.__register_exitproc
                0x00000000040133bc      0x118 ../MasterUpgraded_bsp//newlib/nios2-elf/lib/libc.a(lib_a-__atexit.o)
                0x00000000040133bc                __register_exitproc
 .text          0x00000000040134d4        0x0 ../MasterUpgraded_bsp//newlib/nios2-elf/lib/libc.a(lib_a-__call_atexit.o)
 .text.__call_exitprocs
                0x00000000040134d4      0x18c ../MasterUpgraded_bsp//newlib/nios2-elf/lib/libc.a(lib_a-__call_atexit.o)
                0x00000000040134d4                __call_exitprocs
 *(.gnu.warning.*)
 *(.fini)
                [!provide]                        PROVIDE (__etext = ABSOLUTE (.))
                [!provide]                        PROVIDE (_etext = ABSOLUTE (.))
                [!provide]                        PROVIDE (etext = ABSOLUTE (.))
 *(.eh_frame_hdr)
                0x0000000004013660                . = ALIGN (0x4)
                [!provide]                        PROVIDE (__preinit_array_start = ABSOLUTE (.))
 *(.preinit_array)
                [!provide]                        PROVIDE (__preinit_array_end = ABSOLUTE (.))
                [!provide]                        PROVIDE (__init_array_start = ABSOLUTE (.))
 *(.init_array)
                [!provide]                        PROVIDE (__init_array_end = ABSOLUTE (.))
                [!provide]                        PROVIDE (__fini_array_start = ABSOLUTE (.))
 *(.fini_array)
                [!provide]                        PROVIDE (__fini_array_end = ABSOLUTE (.))
 *(.eh_frame)
 *(.gcc_except_table .gcc_except_table.*)
 *(.dynamic)
                0x0000000004013660                PROVIDE (__CTOR_LIST__ = ABSOLUTE (.))
 *(.ctors)
 *(SORT_BY_NAME(.ctors.*))
                0x0000000004013660                PROVIDE (__CTOR_END__ = ABSOLUTE (.))
                0x0000000004013660                PROVIDE (__DTOR_LIST__ = ABSOLUTE (.))
 *(.dtors)
 *(SORT_BY_NAME(.dtors.*))
                0x0000000004013660                PROVIDE (__DTOR_END__ = ABSOLUTE (.))
 *(.jcr)
                0x0000000004013660                . = ALIGN (0x4)

.rodata         0x0000000004013660      0x74c
                0x0000000004013660                PROVIDE (__ram_rodata_start = ABSOLUTE (.))
                0x0000000004013660                . = ALIGN (0x4)
 *(.rodata .rodata.* .gnu.linkonce.r.*)
 .rodata        0x0000000004013660       0x24 obj/default/float2_functionality.o
 .rodata        0x0000000004013684       0x5e ../MasterUpgraded_bsp//newlib/nios2-elf/lib/libc.a(lib_a-vfprintf.o)
 *fill*         0x00000000040136e2        0x2 
 .rodata.blanks.5176
                0x00000000040136e4       0x10 ../MasterUpgraded_bsp//newlib/nios2-elf/lib/libc.a(lib_a-vfprintf.o)
 .rodata.zeroes.5177
                0x00000000040136f4       0x10 ../MasterUpgraded_bsp//newlib/nios2-elf/lib/libc.a(lib_a-vfprintf.o)
 .rodata        0x0000000004013704       0x8b ../MasterUpgraded_bsp//newlib/nios2-elf/lib/libc.a(lib_a-dtoa.o)
 *fill*         0x000000000401378f        0x1 
 .rodata        0x0000000004013790       0x12 ../MasterUpgraded_bsp//newlib/nios2-elf/lib/libc.a(lib_a-locale.o)
 *fill*         0x00000000040137a2        0x2 
 .rodata        0x00000000040137a4       0x78 ../MasterUpgraded_bsp//newlib/nios2-elf/lib/libc.a(lib_a-mprec.o)
 .rodata.__mprec_tens
                0x000000000401381c       0xc8 ../MasterUpgraded_bsp//newlib/nios2-elf/lib/libc.a(lib_a-mprec.o)
                0x000000000401381c                __mprec_tens
 .rodata.__mprec_bigtens
                0x00000000040138e4       0x28 ../MasterUpgraded_bsp//newlib/nios2-elf/lib/libc.a(lib_a-mprec.o)
                0x00000000040138e4                __mprec_bigtens
 .rodata.__mprec_tinytens
                0x000000000401390c       0x28 ../MasterUpgraded_bsp//newlib/nios2-elf/lib/libc.a(lib_a-mprec.o)
                0x000000000401390c                __mprec_tinytens
 .rodata.p05.3991
                0x0000000004013934        0xc ../MasterUpgraded_bsp//newlib/nios2-elf/lib/libc.a(lib_a-mprec.o)
 .rodata        0x0000000004013940       0x4a ../MasterUpgraded_bsp//newlib/nios2-elf/lib/libc.a(lib_a-vfiprintf.o)
 *fill*         0x000000000401398a        0x2 
 .rodata.blanks.5153
                0x000000000401398c       0x10 ../MasterUpgraded_bsp//newlib/nios2-elf/lib/libc.a(lib_a-vfiprintf.o)
 .rodata.zeroes.5154
                0x000000000401399c       0x10 ../MasterUpgraded_bsp//newlib/nios2-elf/lib/libc.a(lib_a-vfiprintf.o)
 .rodata        0x00000000040139ac       0x43 ../MasterUpgraded_bsp//newlib/nios2-elf/lib/libc.a(lib_a-assert.o)
 *fill*         0x00000000040139ef        0x1 
 .rodata._ctype_b
                0x00000000040139f0      0x180 ../MasterUpgraded_bsp//newlib/nios2-elf/lib/libc.a(lib_a-ctype_.o)
                0x00000000040139f0                _ctype_b
 .rodata._ctype_
                0x0000000004013b70      0x101 ../MasterUpgraded_bsp//newlib/nios2-elf/lib/libc.a(lib_a-ctype_.o)
                0x0000000004013b70                _ctype_
 *fill*         0x0000000004013c71        0x3 
 .rodata        0x0000000004013c74      0x100 /home/omaralkhatib/intelFPGA_lite/20.1/nios2eds/bin/gnu/H-x86_64-pc-linux-gnu/bin/../lib/gcc/nios2-elf/9.2.1/libgcc.a(_clz.o)
                0x0000000004013c74                __clz_tab
 .rodata        0x0000000004013d74        0xa ../MasterUpgraded_bsp//libhal_bsp.a(alt_dev.o)
 *fill*         0x0000000004013d7e        0x2 
 .rodata        0x0000000004013d80        0xa ../MasterUpgraded_bsp//libhal_bsp.a(alt_main.o)
 *fill*         0x0000000004013d8a        0x2 
 .rodata        0x0000000004013d8c       0x1f ../MasterUpgraded_bsp//libhal_bsp.a(alt_sys_init.o)
 *(.rodata1)
                0x0000000004013dac                . = ALIGN (0x4)
 *fill*         0x0000000004013dab        0x1 
                0x0000000004013dac                PROVIDE (__ram_rodata_end = ABSOLUTE (.))
                0x0000000004013660                PROVIDE (__flash_rodata_start = LOADADDR (.rodata))

.rwdata         0x0000000004013dac     0x1c04 load address 0x00000000040159b0
                0x0000000004013dac                PROVIDE (__ram_rwdata_start = ABSOLUTE (.))
                0x0000000004013dac                . = ALIGN (0x4)
 *(.got.plt)
 *(.got)
 *(.data1)
 *(.data .data.* .gnu.linkonce.d.*)
 .data          0x0000000004013dac        0x0 ../MasterUpgraded_bsp//obj/HAL/src/crt0.o
 .data          0x0000000004013dac        0x0 obj/default/float2_functionality.o
 .data          0x0000000004013dac        0x0 ../MasterUpgraded_bsp//newlib/nios2-elf/lib/libc.a(lib_a-printf.o)
 .data          0x0000000004013dac        0x0 ../MasterUpgraded_bsp//newlib/nios2-elf/lib/libc.a(lib_a-vfprintf.o)
 .data          0x0000000004013dac        0x0 ../MasterUpgraded_bsp//newlib/nios2-elf/lib/libc.a(lib_a-wsetup.o)
 .data          0x0000000004013dac        0x0 ../MasterUpgraded_bsp//newlib/nios2-elf/lib/libc.a(lib_a-dtoa.o)
 .data          0x0000000004013dac        0x0 ../MasterUpgraded_bsp//newlib/nios2-elf/lib/libc.a(lib_a-fflush.o)
 .data          0x0000000004013dac        0x0 ../MasterUpgraded_bsp//newlib/nios2-elf/lib/libc.a(lib_a-findfp.o)
 .data          0x0000000004013dac        0x0 ../MasterUpgraded_bsp//newlib/nios2-elf/lib/libc.a(lib_a-freer.o)
 .data          0x0000000004013dac        0x0 ../MasterUpgraded_bsp//newlib/nios2-elf/lib/libc.a(lib_a-fwalk.o)
 .data          0x0000000004013dac        0x0 ../MasterUpgraded_bsp//newlib/nios2-elf/lib/libc.a(lib_a-impure.o)
 .data.impure_data
                0x0000000004013dac      0x424 ../MasterUpgraded_bsp//newlib/nios2-elf/lib/libc.a(lib_a-impure.o)
 .data          0x00000000040141d0        0x0 ../MasterUpgraded_bsp//newlib/nios2-elf/lib/libc.a(lib_a-localeconv.o)
 .data          0x00000000040141d0        0x0 ../MasterUpgraded_bsp//newlib/nios2-elf/lib/libc.a(lib_a-locale.o)
 .data.__global_locale
                0x00000000040141d0      0x16c ../MasterUpgraded_bsp//newlib/nios2-elf/lib/libc.a(lib_a-locale.o)
                0x00000000040141d0                __global_locale
 .data          0x000000000401433c        0x0 ../MasterUpgraded_bsp//newlib/nios2-elf/lib/libc.a(lib_a-makebuf.o)
 .data          0x000000000401433c        0x0 ../MasterUpgraded_bsp//newlib/nios2-elf/lib/libc.a(lib_a-mallocr.o)
 .data.__malloc_av_
                0x000000000401433c      0x408 ../MasterUpgraded_bsp//newlib/nios2-elf/lib/libc.a(lib_a-mallocr.o)
                0x000000000401433c                __malloc_av_
 .data          0x0000000004014744        0x0 ../MasterUpgraded_bsp//newlib/nios2-elf/lib/libc.a(lib_a-mbtowc_r.o)
 .data          0x0000000004014744        0x0 ../MasterUpgraded_bsp//newlib/nios2-elf/lib/libc.a(lib_a-memchr.o)
 .data          0x0000000004014744        0x0 ../MasterUpgraded_bsp//newlib/nios2-elf/lib/libc.a(lib_a-memcpy.o)
 .data          0x0000000004014744        0x0 ../MasterUpgraded_bsp//newlib/nios2-elf/lib/libc.a(lib_a-memset.o)
 .data          0x0000000004014744        0x0 ../MasterUpgraded_bsp//newlib/nios2-elf/lib/libc.a(lib_a-mprec.o)
 .data          0x0000000004014744        0x0 ../MasterUpgraded_bsp//newlib/nios2-elf/lib/libc.a(lib_a-sbrkr.o)
 .data          0x0000000004014744        0x0 ../MasterUpgraded_bsp//newlib/nios2-elf/lib/libc.a(lib_a-stdio.o)
 .data          0x0000000004014744        0x0 ../MasterUpgraded_bsp//newlib/nios2-elf/lib/libc.a(lib_a-strcmp.o)
 .data          0x0000000004014744        0x0 ../MasterUpgraded_bsp//newlib/nios2-elf/lib/libc.a(lib_a-strlen.o)
 .data          0x0000000004014744        0x0 ../MasterUpgraded_bsp//newlib/nios2-elf/lib/libc.a(lib_a-vfiprintf.o)
 .data          0x0000000004014744        0x0 ../MasterUpgraded_bsp//newlib/nios2-elf/lib/libc.a(lib_a-wctomb_r.o)
 .data          0x0000000004014744        0x0 ../MasterUpgraded_bsp//newlib/nios2-elf/lib/libc.a(lib_a-writer.o)
 .data          0x0000000004014744        0x0 ../MasterUpgraded_bsp//newlib/nios2-elf/lib/libc.a(closer.o)
 .data          0x0000000004014744        0x0 ../MasterUpgraded_bsp//newlib/nios2-elf/lib/libc.a(lib_a-assert.o)
 .data          0x0000000004014744        0x0 ../MasterUpgraded_bsp//newlib/nios2-elf/lib/libc.a(lib_a-callocr.o)
 .data          0x0000000004014744        0x0 ../MasterUpgraded_bsp//newlib/nios2-elf/lib/libc.a(lib_a-ctype_.o)
 .data          0x0000000004014744        0x0 ../MasterUpgraded_bsp//newlib/nios2-elf/lib/libc.a(lib_a-fclose.o)
 .data          0x0000000004014744        0x0 ../MasterUpgraded_bsp//newlib/nios2-elf/lib/libc.a(lib_a-fiprintf.o)
 .data          0x0000000004014744        0x0 ../MasterUpgraded_bsp//newlib/nios2-elf/lib/libc.a(lib_a-fputwc.o)
 .data          0x0000000004014744        0x0 ../MasterUpgraded_bsp//newlib/nios2-elf/lib/libc.a(lib_a-fstatr.o)
 .data          0x0000000004014744        0x0 ../MasterUpgraded_bsp//newlib/nios2-elf/lib/libc.a(lib_a-fvwrite.o)
 .data          0x0000000004014744        0x0 ../MasterUpgraded_bsp//newlib/nios2-elf/lib/libc.a(lib_a-int_errno.o)
 .data          0x0000000004014744        0x0 ../MasterUpgraded_bsp//newlib/nios2-elf/lib/libc.a(lib_a-isattyr.o)
 .data          0x0000000004014744        0x0 ../MasterUpgraded_bsp//newlib/nios2-elf/lib/libc.a(lib_a-lseekr.o)
 .data          0x0000000004014744        0x0 ../MasterUpgraded_bsp//newlib/nios2-elf/lib/libc.a(lib_a-memmove.o)
 .data          0x0000000004014744        0x0 ../MasterUpgraded_bsp//newlib/nios2-elf/lib/libc.a(lib_a-readr.o)
 .data          0x0000000004014744        0x0 ../MasterUpgraded_bsp//newlib/nios2-elf/lib/libc.a(lib_a-reallocr.o)
 .data          0x0000000004014744        0x0 ../MasterUpgraded_bsp//newlib/nios2-elf/lib/libc.a(lib_a-vfiprintfr_1.o)
 .data          0x0000000004014744        0x0 ../MasterUpgraded_bsp//newlib/nios2-elf/lib/libc.a(lib_a-wbuf.o)
 .data          0x0000000004014744        0x0 ../MasterUpgraded_bsp//newlib/nios2-elf/lib/libc.a(lib_a-wcrtomb.o)
 .data          0x0000000004014744        0x0 ../MasterUpgraded_bsp//newlib/nios2-elf/lib/libc.a(lib_a-abort.o)
 .data          0x0000000004014744        0x0 ../MasterUpgraded_bsp//newlib/nios2-elf/lib/libc.a(lib_a-signal.o)
 .data          0x0000000004014744        0x0 ../MasterUpgraded_bsp//newlib/nios2-elf/lib/libc.a(lib_a-signalr.o)
 .data          0x0000000004014744        0x0 /home/omaralkhatib/intelFPGA_lite/20.1/nios2eds/bin/gnu/H-x86_64-pc-linux-gnu/bin/../lib/gcc/nios2-elf/9.2.1/libgcc.a(_udivdi3.o)
 .data          0x0000000004014744        0x0 /home/omaralkhatib/intelFPGA_lite/20.1/nios2eds/bin/gnu/H-x86_64-pc-linux-gnu/bin/../lib/gcc/nios2-elf/9.2.1/libgcc.a(_umoddi3.o)
 .data          0x0000000004014744        0x0 /home/omaralkhatib/intelFPGA_lite/20.1/nios2eds/bin/gnu/H-x86_64-pc-linux-gnu/bin/../lib/gcc/nios2-elf/9.2.1/libgcc.a(lib2-divmod.o)
 .data          0x0000000004014744        0x0 /home/omaralkhatib/intelFPGA_lite/20.1/nios2eds/bin/gnu/H-x86_64-pc-linux-gnu/bin/../lib/gcc/nios2-elf/9.2.1/libgcc.a(adddf3.o)
 .data          0x0000000004014744        0x0 /home/omaralkhatib/intelFPGA_lite/20.1/nios2eds/bin/gnu/H-x86_64-pc-linux-gnu/bin/../lib/gcc/nios2-elf/9.2.1/libgcc.a(divdf3.o)
 .data          0x0000000004014744        0x0 /home/omaralkhatib/intelFPGA_lite/20.1/nios2eds/bin/gnu/H-x86_64-pc-linux-gnu/bin/../lib/gcc/nios2-elf/9.2.1/libgcc.a(eqdf2.o)
 .data          0x0000000004014744        0x0 /home/omaralkhatib/intelFPGA_lite/20.1/nios2eds/bin/gnu/H-x86_64-pc-linux-gnu/bin/../lib/gcc/nios2-elf/9.2.1/libgcc.a(gedf2.o)
 .data          0x0000000004014744        0x0 /home/omaralkhatib/intelFPGA_lite/20.1/nios2eds/bin/gnu/H-x86_64-pc-linux-gnu/bin/../lib/gcc/nios2-elf/9.2.1/libgcc.a(ledf2.o)
 .data          0x0000000004014744        0x0 /home/omaralkhatib/intelFPGA_lite/20.1/nios2eds/bin/gnu/H-x86_64-pc-linux-gnu/bin/../lib/gcc/nios2-elf/9.2.1/libgcc.a(muldf3.o)
 .data          0x0000000004014744        0x0 /home/omaralkhatib/intelFPGA_lite/20.1/nios2eds/bin/gnu/H-x86_64-pc-linux-gnu/bin/../lib/gcc/nios2-elf/9.2.1/libgcc.a(subdf3.o)
 .data          0x0000000004014744        0x0 /home/omaralkhatib/intelFPGA_lite/20.1/nios2eds/bin/gnu/H-x86_64-pc-linux-gnu/bin/../lib/gcc/nios2-elf/9.2.1/libgcc.a(unorddf2.o)
 .data          0x0000000004014744        0x0 /home/omaralkhatib/intelFPGA_lite/20.1/nios2eds/bin/gnu/H-x86_64-pc-linux-gnu/bin/../lib/gcc/nios2-elf/9.2.1/libgcc.a(fixdfsi.o)
 .data          0x0000000004014744        0x0 /home/omaralkhatib/intelFPGA_lite/20.1/nios2eds/bin/gnu/H-x86_64-pc-linux-gnu/bin/../lib/gcc/nios2-elf/9.2.1/libgcc.a(floatsidf.o)
 .data          0x0000000004014744        0x0 /home/omaralkhatib/intelFPGA_lite/20.1/nios2eds/bin/gnu/H-x86_64-pc-linux-gnu/bin/../lib/gcc/nios2-elf/9.2.1/libgcc.a(floatunsidf.o)
 .data          0x0000000004014744        0x0 /home/omaralkhatib/intelFPGA_lite/20.1/nios2eds/bin/gnu/H-x86_64-pc-linux-gnu/bin/../lib/gcc/nios2-elf/9.2.1/libgcc.a(_clz.o)
 .data          0x0000000004014744        0x0 /home/omaralkhatib/intelFPGA_lite/20.1/nios2eds/bin/gnu/H-x86_64-pc-linux-gnu/bin/../lib/gcc/nios2-elf/9.2.1/libgcc.a(_clzsi2.o)
 .data          0x0000000004014744        0x0 ../MasterUpgraded_bsp//libhal_bsp.a(alt_close.o)
 .data          0x0000000004014744      0x1a8 ../MasterUpgraded_bsp//libhal_bsp.a(alt_dev.o)
                0x0000000004014744                alt_dev_null
                0x000000000401476c                alt_fd_list
 .data          0x00000000040148ec        0x0 ../MasterUpgraded_bsp//libhal_bsp.a(alt_errno.o)
 .data          0x00000000040148ec        0x0 ../MasterUpgraded_bsp//libhal_bsp.a(alt_exit.o)
 .data          0x00000000040148ec        0x0 ../MasterUpgraded_bsp//libhal_bsp.a(alt_fstat.o)
 .data          0x00000000040148ec        0x0 ../MasterUpgraded_bsp//libhal_bsp.a(alt_getpid.o)
 .data          0x00000000040148ec        0x0 ../MasterUpgraded_bsp//libhal_bsp.a(alt_isatty.o)
 .data          0x00000000040148ec        0x0 ../MasterUpgraded_bsp//libhal_bsp.a(alt_kill.o)
 .data          0x00000000040148ec        0x0 ../MasterUpgraded_bsp//libhal_bsp.a(alt_load.o)
 .data          0x00000000040148ec        0x0 ../MasterUpgraded_bsp//libhal_bsp.a(alt_lseek.o)
 .data          0x00000000040148ec        0x0 ../MasterUpgraded_bsp//libhal_bsp.a(alt_main.o)
 .data          0x00000000040148ec        0x0 ../MasterUpgraded_bsp//libhal_bsp.a(alt_malloc_lock.o)
 .data          0x00000000040148ec        0x0 ../MasterUpgraded_bsp//libhal_bsp.a(alt_read.o)
 .data          0x00000000040148ec        0x0 ../MasterUpgraded_bsp//libhal_bsp.a(alt_release_fd.o)
 .data          0x00000000040148ec        0x0 ../MasterUpgraded_bsp//libhal_bsp.a(alt_sbrk.o)
 .data          0x00000000040148ec        0x0 ../MasterUpgraded_bsp//libhal_bsp.a(alt_usleep.o)
 .data          0x00000000040148ec        0x0 ../MasterUpgraded_bsp//libhal_bsp.a(alt_write.o)
 .data          0x00000000040148ec     0x108c ../MasterUpgraded_bsp//libhal_bsp.a(alt_sys_init.o)
 .data          0x0000000004015978        0x0 ../MasterUpgraded_bsp//libhal_bsp.a(altera_avalon_jtag_uart_fd.o)
 .data          0x0000000004015978        0x0 ../MasterUpgraded_bsp//libhal_bsp.a(altera_avalon_jtag_uart_init.o)
 .data          0x0000000004015978        0x0 ../MasterUpgraded_bsp//libhal_bsp.a(altera_avalon_jtag_uart_ioctl.o)
 .data          0x0000000004015978        0x0 ../MasterUpgraded_bsp//libhal_bsp.a(altera_avalon_jtag_uart_read.o)
 .data          0x0000000004015978        0x0 ../MasterUpgraded_bsp//libhal_bsp.a(altera_avalon_jtag_uart_write.o)
 .data          0x0000000004015978        0x0 ../MasterUpgraded_bsp//libhal_bsp.a(altera_avalon_timer_sc.o)
 .data          0x0000000004015978        0x0 ../MasterUpgraded_bsp//libhal_bsp.a(altera_up_avalon_accelerometer_spi.o)
 .data          0x0000000004015978        0x0 ../MasterUpgraded_bsp//libhal_bsp.a(alt_alarm_start.o)
 .data          0x0000000004015978        0x0 ../MasterUpgraded_bsp//libhal_bsp.a(alt_busy_sleep.o)
 .data          0x0000000004015978        0x0 ../MasterUpgraded_bsp//libhal_bsp.a(alt_dcache_flush_all.o)
 .data          0x0000000004015978        0x0 ../MasterUpgraded_bsp//libhal_bsp.a(alt_dev_llist_insert.o)
 .data          0x0000000004015978        0x0 ../MasterUpgraded_bsp//libhal_bsp.a(alt_do_ctors.o)
 .data          0x0000000004015978        0x0 ../MasterUpgraded_bsp//libhal_bsp.a(alt_do_dtors.o)
 .data          0x0000000004015978        0x0 ../MasterUpgraded_bsp//libhal_bsp.a(alt_find_dev.o)
 .data          0x0000000004015978        0x0 ../MasterUpgraded_bsp//libhal_bsp.a(alt_icache_flush_all.o)
 .data          0x0000000004015978        0x0 ../MasterUpgraded_bsp//libhal_bsp.a(alt_io_redirect.o)
 .data          0x0000000004015978        0x0 ../MasterUpgraded_bsp//libhal_bsp.a(alt_irq_register.o)
 .data          0x0000000004015978        0x0 ../MasterUpgraded_bsp//libhal_bsp.a(alt_irq_vars.o)
 .data          0x0000000004015978        0x0 ../MasterUpgraded_bsp//libhal_bsp.a(alt_open.o)
 .data          0x0000000004015978        0x0 ../MasterUpgraded_bsp//libhal_bsp.a(alt_tick.o)
 .data          0x0000000004015978        0x0 ../MasterUpgraded_bsp//libhal_bsp.a(altera_nios2_gen2_irq.o)
 .data          0x0000000004015978        0x0 ../MasterUpgraded_bsp//libhal_bsp.a(alt_find_file.o)
 .data          0x0000000004015978        0x0 ../MasterUpgraded_bsp//libhal_bsp.a(alt_get_fd.o)
 .data          0x0000000004015978        0x0 ../MasterUpgraded_bsp//libhal_bsp.a(alt_icache_flush.o)
 .data          0x0000000004015978        0x0 ../MasterUpgraded_bsp//libhal_bsp.a(alt_irq_entry.o)
 .data          0x0000000004015978        0x0 ../MasterUpgraded_bsp//libhal_bsp.a(alt_irq_handler.o)
 .data          0x0000000004015978        0x0 ../MasterUpgraded_bsp//libhal_bsp.a(alt_exception_entry.o)
 .data          0x0000000004015978        0x0 ../MasterUpgraded_bsp//libhal_bsp.a(alt_instruction_exception_entry.o)
 .data          0x0000000004015978        0x0 ../MasterUpgraded_bsp//newlib/nios2-elf/lib/libc.a(lib_a-atexit.o)
 .data          0x0000000004015978        0x0 ../MasterUpgraded_bsp//newlib/nios2-elf/lib/libc.a(lib_a-exit.o)
 .data          0x0000000004015978        0x0 ../MasterUpgraded_bsp//newlib/nios2-elf/lib/libc.a(lib_a-memcmp.o)
 .data          0x0000000004015978        0x0 ../MasterUpgraded_bsp//newlib/nios2-elf/lib/libc.a(lib_a-__atexit.o)
 .data          0x0000000004015978        0x0 ../MasterUpgraded_bsp//newlib/nios2-elf/lib/libc.a(lib_a-__call_atexit.o)
                0x000000000401d978                _gp = ABSOLUTE ((. + 0x8000))
                [!provide]                        PROVIDE (gp = _gp)
 *(.rwdata .rwdata.*)
 *(.sdata .sdata.* .gnu.linkonce.s.*)
 .sdata._impure_ptr
                0x0000000004015978        0x4 ../MasterUpgraded_bsp//newlib/nios2-elf/lib/libc.a(lib_a-impure.o)
                0x0000000004015978                _impure_ptr
 .sdata._global_impure_ptr
                0x000000000401597c        0x4 ../MasterUpgraded_bsp//newlib/nios2-elf/lib/libc.a(lib_a-impure.o)
                0x000000000401597c                _global_impure_ptr
 .sdata.__malloc_trim_threshold
                0x0000000004015980        0x4 ../MasterUpgraded_bsp//newlib/nios2-elf/lib/libc.a(lib_a-mallocr.o)
                0x0000000004015980                __malloc_trim_threshold
 .sdata.__malloc_sbrk_base
                0x0000000004015984        0x4 ../MasterUpgraded_bsp//newlib/nios2-elf/lib/libc.a(lib_a-mallocr.o)
                0x0000000004015984                __malloc_sbrk_base
 .sdata         0x0000000004015988       0x14 ../MasterUpgraded_bsp//libhal_bsp.a(alt_dev.o)
                0x0000000004015988                alt_fs_list
                0x0000000004015990                alt_dev_list
                0x0000000004015998                alt_max_fd
 .sdata         0x000000000401599c        0x4 ../MasterUpgraded_bsp//libhal_bsp.a(alt_errno.o)
                0x000000000401599c                alt_errno
 .sdata         0x00000000040159a0        0x4 ../MasterUpgraded_bsp//libhal_bsp.a(alt_sbrk.o)
 .sdata         0x00000000040159a4        0x4 ../MasterUpgraded_bsp//libhal_bsp.a(alt_irq_vars.o)
                0x00000000040159a4                alt_priority_mask
 .sdata         0x00000000040159a8        0x8 ../MasterUpgraded_bsp//libhal_bsp.a(alt_tick.o)
                0x00000000040159a8                alt_alarm_list
 *(.sdata2 .sdata2.* .gnu.linkonce.s2.*)
                0x00000000040159b0                . = ALIGN (0x4)
                0x00000000040159b0                _edata = ABSOLUTE (.)
                [!provide]                        PROVIDE (edata = ABSOLUTE (.))
                0x00000000040159b0                PROVIDE (__ram_rwdata_end = ABSOLUTE (.))
                0x00000000040159b0                PROVIDE (__flash_rwdata_start = LOADADDR (.rwdata))

.bss            0x00000000040175b4      0x164
                0x00000000040175b4                __bss_start = ABSOLUTE (.)
                [!provide]                        PROVIDE (__sbss_start = ABSOLUTE (.))
                [!provide]                        PROVIDE (___sbss_start = ABSOLUTE (.))
 *(.dynsbss)
 *(.sbss .sbss.* .gnu.linkonce.sb.*)
 .sbss.__sfp_recursive_mutex
                0x00000000040175b4        0x4 ../MasterUpgraded_bsp//newlib/nios2-elf/lib/libc.a(lib_a-findfp.o)
 .sbss.__sinit_recursive_mutex
                0x00000000040175b8        0x4 ../MasterUpgraded_bsp//newlib/nios2-elf/lib/libc.a(lib_a-findfp.o)
 .sbss._PathLocale
                0x00000000040175bc        0x4 ../MasterUpgraded_bsp//newlib/nios2-elf/lib/libc.a(lib_a-locale.o)
                0x00000000040175bc                _PathLocale
 .sbss.__malloc_top_pad
                0x00000000040175c0        0x4 ../MasterUpgraded_bsp//newlib/nios2-elf/lib/libc.a(lib_a-mallocr.o)
                0x00000000040175c0                __malloc_top_pad
 .sbss.__malloc_max_sbrked_mem
                0x00000000040175c4        0x4 ../MasterUpgraded_bsp//newlib/nios2-elf/lib/libc.a(lib_a-mallocr.o)
                0x00000000040175c4                __malloc_max_sbrked_mem
 .sbss.__malloc_max_total_mem
                0x00000000040175c8        0x4 ../MasterUpgraded_bsp//newlib/nios2-elf/lib/libc.a(lib_a-mallocr.o)
                0x00000000040175c8                __malloc_max_total_mem
 .sbss          0x00000000040175cc        0x4 ../MasterUpgraded_bsp//newlib/nios2-elf/lib/libc.a(lib_a-int_errno.o)
                0x00000000040175cc                errno
 .sbss          0x00000000040175d0        0xc ../MasterUpgraded_bsp//libhal_bsp.a(alt_main.o)
                0x00000000040175d0                alt_argc
                0x00000000040175d4                alt_argv
                0x00000000040175d8                alt_envp
 .sbss          0x00000000040175dc        0x4 ../MasterUpgraded_bsp//libhal_bsp.a(alt_irq_vars.o)
                0x00000000040175dc                alt_irq_active
 .sbss          0x00000000040175e0        0x8 ../MasterUpgraded_bsp//libhal_bsp.a(alt_tick.o)
                0x00000000040175e0                _alt_tick_rate
                0x00000000040175e4                _alt_nticks
 .sbss          0x00000000040175e8        0x4 ../MasterUpgraded_bsp//libhal_bsp.a(alt_instruction_exception_entry.o)
                0x00000000040175e8                alt_instruction_exception_handler
 .sbss.__atexit_recursive_mutex
                0x00000000040175ec        0x4 ../MasterUpgraded_bsp//newlib/nios2-elf/lib/libc.a(lib_a-__call_atexit.o)
 *(.sbss2 .sbss2.* .gnu.linkonce.sb2.*)
 *(.scommon)
                [!provide]                        PROVIDE (__sbss_end = ABSOLUTE (.))
                [!provide]                        PROVIDE (___sbss_end = ABSOLUTE (.))
 *(.dynbss)
 *(.bss .bss.* .gnu.linkonce.b.*)
 .bss           0x00000000040175f0        0x0 ../MasterUpgraded_bsp//obj/HAL/src/crt0.o
 .bss           0x00000000040175f0        0x0 obj/default/float2_functionality.o
 .bss           0x00000000040175f0        0x0 ../MasterUpgraded_bsp//newlib/nios2-elf/lib/libc.a(lib_a-printf.o)
 .bss           0x00000000040175f0        0x0 ../MasterUpgraded_bsp//newlib/nios2-elf/lib/libc.a(lib_a-vfprintf.o)
 .bss           0x00000000040175f0        0x0 ../MasterUpgraded_bsp//newlib/nios2-elf/lib/libc.a(lib_a-wsetup.o)
 .bss           0x00000000040175f0        0x0 ../MasterUpgraded_bsp//newlib/nios2-elf/lib/libc.a(lib_a-dtoa.o)
 .bss           0x00000000040175f0        0x0 ../MasterUpgraded_bsp//newlib/nios2-elf/lib/libc.a(lib_a-fflush.o)
 .bss           0x00000000040175f0        0x0 ../MasterUpgraded_bsp//newlib/nios2-elf/lib/libc.a(lib_a-findfp.o)
 .bss           0x00000000040175f0        0x0 ../MasterUpgraded_bsp//newlib/nios2-elf/lib/libc.a(lib_a-freer.o)
 .bss           0x00000000040175f0        0x0 ../MasterUpgraded_bsp//newlib/nios2-elf/lib/libc.a(lib_a-fwalk.o)
 .bss           0x00000000040175f0        0x0 ../MasterUpgraded_bsp//newlib/nios2-elf/lib/libc.a(lib_a-impure.o)
 .bss           0x00000000040175f0        0x0 ../MasterUpgraded_bsp//newlib/nios2-elf/lib/libc.a(lib_a-localeconv.o)
 .bss           0x00000000040175f0        0x0 ../MasterUpgraded_bsp//newlib/nios2-elf/lib/libc.a(lib_a-locale.o)
 .bss           0x00000000040175f0        0x0 ../MasterUpgraded_bsp//newlib/nios2-elf/lib/libc.a(lib_a-makebuf.o)
 .bss           0x00000000040175f0        0x0 ../MasterUpgraded_bsp//newlib/nios2-elf/lib/libc.a(lib_a-mallocr.o)
 .bss.__malloc_current_mallinfo
                0x00000000040175f0       0x28 ../MasterUpgraded_bsp//newlib/nios2-elf/lib/libc.a(lib_a-mallocr.o)
                0x00000000040175f0                __malloc_current_mallinfo
 .bss           0x0000000004017618        0x0 ../MasterUpgraded_bsp//newlib/nios2-elf/lib/libc.a(lib_a-mbtowc_r.o)
 .bss           0x0000000004017618        0x0 ../MasterUpgraded_bsp//newlib/nios2-elf/lib/libc.a(lib_a-memchr.o)
 .bss           0x0000000004017618        0x0 ../MasterUpgraded_bsp//newlib/nios2-elf/lib/libc.a(lib_a-memcpy.o)
 .bss           0x0000000004017618        0x0 ../MasterUpgraded_bsp//newlib/nios2-elf/lib/libc.a(lib_a-memset.o)
 .bss           0x0000000004017618        0x0 ../MasterUpgraded_bsp//newlib/nios2-elf/lib/libc.a(lib_a-mprec.o)
 .bss           0x0000000004017618        0x0 ../MasterUpgraded_bsp//newlib/nios2-elf/lib/libc.a(lib_a-sbrkr.o)
 .bss           0x0000000004017618        0x0 ../MasterUpgraded_bsp//newlib/nios2-elf/lib/libc.a(lib_a-stdio.o)
 .bss           0x0000000004017618        0x0 ../MasterUpgraded_bsp//newlib/nios2-elf/lib/libc.a(lib_a-strcmp.o)
 .bss           0x0000000004017618        0x0 ../MasterUpgraded_bsp//newlib/nios2-elf/lib/libc.a(lib_a-strlen.o)
 .bss           0x0000000004017618        0x0 ../MasterUpgraded_bsp//newlib/nios2-elf/lib/libc.a(lib_a-vfiprintf.o)
 .bss           0x0000000004017618        0x0 ../MasterUpgraded_bsp//newlib/nios2-elf/lib/libc.a(lib_a-wctomb_r.o)
 .bss           0x0000000004017618        0x0 ../MasterUpgraded_bsp//newlib/nios2-elf/lib/libc.a(lib_a-writer.o)
 .bss           0x0000000004017618        0x0 ../MasterUpgraded_bsp//newlib/nios2-elf/lib/libc.a(closer.o)
 .bss           0x0000000004017618        0x0 ../MasterUpgraded_bsp//newlib/nios2-elf/lib/libc.a(lib_a-assert.o)
 .bss           0x0000000004017618        0x0 ../MasterUpgraded_bsp//newlib/nios2-elf/lib/libc.a(lib_a-callocr.o)
 .bss           0x0000000004017618        0x0 ../MasterUpgraded_bsp//newlib/nios2-elf/lib/libc.a(lib_a-ctype_.o)
 .bss           0x0000000004017618        0x0 ../MasterUpgraded_bsp//newlib/nios2-elf/lib/libc.a(lib_a-fclose.o)
 .bss           0x0000000004017618        0x0 ../MasterUpgraded_bsp//newlib/nios2-elf/lib/libc.a(lib_a-fiprintf.o)
 .bss           0x0000000004017618        0x0 ../MasterUpgraded_bsp//newlib/nios2-elf/lib/libc.a(lib_a-fputwc.o)
 .bss           0x0000000004017618        0x0 ../MasterUpgraded_bsp//newlib/nios2-elf/lib/libc.a(lib_a-fstatr.o)
 .bss           0x0000000004017618        0x0 ../MasterUpgraded_bsp//newlib/nios2-elf/lib/libc.a(lib_a-fvwrite.o)
 .bss           0x0000000004017618        0x0 ../MasterUpgraded_bsp//newlib/nios2-elf/lib/libc.a(lib_a-int_errno.o)
 .bss           0x0000000004017618        0x0 ../MasterUpgraded_bsp//newlib/nios2-elf/lib/libc.a(lib_a-isattyr.o)
 .bss           0x0000000004017618        0x0 ../MasterUpgraded_bsp//newlib/nios2-elf/lib/libc.a(lib_a-lseekr.o)
 .bss           0x0000000004017618        0x0 ../MasterUpgraded_bsp//newlib/nios2-elf/lib/libc.a(lib_a-memmove.o)
 .bss           0x0000000004017618        0x0 ../MasterUpgraded_bsp//newlib/nios2-elf/lib/libc.a(lib_a-readr.o)
 .bss           0x0000000004017618        0x0 ../MasterUpgraded_bsp//newlib/nios2-elf/lib/libc.a(lib_a-reallocr.o)
 .bss           0x0000000004017618        0x0 ../MasterUpgraded_bsp//newlib/nios2-elf/lib/libc.a(lib_a-vfiprintfr_1.o)
 .bss           0x0000000004017618        0x0 ../MasterUpgraded_bsp//newlib/nios2-elf/lib/libc.a(lib_a-wbuf.o)
 .bss           0x0000000004017618        0x0 ../MasterUpgraded_bsp//newlib/nios2-elf/lib/libc.a(lib_a-wcrtomb.o)
 .bss           0x0000000004017618        0x0 ../MasterUpgraded_bsp//newlib/nios2-elf/lib/libc.a(lib_a-abort.o)
 .bss           0x0000000004017618        0x0 ../MasterUpgraded_bsp//newlib/nios2-elf/lib/libc.a(lib_a-signal.o)
 .bss           0x0000000004017618        0x0 ../MasterUpgraded_bsp//newlib/nios2-elf/lib/libc.a(lib_a-signalr.o)
 .bss           0x0000000004017618        0x0 /home/omaralkhatib/intelFPGA_lite/20.1/nios2eds/bin/gnu/H-x86_64-pc-linux-gnu/bin/../lib/gcc/nios2-elf/9.2.1/libgcc.a(_udivdi3.o)
 .bss           0x0000000004017618        0x0 /home/omaralkhatib/intelFPGA_lite/20.1/nios2eds/bin/gnu/H-x86_64-pc-linux-gnu/bin/../lib/gcc/nios2-elf/9.2.1/libgcc.a(_umoddi3.o)
 .bss           0x0000000004017618        0x0 /home/omaralkhatib/intelFPGA_lite/20.1/nios2eds/bin/gnu/H-x86_64-pc-linux-gnu/bin/../lib/gcc/nios2-elf/9.2.1/libgcc.a(lib2-divmod.o)
 .bss           0x0000000004017618        0x0 /home/omaralkhatib/intelFPGA_lite/20.1/nios2eds/bin/gnu/H-x86_64-pc-linux-gnu/bin/../lib/gcc/nios2-elf/9.2.1/libgcc.a(adddf3.o)
 .bss           0x0000000004017618        0x0 /home/omaralkhatib/intelFPGA_lite/20.1/nios2eds/bin/gnu/H-x86_64-pc-linux-gnu/bin/../lib/gcc/nios2-elf/9.2.1/libgcc.a(divdf3.o)
 .bss           0x0000000004017618        0x0 /home/omaralkhatib/intelFPGA_lite/20.1/nios2eds/bin/gnu/H-x86_64-pc-linux-gnu/bin/../lib/gcc/nios2-elf/9.2.1/libgcc.a(eqdf2.o)
 .bss           0x0000000004017618        0x0 /home/omaralkhatib/intelFPGA_lite/20.1/nios2eds/bin/gnu/H-x86_64-pc-linux-gnu/bin/../lib/gcc/nios2-elf/9.2.1/libgcc.a(gedf2.o)
 .bss           0x0000000004017618        0x0 /home/omaralkhatib/intelFPGA_lite/20.1/nios2eds/bin/gnu/H-x86_64-pc-linux-gnu/bin/../lib/gcc/nios2-elf/9.2.1/libgcc.a(ledf2.o)
 .bss           0x0000000004017618        0x0 /home/omaralkhatib/intelFPGA_lite/20.1/nios2eds/bin/gnu/H-x86_64-pc-linux-gnu/bin/../lib/gcc/nios2-elf/9.2.1/libgcc.a(muldf3.o)
 .bss           0x0000000004017618        0x0 /home/omaralkhatib/intelFPGA_lite/20.1/nios2eds/bin/gnu/H-x86_64-pc-linux-gnu/bin/../lib/gcc/nios2-elf/9.2.1/libgcc.a(subdf3.o)
 .bss           0x0000000004017618        0x0 /home/omaralkhatib/intelFPGA_lite/20.1/nios2eds/bin/gnu/H-x86_64-pc-linux-gnu/bin/../lib/gcc/nios2-elf/9.2.1/libgcc.a(unorddf2.o)
 .bss           0x0000000004017618        0x0 /home/omaralkhatib/intelFPGA_lite/20.1/nios2eds/bin/gnu/H-x86_64-pc-linux-gnu/bin/../lib/gcc/nios2-elf/9.2.1/libgcc.a(fixdfsi.o)
 .bss           0x0000000004017618        0x0 /home/omaralkhatib/intelFPGA_lite/20.1/nios2eds/bin/gnu/H-x86_64-pc-linux-gnu/bin/../lib/gcc/nios2-elf/9.2.1/libgcc.a(floatsidf.o)
 .bss           0x0000000004017618        0x0 /home/omaralkhatib/intelFPGA_lite/20.1/nios2eds/bin/gnu/H-x86_64-pc-linux-gnu/bin/../lib/gcc/nios2-elf/9.2.1/libgcc.a(floatunsidf.o)
 .bss           0x0000000004017618        0x0 /home/omaralkhatib/intelFPGA_lite/20.1/nios2eds/bin/gnu/H-x86_64-pc-linux-gnu/bin/../lib/gcc/nios2-elf/9.2.1/libgcc.a(_clz.o)
 .bss           0x0000000004017618        0x0 /home/omaralkhatib/intelFPGA_lite/20.1/nios2eds/bin/gnu/H-x86_64-pc-linux-gnu/bin/../lib/gcc/nios2-elf/9.2.1/libgcc.a(_clzsi2.o)
 .bss           0x0000000004017618        0x0 ../MasterUpgraded_bsp//libhal_bsp.a(alt_close.o)
 .bss           0x0000000004017618        0x0 ../MasterUpgraded_bsp//libhal_bsp.a(alt_dev.o)
 .bss           0x0000000004017618        0x0 ../MasterUpgraded_bsp//libhal_bsp.a(alt_errno.o)
 .bss           0x0000000004017618        0x0 ../MasterUpgraded_bsp//libhal_bsp.a(alt_exit.o)
 .bss           0x0000000004017618        0x0 ../MasterUpgraded_bsp//libhal_bsp.a(alt_fstat.o)
 .bss           0x0000000004017618        0x0 ../MasterUpgraded_bsp//libhal_bsp.a(alt_getpid.o)
 .bss           0x0000000004017618        0x0 ../MasterUpgraded_bsp//libhal_bsp.a(alt_isatty.o)
 .bss           0x0000000004017618        0x0 ../MasterUpgraded_bsp//libhal_bsp.a(alt_kill.o)
 .bss           0x0000000004017618        0x0 ../MasterUpgraded_bsp//libhal_bsp.a(alt_load.o)
 .bss           0x0000000004017618        0x0 ../MasterUpgraded_bsp//libhal_bsp.a(alt_lseek.o)
 .bss           0x0000000004017618        0x0 ../MasterUpgraded_bsp//libhal_bsp.a(alt_main.o)
 .bss           0x0000000004017618        0x0 ../MasterUpgraded_bsp//libhal_bsp.a(alt_malloc_lock.o)
 .bss           0x0000000004017618        0x0 ../MasterUpgraded_bsp//libhal_bsp.a(alt_read.o)
 .bss           0x0000000004017618        0x0 ../MasterUpgraded_bsp//libhal_bsp.a(alt_release_fd.o)
 .bss           0x0000000004017618        0x0 ../MasterUpgraded_bsp//libhal_bsp.a(alt_sbrk.o)
 .bss           0x0000000004017618        0x0 ../MasterUpgraded_bsp//libhal_bsp.a(alt_usleep.o)
 .bss           0x0000000004017618        0x0 ../MasterUpgraded_bsp//libhal_bsp.a(alt_write.o)
 .bss           0x0000000004017618        0x0 ../MasterUpgraded_bsp//libhal_bsp.a(alt_sys_init.o)
 .bss           0x0000000004017618        0x0 ../MasterUpgraded_bsp//libhal_bsp.a(altera_avalon_jtag_uart_fd.o)
 .bss           0x0000000004017618        0x0 ../MasterUpgraded_bsp//libhal_bsp.a(altera_avalon_jtag_uart_init.o)
 .bss           0x0000000004017618        0x0 ../MasterUpgraded_bsp//libhal_bsp.a(altera_avalon_jtag_uart_ioctl.o)
 .bss           0x0000000004017618        0x0 ../MasterUpgraded_bsp//libhal_bsp.a(altera_avalon_jtag_uart_read.o)
 .bss           0x0000000004017618        0x0 ../MasterUpgraded_bsp//libhal_bsp.a(altera_avalon_jtag_uart_write.o)
 .bss           0x0000000004017618        0x0 ../MasterUpgraded_bsp//libhal_bsp.a(altera_avalon_timer_sc.o)
 .bss           0x0000000004017618        0x0 ../MasterUpgraded_bsp//libhal_bsp.a(altera_up_avalon_accelerometer_spi.o)
 .bss           0x0000000004017618        0x0 ../MasterUpgraded_bsp//libhal_bsp.a(alt_alarm_start.o)
 .bss           0x0000000004017618        0x0 ../MasterUpgraded_bsp//libhal_bsp.a(alt_busy_sleep.o)
 .bss           0x0000000004017618        0x0 ../MasterUpgraded_bsp//libhal_bsp.a(alt_dcache_flush_all.o)
 .bss           0x0000000004017618        0x0 ../MasterUpgraded_bsp//libhal_bsp.a(alt_dev_llist_insert.o)
 .bss           0x0000000004017618        0x0 ../MasterUpgraded_bsp//libhal_bsp.a(alt_do_ctors.o)
 .bss           0x0000000004017618        0x0 ../MasterUpgraded_bsp//libhal_bsp.a(alt_do_dtors.o)
 .bss           0x0000000004017618        0x0 ../MasterUpgraded_bsp//libhal_bsp.a(alt_find_dev.o)
 .bss           0x0000000004017618        0x0 ../MasterUpgraded_bsp//libhal_bsp.a(alt_icache_flush_all.o)
 .bss           0x0000000004017618        0x0 ../MasterUpgraded_bsp//libhal_bsp.a(alt_io_redirect.o)
 .bss           0x0000000004017618        0x0 ../MasterUpgraded_bsp//libhal_bsp.a(alt_irq_register.o)
 .bss           0x0000000004017618        0x0 ../MasterUpgraded_bsp//libhal_bsp.a(alt_irq_vars.o)
 .bss           0x0000000004017618        0x0 ../MasterUpgraded_bsp//libhal_bsp.a(alt_open.o)
 .bss           0x0000000004017618        0x0 ../MasterUpgraded_bsp//libhal_bsp.a(alt_tick.o)
 .bss           0x0000000004017618        0x0 ../MasterUpgraded_bsp//libhal_bsp.a(altera_nios2_gen2_irq.o)
 .bss           0x0000000004017618        0x0 ../MasterUpgraded_bsp//libhal_bsp.a(alt_find_file.o)
 .bss           0x0000000004017618        0x0 ../MasterUpgraded_bsp//libhal_bsp.a(alt_get_fd.o)
 .bss           0x0000000004017618        0x0 ../MasterUpgraded_bsp//libhal_bsp.a(alt_icache_flush.o)
 .bss           0x0000000004017618        0x0 ../MasterUpgraded_bsp//libhal_bsp.a(alt_irq_entry.o)
 .bss           0x0000000004017618        0x0 ../MasterUpgraded_bsp//libhal_bsp.a(alt_irq_handler.o)
 .bss           0x0000000004017618        0x0 ../MasterUpgraded_bsp//libhal_bsp.a(alt_exception_entry.o)
 .bss           0x0000000004017618        0x0 ../MasterUpgraded_bsp//libhal_bsp.a(alt_instruction_exception_entry.o)
 .bss           0x0000000004017618        0x0 ../MasterUpgraded_bsp//newlib/nios2-elf/lib/libc.a(lib_a-atexit.o)
 .bss           0x0000000004017618        0x0 ../MasterUpgraded_bsp//newlib/nios2-elf/lib/libc.a(lib_a-exit.o)
 .bss           0x0000000004017618        0x0 ../MasterUpgraded_bsp//newlib/nios2-elf/lib/libc.a(lib_a-memcmp.o)
 .bss           0x0000000004017618        0x0 ../MasterUpgraded_bsp//newlib/nios2-elf/lib/libc.a(lib_a-__atexit.o)
 .bss           0x0000000004017618        0x0 ../MasterUpgraded_bsp//newlib/nios2-elf/lib/libc.a(lib_a-__call_atexit.o)
 *(COMMON)
 COMMON         0x0000000004017618      0x100 ../MasterUpgraded_bsp//libhal_bsp.a(alt_irq_handler.o)
                0x0000000004017618                alt_irq
                0x0000000004017718                . = ALIGN (0x4)
                0x0000000004017718                __bss_end = ABSOLUTE (.)

.dram_controller
                0x0000000004017718        0x0
                [!provide]                        PROVIDE (_alt_partition_dram_controller_start = ABSOLUTE (.))
 *(.dram_controller .dram_controller. dram_controller.*)
                0x0000000004017718                . = ALIGN (0x4)
                [!provide]                        PROVIDE (_alt_partition_dram_controller_end = ABSOLUTE (.))
                0x0000000004017718                _end = ABSOLUTE (.)
                0x0000000004017718                end = ABSOLUTE (.)
                0x0000000004017718                __alt_stack_base = ABSOLUTE (.)
                [!provide]                        PROVIDE (_alt_partition_dram_controller_load_addr = LOADADDR (.dram_controller))

.stab
 *(.stab)

.stabstr
 *(.stabstr)

.stab.excl
 *(.stab.excl)

.stab.exclstr
 *(.stab.exclstr)

.stab.index
 *(.stab.index)

.stab.indexstr
 *(.stab.indexstr)

.comment        0x0000000000000000       0x2c
 *(.comment)
 .comment       0x0000000000000000       0x2c obj/default/float2_functionality.o
                                         0x2d (size before relaxing)
 .comment       0x000000000000002c       0x2d ../MasterUpgraded_bsp//newlib/nios2-elf/lib/libc.a(lib_a-printf.o)
 .comment       0x000000000000002c       0x2d ../MasterUpgraded_bsp//newlib/nios2-elf/lib/libc.a(lib_a-vfprintf.o)
 .comment       0x000000000000002c       0x2d ../MasterUpgraded_bsp//newlib/nios2-elf/lib/libc.a(lib_a-wsetup.o)
 .comment       0x000000000000002c       0x2d ../MasterUpgraded_bsp//newlib/nios2-elf/lib/libc.a(lib_a-dtoa.o)
 .comment       0x000000000000002c       0x2d ../MasterUpgraded_bsp//newlib/nios2-elf/lib/libc.a(lib_a-fflush.o)
 .comment       0x000000000000002c       0x2d ../MasterUpgraded_bsp//newlib/nios2-elf/lib/libc.a(lib_a-findfp.o)
 .comment       0x000000000000002c       0x2d ../MasterUpgraded_bsp//newlib/nios2-elf/lib/libc.a(lib_a-freer.o)
 .comment       0x000000000000002c       0x2d ../MasterUpgraded_bsp//newlib/nios2-elf/lib/libc.a(lib_a-fwalk.o)
 .comment       0x000000000000002c       0x2d ../MasterUpgraded_bsp//newlib/nios2-elf/lib/libc.a(lib_a-impure.o)
 .comment       0x000000000000002c       0x2d ../MasterUpgraded_bsp//newlib/nios2-elf/lib/libc.a(lib_a-localeconv.o)
 .comment       0x000000000000002c       0x2d ../MasterUpgraded_bsp//newlib/nios2-elf/lib/libc.a(lib_a-locale.o)
 .comment       0x000000000000002c       0x2d ../MasterUpgraded_bsp//newlib/nios2-elf/lib/libc.a(lib_a-makebuf.o)
 .comment       0x000000000000002c       0x2d ../MasterUpgraded_bsp//newlib/nios2-elf/lib/libc.a(lib_a-mallocr.o)
 .comment       0x000000000000002c       0x2d ../MasterUpgraded_bsp//newlib/nios2-elf/lib/libc.a(lib_a-mbtowc_r.o)
 .comment       0x000000000000002c       0x2d ../MasterUpgraded_bsp//newlib/nios2-elf/lib/libc.a(lib_a-memchr.o)
 .comment       0x000000000000002c       0x2d ../MasterUpgraded_bsp//newlib/nios2-elf/lib/libc.a(lib_a-memcpy.o)
 .comment       0x000000000000002c       0x2d ../MasterUpgraded_bsp//newlib/nios2-elf/lib/libc.a(lib_a-memset.o)
 .comment       0x000000000000002c       0x2d ../MasterUpgraded_bsp//newlib/nios2-elf/lib/libc.a(lib_a-mprec.o)
 .comment       0x000000000000002c       0x2d ../MasterUpgraded_bsp//newlib/nios2-elf/lib/libc.a(lib_a-sbrkr.o)
 .comment       0x000000000000002c       0x2d ../MasterUpgraded_bsp//newlib/nios2-elf/lib/libc.a(lib_a-stdio.o)
 .comment       0x000000000000002c       0x2d ../MasterUpgraded_bsp//newlib/nios2-elf/lib/libc.a(lib_a-strcmp.o)
 .comment       0x000000000000002c       0x2d ../MasterUpgraded_bsp//newlib/nios2-elf/lib/libc.a(lib_a-strlen.o)
 .comment       0x000000000000002c       0x2d ../MasterUpgraded_bsp//newlib/nios2-elf/lib/libc.a(lib_a-vfiprintf.o)
 .comment       0x000000000000002c       0x2d ../MasterUpgraded_bsp//newlib/nios2-elf/lib/libc.a(lib_a-wctomb_r.o)
 .comment       0x000000000000002c       0x2d ../MasterUpgraded_bsp//newlib/nios2-elf/lib/libc.a(lib_a-writer.o)
 .comment       0x000000000000002c       0x2d ../MasterUpgraded_bsp//newlib/nios2-elf/lib/libc.a(closer.o)
 .comment       0x000000000000002c       0x2d ../MasterUpgraded_bsp//newlib/nios2-elf/lib/libc.a(lib_a-assert.o)
 .comment       0x000000000000002c       0x2d ../MasterUpgraded_bsp//newlib/nios2-elf/lib/libc.a(lib_a-callocr.o)
 .comment       0x000000000000002c       0x2d ../MasterUpgraded_bsp//newlib/nios2-elf/lib/libc.a(lib_a-ctype_.o)
 .comment       0x000000000000002c       0x2d ../MasterUpgraded_bsp//newlib/nios2-elf/lib/libc.a(lib_a-fclose.o)
 .comment       0x000000000000002c       0x2d ../MasterUpgraded_bsp//newlib/nios2-elf/lib/libc.a(lib_a-fiprintf.o)
 .comment       0x000000000000002c       0x2d ../MasterUpgraded_bsp//newlib/nios2-elf/lib/libc.a(lib_a-fputwc.o)
 .comment       0x000000000000002c       0x2d ../MasterUpgraded_bsp//newlib/nios2-elf/lib/libc.a(lib_a-fstatr.o)
 .comment       0x000000000000002c       0x2d ../MasterUpgraded_bsp//newlib/nios2-elf/lib/libc.a(lib_a-fvwrite.o)
 .comment       0x000000000000002c       0x2d ../MasterUpgraded_bsp//newlib/nios2-elf/lib/libc.a(lib_a-int_errno.o)
 .comment       0x000000000000002c       0x2d ../MasterUpgraded_bsp//newlib/nios2-elf/lib/libc.a(lib_a-isattyr.o)
 .comment       0x000000000000002c       0x2d ../MasterUpgraded_bsp//newlib/nios2-elf/lib/libc.a(lib_a-lseekr.o)
 .comment       0x000000000000002c       0x2d ../MasterUpgraded_bsp//newlib/nios2-elf/lib/libc.a(lib_a-memmove.o)
 .comment       0x000000000000002c       0x2d ../MasterUpgraded_bsp//newlib/nios2-elf/lib/libc.a(lib_a-readr.o)
 .comment       0x000000000000002c       0x2d ../MasterUpgraded_bsp//newlib/nios2-elf/lib/libc.a(lib_a-reallocr.o)
 .comment       0x000000000000002c       0x2d ../MasterUpgraded_bsp//newlib/nios2-elf/lib/libc.a(lib_a-vfiprintfr_1.o)
 .comment       0x000000000000002c       0x2d ../MasterUpgraded_bsp//newlib/nios2-elf/lib/libc.a(lib_a-wbuf.o)
 .comment       0x000000000000002c       0x2d ../MasterUpgraded_bsp//newlib/nios2-elf/lib/libc.a(lib_a-wcrtomb.o)
 .comment       0x000000000000002c       0x2d ../MasterUpgraded_bsp//newlib/nios2-elf/lib/libc.a(lib_a-abort.o)
 .comment       0x000000000000002c       0x2d ../MasterUpgraded_bsp//newlib/nios2-elf/lib/libc.a(lib_a-signal.o)
 .comment       0x000000000000002c       0x2d ../MasterUpgraded_bsp//newlib/nios2-elf/lib/libc.a(lib_a-signalr.o)
 .comment       0x000000000000002c       0x2d /home/omaralkhatib/intelFPGA_lite/20.1/nios2eds/bin/gnu/H-x86_64-pc-linux-gnu/bin/../lib/gcc/nios2-elf/9.2.1/libgcc.a(_udivdi3.o)
 .comment       0x000000000000002c       0x2d /home/omaralkhatib/intelFPGA_lite/20.1/nios2eds/bin/gnu/H-x86_64-pc-linux-gnu/bin/../lib/gcc/nios2-elf/9.2.1/libgcc.a(_umoddi3.o)
 .comment       0x000000000000002c       0x2d /home/omaralkhatib/intelFPGA_lite/20.1/nios2eds/bin/gnu/H-x86_64-pc-linux-gnu/bin/../lib/gcc/nios2-elf/9.2.1/libgcc.a(lib2-divmod.o)
 .comment       0x000000000000002c       0x2d /home/omaralkhatib/intelFPGA_lite/20.1/nios2eds/bin/gnu/H-x86_64-pc-linux-gnu/bin/../lib/gcc/nios2-elf/9.2.1/libgcc.a(adddf3.o)
 .comment       0x000000000000002c       0x2d /home/omaralkhatib/intelFPGA_lite/20.1/nios2eds/bin/gnu/H-x86_64-pc-linux-gnu/bin/../lib/gcc/nios2-elf/9.2.1/libgcc.a(divdf3.o)
 .comment       0x000000000000002c       0x2d /home/omaralkhatib/intelFPGA_lite/20.1/nios2eds/bin/gnu/H-x86_64-pc-linux-gnu/bin/../lib/gcc/nios2-elf/9.2.1/libgcc.a(eqdf2.o)
 .comment       0x000000000000002c       0x2d /home/omaralkhatib/intelFPGA_lite/20.1/nios2eds/bin/gnu/H-x86_64-pc-linux-gnu/bin/../lib/gcc/nios2-elf/9.2.1/libgcc.a(gedf2.o)
 .comment       0x000000000000002c       0x2d /home/omaralkhatib/intelFPGA_lite/20.1/nios2eds/bin/gnu/H-x86_64-pc-linux-gnu/bin/../lib/gcc/nios2-elf/9.2.1/libgcc.a(ledf2.o)
 .comment       0x000000000000002c       0x2d /home/omaralkhatib/intelFPGA_lite/20.1/nios2eds/bin/gnu/H-x86_64-pc-linux-gnu/bin/../lib/gcc/nios2-elf/9.2.1/libgcc.a(muldf3.o)
 .comment       0x000000000000002c       0x2d /home/omaralkhatib/intelFPGA_lite/20.1/nios2eds/bin/gnu/H-x86_64-pc-linux-gnu/bin/../lib/gcc/nios2-elf/9.2.1/libgcc.a(subdf3.o)
 .comment       0x000000000000002c       0x2d /home/omaralkhatib/intelFPGA_lite/20.1/nios2eds/bin/gnu/H-x86_64-pc-linux-gnu/bin/../lib/gcc/nios2-elf/9.2.1/libgcc.a(unorddf2.o)
 .comment       0x000000000000002c       0x2d /home/omaralkhatib/intelFPGA_lite/20.1/nios2eds/bin/gnu/H-x86_64-pc-linux-gnu/bin/../lib/gcc/nios2-elf/9.2.1/libgcc.a(fixdfsi.o)
 .comment       0x000000000000002c       0x2d /home/omaralkhatib/intelFPGA_lite/20.1/nios2eds/bin/gnu/H-x86_64-pc-linux-gnu/bin/../lib/gcc/nios2-elf/9.2.1/libgcc.a(floatsidf.o)
 .comment       0x000000000000002c       0x2d /home/omaralkhatib/intelFPGA_lite/20.1/nios2eds/bin/gnu/H-x86_64-pc-linux-gnu/bin/../lib/gcc/nios2-elf/9.2.1/libgcc.a(floatunsidf.o)
 .comment       0x000000000000002c       0x2d /home/omaralkhatib/intelFPGA_lite/20.1/nios2eds/bin/gnu/H-x86_64-pc-linux-gnu/bin/../lib/gcc/nios2-elf/9.2.1/libgcc.a(_clz.o)
 .comment       0x000000000000002c       0x2d /home/omaralkhatib/intelFPGA_lite/20.1/nios2eds/bin/gnu/H-x86_64-pc-linux-gnu/bin/../lib/gcc/nios2-elf/9.2.1/libgcc.a(_clzsi2.o)
 .comment       0x000000000000002c       0x2d ../MasterUpgraded_bsp//libhal_bsp.a(alt_close.o)
 .comment       0x000000000000002c       0x2d ../MasterUpgraded_bsp//libhal_bsp.a(alt_dev.o)
 .comment       0x000000000000002c       0x2d ../MasterUpgraded_bsp//libhal_bsp.a(alt_errno.o)
 .comment       0x000000000000002c       0x2d ../MasterUpgraded_bsp//libhal_bsp.a(alt_exit.o)
 .comment       0x000000000000002c       0x2d ../MasterUpgraded_bsp//libhal_bsp.a(alt_fstat.o)
 .comment       0x000000000000002c       0x2d ../MasterUpgraded_bsp//libhal_bsp.a(alt_getpid.o)
 .comment       0x000000000000002c       0x2d ../MasterUpgraded_bsp//libhal_bsp.a(alt_isatty.o)
 .comment       0x000000000000002c       0x2d ../MasterUpgraded_bsp//libhal_bsp.a(alt_kill.o)
 .comment       0x000000000000002c       0x2d ../MasterUpgraded_bsp//libhal_bsp.a(alt_load.o)
 .comment       0x000000000000002c       0x2d ../MasterUpgraded_bsp//libhal_bsp.a(alt_lseek.o)
 .comment       0x000000000000002c       0x2d ../MasterUpgraded_bsp//libhal_bsp.a(alt_main.o)
 .comment       0x000000000000002c       0x2d ../MasterUpgraded_bsp//libhal_bsp.a(alt_malloc_lock.o)
 .comment       0x000000000000002c       0x2d ../MasterUpgraded_bsp//libhal_bsp.a(alt_read.o)
 .comment       0x000000000000002c       0x2d ../MasterUpgraded_bsp//libhal_bsp.a(alt_release_fd.o)
 .comment       0x000000000000002c       0x2d ../MasterUpgraded_bsp//libhal_bsp.a(alt_sbrk.o)
 .comment       0x000000000000002c       0x2d ../MasterUpgraded_bsp//libhal_bsp.a(alt_usleep.o)
 .comment       0x000000000000002c       0x2d ../MasterUpgraded_bsp//libhal_bsp.a(alt_write.o)
 .comment       0x000000000000002c       0x2d ../MasterUpgraded_bsp//libhal_bsp.a(alt_sys_init.o)
 .comment       0x000000000000002c       0x2d ../MasterUpgraded_bsp//libhal_bsp.a(altera_avalon_jtag_uart_fd.o)
 .comment       0x000000000000002c       0x2d ../MasterUpgraded_bsp//libhal_bsp.a(altera_avalon_jtag_uart_init.o)
 .comment       0x000000000000002c       0x2d ../MasterUpgraded_bsp//libhal_bsp.a(altera_avalon_jtag_uart_ioctl.o)
 .comment       0x000000000000002c       0x2d ../MasterUpgraded_bsp//libhal_bsp.a(altera_avalon_jtag_uart_read.o)
 .comment       0x000000000000002c       0x2d ../MasterUpgraded_bsp//libhal_bsp.a(altera_avalon_jtag_uart_write.o)
 .comment       0x000000000000002c       0x2d ../MasterUpgraded_bsp//libhal_bsp.a(altera_avalon_timer_sc.o)
 .comment       0x000000000000002c       0x2d ../MasterUpgraded_bsp//libhal_bsp.a(altera_up_avalon_accelerometer_spi.o)
 .comment       0x000000000000002c       0x2d ../MasterUpgraded_bsp//libhal_bsp.a(alt_alarm_start.o)
 .comment       0x000000000000002c       0x2d ../MasterUpgraded_bsp//libhal_bsp.a(alt_busy_sleep.o)
 .comment       0x000000000000002c       0x2d ../MasterUpgraded_bsp//libhal_bsp.a(alt_dcache_flush_all.o)
 .comment       0x000000000000002c       0x2d ../MasterUpgraded_bsp//libhal_bsp.a(alt_dev_llist_insert.o)
 .comment       0x000000000000002c       0x2d ../MasterUpgraded_bsp//libhal_bsp.a(alt_do_ctors.o)
 .comment       0x000000000000002c       0x2d ../MasterUpgraded_bsp//libhal_bsp.a(alt_do_dtors.o)
 .comment       0x000000000000002c       0x2d ../MasterUpgraded_bsp//libhal_bsp.a(alt_find_dev.o)
 .comment       0x000000000000002c       0x2d ../MasterUpgraded_bsp//libhal_bsp.a(alt_icache_flush_all.o)
 .comment       0x000000000000002c       0x2d ../MasterUpgraded_bsp//libhal_bsp.a(alt_io_redirect.o)
 .comment       0x000000000000002c       0x2d ../MasterUpgraded_bsp//libhal_bsp.a(alt_irq_register.o)
 .comment       0x000000000000002c       0x2d ../MasterUpgraded_bsp//libhal_bsp.a(alt_irq_vars.o)
 .comment       0x000000000000002c       0x2d ../MasterUpgraded_bsp//libhal_bsp.a(alt_open.o)
 .comment       0x000000000000002c       0x2d ../MasterUpgraded_bsp//libhal_bsp.a(alt_tick.o)
 .comment       0x000000000000002c       0x2d ../MasterUpgraded_bsp//libhal_bsp.a(altera_nios2_gen2_irq.o)
 .comment       0x000000000000002c       0x2d ../MasterUpgraded_bsp//libhal_bsp.a(alt_find_file.o)
 .comment       0x000000000000002c       0x2d ../MasterUpgraded_bsp//libhal_bsp.a(alt_get_fd.o)
 .comment       0x000000000000002c       0x2d ../MasterUpgraded_bsp//libhal_bsp.a(alt_icache_flush.o)
 .comment       0x000000000000002c       0x2d ../MasterUpgraded_bsp//libhal_bsp.a(alt_irq_handler.o)
 .comment       0x000000000000002c       0x2d ../MasterUpgraded_bsp//libhal_bsp.a(alt_instruction_exception_entry.o)
 .comment       0x000000000000002c       0x2d ../MasterUpgraded_bsp//newlib/nios2-elf/lib/libc.a(lib_a-atexit.o)
 .comment       0x000000000000002c       0x2d ../MasterUpgraded_bsp//newlib/nios2-elf/lib/libc.a(lib_a-exit.o)
 .comment       0x000000000000002c       0x2d ../MasterUpgraded_bsp//newlib/nios2-elf/lib/libc.a(lib_a-memcmp.o)
 .comment       0x000000000000002c       0x2d ../MasterUpgraded_bsp//newlib/nios2-elf/lib/libc.a(lib_a-__atexit.o)
 .comment       0x000000000000002c       0x2d ../MasterUpgraded_bsp//newlib/nios2-elf/lib/libc.a(lib_a-__call_atexit.o)

.debug
 *(.debug)

.line
 *(.line)

.debug_srcinfo
 *(.debug_srcinfo)

.debug_sfnames
 *(.debug_sfnames)

.debug_aranges  0x0000000000000000     0x1110
 *(.debug_aranges)
 .debug_aranges
                0x0000000000000000       0x28 ../MasterUpgraded_bsp//obj/HAL/src/crt0.o
 .debug_aranges
                0x0000000000000028       0x20 obj/default/float2_functionality.o
 .debug_aranges
                0x0000000000000048       0x28 ../MasterUpgraded_bsp//newlib/nios2-elf/lib/libc.a(lib_a-printf.o)
 .debug_aranges
                0x0000000000000070       0x40 ../MasterUpgraded_bsp//newlib/nios2-elf/lib/libc.a(lib_a-vfprintf.o)
 .debug_aranges
                0x00000000000000b0       0x20 ../MasterUpgraded_bsp//newlib/nios2-elf/lib/libc.a(lib_a-wsetup.o)
 .debug_aranges
                0x00000000000000d0       0x28 ../MasterUpgraded_bsp//newlib/nios2-elf/lib/libc.a(lib_a-dtoa.o)
 .debug_aranges
                0x00000000000000f8       0x30 ../MasterUpgraded_bsp//newlib/nios2-elf/lib/libc.a(lib_a-fflush.o)
 .debug_aranges
                0x0000000000000128       0xa0 ../MasterUpgraded_bsp//newlib/nios2-elf/lib/libc.a(lib_a-findfp.o)
 .debug_aranges
                0x00000000000001c8       0x28 ../MasterUpgraded_bsp//newlib/nios2-elf/lib/libc.a(lib_a-freer.o)
 .debug_aranges
                0x00000000000001f0       0x28 ../MasterUpgraded_bsp//newlib/nios2-elf/lib/libc.a(lib_a-fwalk.o)
 .debug_aranges
                0x0000000000000218       0x18 ../MasterUpgraded_bsp//newlib/nios2-elf/lib/libc.a(lib_a-impure.o)
 .debug_aranges
                0x0000000000000230       0x48 ../MasterUpgraded_bsp//newlib/nios2-elf/lib/libc.a(lib_a-localeconv.o)
 .debug_aranges
                0x0000000000000278       0x40 ../MasterUpgraded_bsp//newlib/nios2-elf/lib/libc.a(lib_a-locale.o)
 .debug_aranges
                0x00000000000002b8       0x28 ../MasterUpgraded_bsp//newlib/nios2-elf/lib/libc.a(lib_a-makebuf.o)
 .debug_aranges
                0x00000000000002e0       0x28 ../MasterUpgraded_bsp//newlib/nios2-elf/lib/libc.a(lib_a-mallocr.o)
 .debug_aranges
                0x0000000000000308       0x38 ../MasterUpgraded_bsp//newlib/nios2-elf/lib/libc.a(lib_a-mbtowc_r.o)
 .debug_aranges
                0x0000000000000340       0x20 ../MasterUpgraded_bsp//newlib/nios2-elf/lib/libc.a(lib_a-memchr.o)
 .debug_aranges
                0x0000000000000360       0x20 ../MasterUpgraded_bsp//newlib/nios2-elf/lib/libc.a(lib_a-memcpy.o)
 .debug_aranges
                0x0000000000000380       0x20 ../MasterUpgraded_bsp//newlib/nios2-elf/lib/libc.a(lib_a-memset.o)
 .debug_aranges
                0x00000000000003a0       0xb0 ../MasterUpgraded_bsp//newlib/nios2-elf/lib/libc.a(lib_a-mprec.o)
 .debug_aranges
                0x0000000000000450       0x20 ../MasterUpgraded_bsp//newlib/nios2-elf/lib/libc.a(lib_a-sbrkr.o)
 .debug_aranges
                0x0000000000000470       0x40 ../MasterUpgraded_bsp//newlib/nios2-elf/lib/libc.a(lib_a-stdio.o)
 .debug_aranges
                0x00000000000004b0       0x20 ../MasterUpgraded_bsp//newlib/nios2-elf/lib/libc.a(lib_a-strcmp.o)
 .debug_aranges
                0x00000000000004d0       0x20 ../MasterUpgraded_bsp//newlib/nios2-elf/lib/libc.a(lib_a-strlen.o)
 .debug_aranges
                0x00000000000004f0       0x38 ../MasterUpgraded_bsp//newlib/nios2-elf/lib/libc.a(lib_a-vfiprintf.o)
 .debug_aranges
                0x0000000000000528       0x38 ../MasterUpgraded_bsp//newlib/nios2-elf/lib/libc.a(lib_a-wctomb_r.o)
 .debug_aranges
                0x0000000000000560       0x20 ../MasterUpgraded_bsp//newlib/nios2-elf/lib/libc.a(lib_a-writer.o)
 .debug_aranges
                0x0000000000000580       0x20 ../MasterUpgraded_bsp//newlib/nios2-elf/lib/libc.a(closer.o)
 .debug_aranges
                0x00000000000005a0       0x28 ../MasterUpgraded_bsp//newlib/nios2-elf/lib/libc.a(lib_a-assert.o)
 .debug_aranges
                0x00000000000005c8       0x20 ../MasterUpgraded_bsp//newlib/nios2-elf/lib/libc.a(lib_a-callocr.o)
 .debug_aranges
                0x00000000000005e8       0x18 ../MasterUpgraded_bsp//newlib/nios2-elf/lib/libc.a(lib_a-ctype_.o)
 .debug_aranges
                0x0000000000000600       0x28 ../MasterUpgraded_bsp//newlib/nios2-elf/lib/libc.a(lib_a-fclose.o)
 .debug_aranges
                0x0000000000000628       0x28 ../MasterUpgraded_bsp//newlib/nios2-elf/lib/libc.a(lib_a-fiprintf.o)
 .debug_aranges
                0x0000000000000650       0x30 ../MasterUpgraded_bsp//newlib/nios2-elf/lib/libc.a(lib_a-fputwc.o)
 .debug_aranges
                0x0000000000000680       0x20 ../MasterUpgraded_bsp//newlib/nios2-elf/lib/libc.a(lib_a-fstatr.o)
 .debug_aranges
                0x00000000000006a0       0x20 ../MasterUpgraded_bsp//newlib/nios2-elf/lib/libc.a(lib_a-fvwrite.o)
 .debug_aranges
                0x00000000000006c0       0x18 ../MasterUpgraded_bsp//newlib/nios2-elf/lib/libc.a(lib_a-int_errno.o)
 .debug_aranges
                0x00000000000006d8       0x20 ../MasterUpgraded_bsp//newlib/nios2-elf/lib/libc.a(lib_a-isattyr.o)
 .debug_aranges
                0x00000000000006f8       0x20 ../MasterUpgraded_bsp//newlib/nios2-elf/lib/libc.a(lib_a-lseekr.o)
 .debug_aranges
                0x0000000000000718       0x20 ../MasterUpgraded_bsp//newlib/nios2-elf/lib/libc.a(lib_a-memmove.o)
 .debug_aranges
                0x0000000000000738       0x20 ../MasterUpgraded_bsp//newlib/nios2-elf/lib/libc.a(lib_a-readr.o)
 .debug_aranges
                0x0000000000000758       0x20 ../MasterUpgraded_bsp//newlib/nios2-elf/lib/libc.a(lib_a-reallocr.o)
 .debug_aranges
                0x0000000000000778       0x20 ../MasterUpgraded_bsp//newlib/nios2-elf/lib/libc.a(lib_a-vfiprintfr_1.o)
 .debug_aranges
                0x0000000000000798       0x28 ../MasterUpgraded_bsp//newlib/nios2-elf/lib/libc.a(lib_a-wbuf.o)
 .debug_aranges
                0x00000000000007c0       0x38 ../MasterUpgraded_bsp//newlib/nios2-elf/lib/libc.a(lib_a-wcrtomb.o)
 .debug_aranges
                0x00000000000007f8       0x20 ../MasterUpgraded_bsp//newlib/nios2-elf/lib/libc.a(lib_a-abort.o)
 .debug_aranges
                0x0000000000000818       0x58 ../MasterUpgraded_bsp//newlib/nios2-elf/lib/libc.a(lib_a-signal.o)
 .debug_aranges
                0x0000000000000870       0x28 ../MasterUpgraded_bsp//newlib/nios2-elf/lib/libc.a(lib_a-signalr.o)
 .debug_aranges
                0x0000000000000898       0x20 /home/omaralkhatib/intelFPGA_lite/20.1/nios2eds/bin/gnu/H-x86_64-pc-linux-gnu/bin/../lib/gcc/nios2-elf/9.2.1/libgcc.a(_udivdi3.o)
 .debug_aranges
                0x00000000000008b8       0x20 /home/omaralkhatib/intelFPGA_lite/20.1/nios2eds/bin/gnu/H-x86_64-pc-linux-gnu/bin/../lib/gcc/nios2-elf/9.2.1/libgcc.a(_umoddi3.o)
 .debug_aranges
                0x00000000000008d8       0x20 /home/omaralkhatib/intelFPGA_lite/20.1/nios2eds/bin/gnu/H-x86_64-pc-linux-gnu/bin/../lib/gcc/nios2-elf/9.2.1/libgcc.a(lib2-divmod.o)
 .debug_aranges
                0x00000000000008f8       0x20 /home/omaralkhatib/intelFPGA_lite/20.1/nios2eds/bin/gnu/H-x86_64-pc-linux-gnu/bin/../lib/gcc/nios2-elf/9.2.1/libgcc.a(adddf3.o)
 .debug_aranges
                0x0000000000000918       0x20 /home/omaralkhatib/intelFPGA_lite/20.1/nios2eds/bin/gnu/H-x86_64-pc-linux-gnu/bin/../lib/gcc/nios2-elf/9.2.1/libgcc.a(divdf3.o)
 .debug_aranges
                0x0000000000000938       0x20 /home/omaralkhatib/intelFPGA_lite/20.1/nios2eds/bin/gnu/H-x86_64-pc-linux-gnu/bin/../lib/gcc/nios2-elf/9.2.1/libgcc.a(eqdf2.o)
 .debug_aranges
                0x0000000000000958       0x20 /home/omaralkhatib/intelFPGA_lite/20.1/nios2eds/bin/gnu/H-x86_64-pc-linux-gnu/bin/../lib/gcc/nios2-elf/9.2.1/libgcc.a(gedf2.o)
 .debug_aranges
                0x0000000000000978       0x20 /home/omaralkhatib/intelFPGA_lite/20.1/nios2eds/bin/gnu/H-x86_64-pc-linux-gnu/bin/../lib/gcc/nios2-elf/9.2.1/libgcc.a(ledf2.o)
 .debug_aranges
                0x0000000000000998       0x20 /home/omaralkhatib/intelFPGA_lite/20.1/nios2eds/bin/gnu/H-x86_64-pc-linux-gnu/bin/../lib/gcc/nios2-elf/9.2.1/libgcc.a(muldf3.o)
 .debug_aranges
                0x00000000000009b8       0x20 /home/omaralkhatib/intelFPGA_lite/20.1/nios2eds/bin/gnu/H-x86_64-pc-linux-gnu/bin/../lib/gcc/nios2-elf/9.2.1/libgcc.a(subdf3.o)
 .debug_aranges
                0x00000000000009d8       0x20 /home/omaralkhatib/intelFPGA_lite/20.1/nios2eds/bin/gnu/H-x86_64-pc-linux-gnu/bin/../lib/gcc/nios2-elf/9.2.1/libgcc.a(unorddf2.o)
 .debug_aranges
                0x00000000000009f8       0x20 /home/omaralkhatib/intelFPGA_lite/20.1/nios2eds/bin/gnu/H-x86_64-pc-linux-gnu/bin/../lib/gcc/nios2-elf/9.2.1/libgcc.a(fixdfsi.o)
 .debug_aranges
                0x0000000000000a18       0x20 /home/omaralkhatib/intelFPGA_lite/20.1/nios2eds/bin/gnu/H-x86_64-pc-linux-gnu/bin/../lib/gcc/nios2-elf/9.2.1/libgcc.a(floatsidf.o)
 .debug_aranges
                0x0000000000000a38       0x20 /home/omaralkhatib/intelFPGA_lite/20.1/nios2eds/bin/gnu/H-x86_64-pc-linux-gnu/bin/../lib/gcc/nios2-elf/9.2.1/libgcc.a(floatunsidf.o)
 .debug_aranges
                0x0000000000000a58       0x18 /home/omaralkhatib/intelFPGA_lite/20.1/nios2eds/bin/gnu/H-x86_64-pc-linux-gnu/bin/../lib/gcc/nios2-elf/9.2.1/libgcc.a(_clz.o)
 .debug_aranges
                0x0000000000000a70       0x20 /home/omaralkhatib/intelFPGA_lite/20.1/nios2eds/bin/gnu/H-x86_64-pc-linux-gnu/bin/../lib/gcc/nios2-elf/9.2.1/libgcc.a(_clzsi2.o)
 .debug_aranges
                0x0000000000000a90       0x20 ../MasterUpgraded_bsp//libhal_bsp.a(alt_close.o)
 .debug_aranges
                0x0000000000000ab0       0x20 ../MasterUpgraded_bsp//libhal_bsp.a(alt_dev.o)
 .debug_aranges
                0x0000000000000ad0       0x18 ../MasterUpgraded_bsp//libhal_bsp.a(alt_errno.o)
 .debug_aranges
                0x0000000000000ae8       0x20 ../MasterUpgraded_bsp//libhal_bsp.a(alt_exit.o)
 .debug_aranges
                0x0000000000000b08       0x20 ../MasterUpgraded_bsp//libhal_bsp.a(alt_fstat.o)
 .debug_aranges
                0x0000000000000b28       0x20 ../MasterUpgraded_bsp//libhal_bsp.a(alt_getpid.o)
 .debug_aranges
                0x0000000000000b48       0x20 ../MasterUpgraded_bsp//libhal_bsp.a(alt_isatty.o)
 .debug_aranges
                0x0000000000000b68       0x20 ../MasterUpgraded_bsp//libhal_bsp.a(alt_kill.o)
 .debug_aranges
                0x0000000000000b88       0x20 ../MasterUpgraded_bsp//libhal_bsp.a(alt_load.o)
 .debug_aranges
                0x0000000000000ba8       0x20 ../MasterUpgraded_bsp//libhal_bsp.a(alt_lseek.o)
 .debug_aranges
                0x0000000000000bc8       0x20 ../MasterUpgraded_bsp//libhal_bsp.a(alt_main.o)
 .debug_aranges
                0x0000000000000be8       0x20 ../MasterUpgraded_bsp//libhal_bsp.a(alt_malloc_lock.o)
 .debug_aranges
                0x0000000000000c08       0x20 ../MasterUpgraded_bsp//libhal_bsp.a(alt_read.o)
 .debug_aranges
                0x0000000000000c28       0x20 ../MasterUpgraded_bsp//libhal_bsp.a(alt_release_fd.o)
 .debug_aranges
                0x0000000000000c48       0x20 ../MasterUpgraded_bsp//libhal_bsp.a(alt_sbrk.o)
 .debug_aranges
                0x0000000000000c68       0x20 ../MasterUpgraded_bsp//libhal_bsp.a(alt_usleep.o)
 .debug_aranges
                0x0000000000000c88       0x20 ../MasterUpgraded_bsp//libhal_bsp.a(alt_write.o)
 .debug_aranges
                0x0000000000000ca8       0x20 ../MasterUpgraded_bsp//libhal_bsp.a(alt_sys_init.o)
 .debug_aranges
                0x0000000000000cc8       0x20 ../MasterUpgraded_bsp//libhal_bsp.a(altera_avalon_jtag_uart_fd.o)
 .debug_aranges
                0x0000000000000ce8       0x20 ../MasterUpgraded_bsp//libhal_bsp.a(altera_avalon_jtag_uart_init.o)
 .debug_aranges
                0x0000000000000d08       0x20 ../MasterUpgraded_bsp//libhal_bsp.a(altera_avalon_jtag_uart_ioctl.o)
 .debug_aranges
                0x0000000000000d28       0x20 ../MasterUpgraded_bsp//libhal_bsp.a(altera_avalon_jtag_uart_read.o)
 .debug_aranges
                0x0000000000000d48       0x20 ../MasterUpgraded_bsp//libhal_bsp.a(altera_avalon_jtag_uart_write.o)
 .debug_aranges
                0x0000000000000d68       0x20 ../MasterUpgraded_bsp//libhal_bsp.a(altera_avalon_timer_sc.o)
 .debug_aranges
                0x0000000000000d88       0x20 ../MasterUpgraded_bsp//libhal_bsp.a(altera_up_avalon_accelerometer_spi.o)
 .debug_aranges
                0x0000000000000da8       0x20 ../MasterUpgraded_bsp//libhal_bsp.a(alt_alarm_start.o)
 .debug_aranges
                0x0000000000000dc8       0x20 ../MasterUpgraded_bsp//libhal_bsp.a(alt_busy_sleep.o)
 .debug_aranges
                0x0000000000000de8       0x20 ../MasterUpgraded_bsp//libhal_bsp.a(alt_dcache_flush_all.o)
 .debug_aranges
                0x0000000000000e08       0x20 ../MasterUpgraded_bsp//libhal_bsp.a(alt_dev_llist_insert.o)
 .debug_aranges
                0x0000000000000e28       0x20 ../MasterUpgraded_bsp//libhal_bsp.a(alt_do_ctors.o)
 .debug_aranges
                0x0000000000000e48       0x20 ../MasterUpgraded_bsp//libhal_bsp.a(alt_do_dtors.o)
 .debug_aranges
                0x0000000000000e68       0x20 ../MasterUpgraded_bsp//libhal_bsp.a(alt_find_dev.o)
 .debug_aranges
                0x0000000000000e88       0x20 ../MasterUpgraded_bsp//libhal_bsp.a(alt_icache_flush_all.o)
 .debug_aranges
                0x0000000000000ea8       0x20 ../MasterUpgraded_bsp//libhal_bsp.a(alt_io_redirect.o)
 .debug_aranges
                0x0000000000000ec8       0x20 ../MasterUpgraded_bsp//libhal_bsp.a(alt_irq_register.o)
 .debug_aranges
                0x0000000000000ee8       0x18 ../MasterUpgraded_bsp//libhal_bsp.a(alt_irq_vars.o)
 .debug_aranges
                0x0000000000000f00       0x20 ../MasterUpgraded_bsp//libhal_bsp.a(alt_open.o)
 .debug_aranges
                0x0000000000000f20       0x20 ../MasterUpgraded_bsp//libhal_bsp.a(alt_tick.o)
 .debug_aranges
                0x0000000000000f40       0x20 ../MasterUpgraded_bsp//libhal_bsp.a(altera_nios2_gen2_irq.o)
 .debug_aranges
                0x0000000000000f60       0x20 ../MasterUpgraded_bsp//libhal_bsp.a(alt_find_file.o)
 .debug_aranges
                0x0000000000000f80       0x20 ../MasterUpgraded_bsp//libhal_bsp.a(alt_get_fd.o)
 .debug_aranges
                0x0000000000000fa0       0x20 ../MasterUpgraded_bsp//libhal_bsp.a(alt_icache_flush.o)
 .debug_aranges
                0x0000000000000fc0       0x30 ../MasterUpgraded_bsp//libhal_bsp.a(alt_irq_entry.o)
 .debug_aranges
                0x0000000000000ff0       0x20 ../MasterUpgraded_bsp//libhal_bsp.a(alt_irq_handler.o)
 .debug_aranges
                0x0000000000001010       0x38 ../MasterUpgraded_bsp//libhal_bsp.a(alt_exception_entry.o)
 .debug_aranges
                0x0000000000001048       0x28 ../MasterUpgraded_bsp//libhal_bsp.a(alt_instruction_exception_entry.o)
 .debug_aranges
                0x0000000000001070       0x20 ../MasterUpgraded_bsp//newlib/nios2-elf/lib/libc.a(lib_a-atexit.o)
 .debug_aranges
                0x0000000000001090       0x20 ../MasterUpgraded_bsp//newlib/nios2-elf/lib/libc.a(lib_a-exit.o)
 .debug_aranges
                0x00000000000010b0       0x20 ../MasterUpgraded_bsp//newlib/nios2-elf/lib/libc.a(lib_a-memcmp.o)
 .debug_aranges
                0x00000000000010d0       0x20 ../MasterUpgraded_bsp//newlib/nios2-elf/lib/libc.a(lib_a-__atexit.o)
 .debug_aranges
                0x00000000000010f0       0x20 ../MasterUpgraded_bsp//newlib/nios2-elf/lib/libc.a(lib_a-__call_atexit.o)

.debug_pubnames
 *(.debug_pubnames)

.debug_info     0x0000000000000000    0x4956d
 *(.debug_info .gnu.linkonce.wi.*)
 .debug_info    0x0000000000000000       0x22 ../MasterUpgraded_bsp//obj/HAL/src/crt0.o
 .debug_info    0x0000000000000022      0xcbd obj/default/float2_functionality.o
 .debug_info    0x0000000000000cdf      0xbd6 ../MasterUpgraded_bsp//newlib/nios2-elf/lib/libc.a(lib_a-printf.o)
 .debug_info    0x00000000000018b5     0x1885 ../MasterUpgraded_bsp//newlib/nios2-elf/lib/libc.a(lib_a-vfprintf.o)
 .debug_info    0x000000000000313a      0xb97 ../MasterUpgraded_bsp//newlib/nios2-elf/lib/libc.a(lib_a-wsetup.o)
 .debug_info    0x0000000000003cd1     0x13e3 ../MasterUpgraded_bsp//newlib/nios2-elf/lib/libc.a(lib_a-dtoa.o)
 .debug_info    0x00000000000050b4      0xc7b ../MasterUpgraded_bsp//newlib/nios2-elf/lib/libc.a(lib_a-fflush.o)
 .debug_info    0x0000000000005d2f      0xe6d ../MasterUpgraded_bsp//newlib/nios2-elf/lib/libc.a(lib_a-findfp.o)
 .debug_info    0x0000000000006b9c      0xc65 ../MasterUpgraded_bsp//newlib/nios2-elf/lib/libc.a(lib_a-freer.o)
 .debug_info    0x0000000000007801      0xc4c ../MasterUpgraded_bsp//newlib/nios2-elf/lib/libc.a(lib_a-fwalk.o)
 .debug_info    0x000000000000844d      0x936 ../MasterUpgraded_bsp//newlib/nios2-elf/lib/libc.a(lib_a-impure.o)
 .debug_info    0x0000000000008d83      0xf4c ../MasterUpgraded_bsp//newlib/nios2-elf/lib/libc.a(lib_a-localeconv.o)
 .debug_info    0x0000000000009ccf     0x100b ../MasterUpgraded_bsp//newlib/nios2-elf/lib/libc.a(lib_a-locale.o)
 .debug_info    0x000000000000acda      0xe43 ../MasterUpgraded_bsp//newlib/nios2-elf/lib/libc.a(lib_a-makebuf.o)
 .debug_info    0x000000000000bb1d      0xd20 ../MasterUpgraded_bsp//newlib/nios2-elf/lib/libc.a(lib_a-mallocr.o)
 .debug_info    0x000000000000c83d     0x1009 ../MasterUpgraded_bsp//newlib/nios2-elf/lib/libc.a(lib_a-mbtowc_r.o)
 .debug_info    0x000000000000d846      0x9c7 ../MasterUpgraded_bsp//newlib/nios2-elf/lib/libc.a(lib_a-memchr.o)
 .debug_info    0x000000000000e20d      0xf24 ../MasterUpgraded_bsp//newlib/nios2-elf/lib/libc.a(lib_a-memcpy.o)
 .debug_info    0x000000000000f131      0xf0b ../MasterUpgraded_bsp//newlib/nios2-elf/lib/libc.a(lib_a-memset.o)
 .debug_info    0x000000000001003c     0x1b00 ../MasterUpgraded_bsp//newlib/nios2-elf/lib/libc.a(lib_a-mprec.o)
 .debug_info    0x0000000000011b3c      0x9d2 ../MasterUpgraded_bsp//newlib/nios2-elf/lib/libc.a(lib_a-sbrkr.o)
 .debug_info    0x000000000001250e      0xd51 ../MasterUpgraded_bsp//newlib/nios2-elf/lib/libc.a(lib_a-stdio.o)
 .debug_info    0x000000000001325f      0x96f ../MasterUpgraded_bsp//newlib/nios2-elf/lib/libc.a(lib_a-strcmp.o)
 .debug_info    0x0000000000013bce      0x970 ../MasterUpgraded_bsp//newlib/nios2-elf/lib/libc.a(lib_a-strlen.o)
 .debug_info    0x000000000001453e     0x1673 ../MasterUpgraded_bsp//newlib/nios2-elf/lib/libc.a(lib_a-vfiprintf.o)
 .debug_info    0x0000000000015bb1      0xfd8 ../MasterUpgraded_bsp//newlib/nios2-elf/lib/libc.a(lib_a-wctomb_r.o)
 .debug_info    0x0000000000016b89      0x9f4 ../MasterUpgraded_bsp//newlib/nios2-elf/lib/libc.a(lib_a-writer.o)
 .debug_info    0x000000000001757d      0x9b3 ../MasterUpgraded_bsp//newlib/nios2-elf/lib/libc.a(closer.o)
 .debug_info    0x0000000000017f30      0x9b5 ../MasterUpgraded_bsp//newlib/nios2-elf/lib/libc.a(lib_a-assert.o)
 .debug_info    0x00000000000188e5      0xbc9 ../MasterUpgraded_bsp//newlib/nios2-elf/lib/libc.a(lib_a-callocr.o)
 .debug_info    0x00000000000194ae      0xeb7 ../MasterUpgraded_bsp//newlib/nios2-elf/lib/libc.a(lib_a-ctype_.o)
 .debug_info    0x000000000001a365      0xb9c ../MasterUpgraded_bsp//newlib/nios2-elf/lib/libc.a(lib_a-fclose.o)
 .debug_info    0x000000000001af01      0x9ff ../MasterUpgraded_bsp//newlib/nios2-elf/lib/libc.a(lib_a-fiprintf.o)
 .debug_info    0x000000000001b900      0xc8f ../MasterUpgraded_bsp//newlib/nios2-elf/lib/libc.a(lib_a-fputwc.o)
 .debug_info    0x000000000001c58f      0xbf8 ../MasterUpgraded_bsp//newlib/nios2-elf/lib/libc.a(lib_a-fstatr.o)
 .debug_info    0x000000000001d187      0xcb8 ../MasterUpgraded_bsp//newlib/nios2-elf/lib/libc.a(lib_a-fvwrite.o)
 .debug_info    0x000000000001de3f      0x92c ../MasterUpgraded_bsp//newlib/nios2-elf/lib/libc.a(lib_a-int_errno.o)
 .debug_info    0x000000000001e76b      0x9b3 ../MasterUpgraded_bsp//newlib/nios2-elf/lib/libc.a(lib_a-isattyr.o)
 .debug_info    0x000000000001f11e      0x9d1 ../MasterUpgraded_bsp//newlib/nios2-elf/lib/libc.a(lib_a-lseekr.o)
 .debug_info    0x000000000001faef      0xf1a ../MasterUpgraded_bsp//newlib/nios2-elf/lib/libc.a(lib_a-memmove.o)
 .debug_info    0x0000000000020a09      0x9e9 ../MasterUpgraded_bsp//newlib/nios2-elf/lib/libc.a(lib_a-readr.o)
 .debug_info    0x00000000000213f2      0xd6a ../MasterUpgraded_bsp//newlib/nios2-elf/lib/libc.a(lib_a-reallocr.o)
 .debug_info    0x000000000002215c      0xbab ../MasterUpgraded_bsp//newlib/nios2-elf/lib/libc.a(lib_a-vfiprintfr_1.o)
 .debug_info    0x0000000000022d07      0xbe0 ../MasterUpgraded_bsp//newlib/nios2-elf/lib/libc.a(lib_a-wbuf.o)
 .debug_info    0x00000000000238e7     0x101f ../MasterUpgraded_bsp//newlib/nios2-elf/lib/libc.a(lib_a-wcrtomb.o)
 .debug_info    0x0000000000024906      0x982 ../MasterUpgraded_bsp//newlib/nios2-elf/lib/libc.a(lib_a-abort.o)
 .debug_info    0x0000000000025288      0xb18 ../MasterUpgraded_bsp//newlib/nios2-elf/lib/libc.a(lib_a-signal.o)
 .debug_info    0x0000000000025da0      0x9fc ../MasterUpgraded_bsp//newlib/nios2-elf/lib/libc.a(lib_a-signalr.o)
 .debug_info    0x000000000002679c      0x91e /home/omaralkhatib/intelFPGA_lite/20.1/nios2eds/bin/gnu/H-x86_64-pc-linux-gnu/bin/../lib/gcc/nios2-elf/9.2.1/libgcc.a(_udivdi3.o)
 .debug_info    0x00000000000270ba      0x996 /home/omaralkhatib/intelFPGA_lite/20.1/nios2eds/bin/gnu/H-x86_64-pc-linux-gnu/bin/../lib/gcc/nios2-elf/9.2.1/libgcc.a(_umoddi3.o)
 .debug_info    0x0000000000027a50      0x368 /home/omaralkhatib/intelFPGA_lite/20.1/nios2eds/bin/gnu/H-x86_64-pc-linux-gnu/bin/../lib/gcc/nios2-elf/9.2.1/libgcc.a(lib2-divmod.o)
 .debug_info    0x0000000000027db8      0x640 /home/omaralkhatib/intelFPGA_lite/20.1/nios2eds/bin/gnu/H-x86_64-pc-linux-gnu/bin/../lib/gcc/nios2-elf/9.2.1/libgcc.a(adddf3.o)
 .debug_info    0x00000000000283f8      0x82f /home/omaralkhatib/intelFPGA_lite/20.1/nios2eds/bin/gnu/H-x86_64-pc-linux-gnu/bin/../lib/gcc/nios2-elf/9.2.1/libgcc.a(divdf3.o)
 .debug_info    0x0000000000028c27      0x2a6 /home/omaralkhatib/intelFPGA_lite/20.1/nios2eds/bin/gnu/H-x86_64-pc-linux-gnu/bin/../lib/gcc/nios2-elf/9.2.1/libgcc.a(eqdf2.o)
 .debug_info    0x0000000000028ecd      0x2a7 /home/omaralkhatib/intelFPGA_lite/20.1/nios2eds/bin/gnu/H-x86_64-pc-linux-gnu/bin/../lib/gcc/nios2-elf/9.2.1/libgcc.a(gedf2.o)
 .debug_info    0x0000000000029174      0x2a7 /home/omaralkhatib/intelFPGA_lite/20.1/nios2eds/bin/gnu/H-x86_64-pc-linux-gnu/bin/../lib/gcc/nios2-elf/9.2.1/libgcc.a(ledf2.o)
 .debug_info    0x000000000002941b      0x847 /home/omaralkhatib/intelFPGA_lite/20.1/nios2eds/bin/gnu/H-x86_64-pc-linux-gnu/bin/../lib/gcc/nios2-elf/9.2.1/libgcc.a(muldf3.o)
 .debug_info    0x0000000000029c62      0x640 /home/omaralkhatib/intelFPGA_lite/20.1/nios2eds/bin/gnu/H-x86_64-pc-linux-gnu/bin/../lib/gcc/nios2-elf/9.2.1/libgcc.a(subdf3.o)
 .debug_info    0x000000000002a2a2      0x27e /home/omaralkhatib/intelFPGA_lite/20.1/nios2eds/bin/gnu/H-x86_64-pc-linux-gnu/bin/../lib/gcc/nios2-elf/9.2.1/libgcc.a(unorddf2.o)
 .debug_info    0x000000000002a520      0x22a /home/omaralkhatib/intelFPGA_lite/20.1/nios2eds/bin/gnu/H-x86_64-pc-linux-gnu/bin/../lib/gcc/nios2-elf/9.2.1/libgcc.a(fixdfsi.o)
 .debug_info    0x000000000002a74a      0x2e4 /home/omaralkhatib/intelFPGA_lite/20.1/nios2eds/bin/gnu/H-x86_64-pc-linux-gnu/bin/../lib/gcc/nios2-elf/9.2.1/libgcc.a(floatsidf.o)
 .debug_info    0x000000000002aa2e      0x2d7 /home/omaralkhatib/intelFPGA_lite/20.1/nios2eds/bin/gnu/H-x86_64-pc-linux-gnu/bin/../lib/gcc/nios2-elf/9.2.1/libgcc.a(floatunsidf.o)
 .debug_info    0x000000000002ad05      0x179 /home/omaralkhatib/intelFPGA_lite/20.1/nios2eds/bin/gnu/H-x86_64-pc-linux-gnu/bin/../lib/gcc/nios2-elf/9.2.1/libgcc.a(_clz.o)
 .debug_info    0x000000000002ae7e      0x1ea /home/omaralkhatib/intelFPGA_lite/20.1/nios2eds/bin/gnu/H-x86_64-pc-linux-gnu/bin/../lib/gcc/nios2-elf/9.2.1/libgcc.a(_clzsi2.o)
 .debug_info    0x000000000002b068      0xc60 ../MasterUpgraded_bsp//libhal_bsp.a(alt_close.o)
 .debug_info    0x000000000002bcc8      0xe95 ../MasterUpgraded_bsp//libhal_bsp.a(alt_dev.o)
 .debug_info    0x000000000002cb5d      0x972 ../MasterUpgraded_bsp//libhal_bsp.a(alt_errno.o)
 .debug_info    0x000000000002d4cf      0x9aa ../MasterUpgraded_bsp//libhal_bsp.a(alt_exit.o)
 .debug_info    0x000000000002de79      0xe38 ../MasterUpgraded_bsp//libhal_bsp.a(alt_fstat.o)
 .debug_info    0x000000000002ecb1       0x43 ../MasterUpgraded_bsp//libhal_bsp.a(alt_getpid.o)
 .debug_info    0x000000000002ecf4      0xe3b ../MasterUpgraded_bsp//libhal_bsp.a(alt_isatty.o)
 .debug_info    0x000000000002fb2f      0xa18 ../MasterUpgraded_bsp//libhal_bsp.a(alt_kill.o)
 .debug_info    0x0000000000030547      0x9f5 ../MasterUpgraded_bsp//libhal_bsp.a(alt_load.o)
 .debug_info    0x0000000000030f3c      0xc95 ../MasterUpgraded_bsp//libhal_bsp.a(alt_lseek.o)
 .debug_info    0x0000000000031bd1      0xe76 ../MasterUpgraded_bsp//libhal_bsp.a(alt_main.o)
 .debug_info    0x0000000000032a47      0x95c ../MasterUpgraded_bsp//libhal_bsp.a(alt_malloc_lock.o)
 .debug_info    0x00000000000333a3      0xeb1 ../MasterUpgraded_bsp//libhal_bsp.a(alt_read.o)
 .debug_info    0x0000000000034254      0x2e9 ../MasterUpgraded_bsp//libhal_bsp.a(alt_release_fd.o)
 .debug_info    0x000000000003453d      0xa6b ../MasterUpgraded_bsp//libhal_bsp.a(alt_sbrk.o)
 .debug_info    0x0000000000034fa8      0x10b ../MasterUpgraded_bsp//libhal_bsp.a(alt_usleep.o)
 .debug_info    0x00000000000350b3      0xeb8 ../MasterUpgraded_bsp//libhal_bsp.a(alt_write.o)
 .debug_info    0x0000000000035f6b      0xe1a ../MasterUpgraded_bsp//libhal_bsp.a(alt_sys_init.o)
 .debug_info    0x0000000000036d85      0x566 ../MasterUpgraded_bsp//libhal_bsp.a(altera_avalon_jtag_uart_fd.o)
 .debug_info    0x00000000000372eb      0xcf6 ../MasterUpgraded_bsp//libhal_bsp.a(altera_avalon_jtag_uart_init.o)
 .debug_info    0x0000000000037fe1      0xb97 ../MasterUpgraded_bsp//libhal_bsp.a(altera_avalon_jtag_uart_ioctl.o)
 .debug_info    0x0000000000038b78      0xc54 ../MasterUpgraded_bsp//libhal_bsp.a(altera_avalon_jtag_uart_read.o)
 .debug_info    0x00000000000397cc      0xc4a ../MasterUpgraded_bsp//libhal_bsp.a(altera_avalon_jtag_uart_write.o)
 .debug_info    0x000000000003a416      0xb19 ../MasterUpgraded_bsp//libhal_bsp.a(altera_avalon_timer_sc.o)
 .debug_info    0x000000000003af2f      0xd75 ../MasterUpgraded_bsp//libhal_bsp.a(altera_up_avalon_accelerometer_spi.o)
 .debug_info    0x000000000003bca4      0xba4 ../MasterUpgraded_bsp//libhal_bsp.a(alt_alarm_start.o)
 .debug_info    0x000000000003c848      0x972 ../MasterUpgraded_bsp//libhal_bsp.a(alt_busy_sleep.o)
 .debug_info    0x000000000003d1ba      0x942 ../MasterUpgraded_bsp//libhal_bsp.a(alt_dcache_flush_all.o)
 .debug_info    0x000000000003dafc      0xa6e ../MasterUpgraded_bsp//libhal_bsp.a(alt_dev_llist_insert.o)
 .debug_info    0x000000000003e56a       0x88 ../MasterUpgraded_bsp//libhal_bsp.a(alt_do_ctors.o)
 .debug_info    0x000000000003e5f2       0x88 ../MasterUpgraded_bsp//libhal_bsp.a(alt_do_dtors.o)
 .debug_info    0x000000000003e67a      0xbb2 ../MasterUpgraded_bsp//libhal_bsp.a(alt_find_dev.o)
 .debug_info    0x000000000003f22c      0x934 ../MasterUpgraded_bsp//libhal_bsp.a(alt_icache_flush_all.o)
 .debug_info    0x000000000003fb60      0xe75 ../MasterUpgraded_bsp//libhal_bsp.a(alt_io_redirect.o)
 .debug_info    0x00000000000409d5      0xbbe ../MasterUpgraded_bsp//libhal_bsp.a(alt_irq_register.o)
 .debug_info    0x0000000000041593       0x8b ../MasterUpgraded_bsp//libhal_bsp.a(alt_irq_vars.o)
 .debug_info    0x000000000004161e      0xc9f ../MasterUpgraded_bsp//libhal_bsp.a(alt_open.o)
 .debug_info    0x00000000000422bd      0xb84 ../MasterUpgraded_bsp//libhal_bsp.a(alt_tick.o)
 .debug_info    0x0000000000042e41      0x955 ../MasterUpgraded_bsp//libhal_bsp.a(altera_nios2_gen2_irq.o)
 .debug_info    0x0000000000043796      0xba3 ../MasterUpgraded_bsp//libhal_bsp.a(alt_find_file.o)
 .debug_info    0x0000000000044339      0xbea ../MasterUpgraded_bsp//libhal_bsp.a(alt_get_fd.o)
 .debug_info    0x0000000000044f23      0x97b ../MasterUpgraded_bsp//libhal_bsp.a(alt_icache_flush.o)
 .debug_info    0x000000000004589e       0x22 ../MasterUpgraded_bsp//libhal_bsp.a(alt_irq_entry.o)
 .debug_info    0x00000000000458c0      0xa41 ../MasterUpgraded_bsp//libhal_bsp.a(alt_irq_handler.o)
 .debug_info    0x0000000000046301       0x22 ../MasterUpgraded_bsp//libhal_bsp.a(alt_exception_entry.o)
 .debug_info    0x0000000000046323      0x1f1 ../MasterUpgraded_bsp//libhal_bsp.a(alt_instruction_exception_entry.o)
 .debug_info    0x0000000000046514      0x96c ../MasterUpgraded_bsp//newlib/nios2-elf/lib/libc.a(lib_a-atexit.o)
 .debug_info    0x0000000000046e80      0x992 ../MasterUpgraded_bsp//newlib/nios2-elf/lib/libc.a(lib_a-exit.o)
 .debug_info    0x0000000000047812      0x9ab ../MasterUpgraded_bsp//newlib/nios2-elf/lib/libc.a(lib_a-memcmp.o)
 .debug_info    0x00000000000481bd      0x9c8 ../MasterUpgraded_bsp//newlib/nios2-elf/lib/libc.a(lib_a-__atexit.o)
 .debug_info    0x0000000000048b85      0x9e8 ../MasterUpgraded_bsp//newlib/nios2-elf/lib/libc.a(lib_a-__call_atexit.o)

.debug_abbrev   0x0000000000000000     0xe5d4
 *(.debug_abbrev)
 .debug_abbrev  0x0000000000000000       0x12 ../MasterUpgraded_bsp//obj/HAL/src/crt0.o
 .debug_abbrev  0x0000000000000012      0x251 obj/default/float2_functionality.o
 .debug_abbrev  0x0000000000000263      0x25c ../MasterUpgraded_bsp//newlib/nios2-elf/lib/libc.a(lib_a-printf.o)
 .debug_abbrev  0x00000000000004bf      0x325 ../MasterUpgraded_bsp//newlib/nios2-elf/lib/libc.a(lib_a-vfprintf.o)
 .debug_abbrev  0x00000000000007e4      0x239 ../MasterUpgraded_bsp//newlib/nios2-elf/lib/libc.a(lib_a-wsetup.o)
 .debug_abbrev  0x0000000000000a1d      0x2ca ../MasterUpgraded_bsp//newlib/nios2-elf/lib/libc.a(lib_a-dtoa.o)
 .debug_abbrev  0x0000000000000ce7      0x2b7 ../MasterUpgraded_bsp//newlib/nios2-elf/lib/libc.a(lib_a-fflush.o)
 .debug_abbrev  0x0000000000000f9e      0x33b ../MasterUpgraded_bsp//newlib/nios2-elf/lib/libc.a(lib_a-findfp.o)
 .debug_abbrev  0x00000000000012d9      0x250 ../MasterUpgraded_bsp//newlib/nios2-elf/lib/libc.a(lib_a-freer.o)
 .debug_abbrev  0x0000000000001529      0x241 ../MasterUpgraded_bsp//newlib/nios2-elf/lib/libc.a(lib_a-fwalk.o)
 .debug_abbrev  0x000000000000176a      0x1c9 ../MasterUpgraded_bsp//newlib/nios2-elf/lib/libc.a(lib_a-impure.o)
 .debug_abbrev  0x0000000000001933      0x24b ../MasterUpgraded_bsp//newlib/nios2-elf/lib/libc.a(lib_a-localeconv.o)
 .debug_abbrev  0x0000000000001b7e      0x263 ../MasterUpgraded_bsp//newlib/nios2-elf/lib/libc.a(lib_a-locale.o)
 .debug_abbrev  0x0000000000001de1      0x267 ../MasterUpgraded_bsp//newlib/nios2-elf/lib/libc.a(lib_a-makebuf.o)
 .debug_abbrev  0x0000000000002048      0x261 ../MasterUpgraded_bsp//newlib/nios2-elf/lib/libc.a(lib_a-mallocr.o)
 .debug_abbrev  0x00000000000022a9      0x27b ../MasterUpgraded_bsp//newlib/nios2-elf/lib/libc.a(lib_a-mbtowc_r.o)
 .debug_abbrev  0x0000000000002524      0x21a ../MasterUpgraded_bsp//newlib/nios2-elf/lib/libc.a(lib_a-memchr.o)
 .debug_abbrev  0x000000000000273e      0x21a ../MasterUpgraded_bsp//newlib/nios2-elf/lib/libc.a(lib_a-memcpy.o)
 .debug_abbrev  0x0000000000002958      0x20e ../MasterUpgraded_bsp//newlib/nios2-elf/lib/libc.a(lib_a-memset.o)
 .debug_abbrev  0x0000000000002b66      0x37e ../MasterUpgraded_bsp//newlib/nios2-elf/lib/libc.a(lib_a-mprec.o)
 .debug_abbrev  0x0000000000002ee4      0x22a ../MasterUpgraded_bsp//newlib/nios2-elf/lib/libc.a(lib_a-sbrkr.o)
 .debug_abbrev  0x000000000000310e      0x276 ../MasterUpgraded_bsp//newlib/nios2-elf/lib/libc.a(lib_a-stdio.o)
 .debug_abbrev  0x0000000000003384      0x1f3 ../MasterUpgraded_bsp//newlib/nios2-elf/lib/libc.a(lib_a-strcmp.o)
 .debug_abbrev  0x0000000000003577      0x1f3 ../MasterUpgraded_bsp//newlib/nios2-elf/lib/libc.a(lib_a-strlen.o)
 .debug_abbrev  0x000000000000376a      0x2eb ../MasterUpgraded_bsp//newlib/nios2-elf/lib/libc.a(lib_a-vfiprintf.o)
 .debug_abbrev  0x0000000000003a55      0x263 ../MasterUpgraded_bsp//newlib/nios2-elf/lib/libc.a(lib_a-wctomb_r.o)
 .debug_abbrev  0x0000000000003cb8      0x20b ../MasterUpgraded_bsp//newlib/nios2-elf/lib/libc.a(lib_a-writer.o)
 .debug_abbrev  0x0000000000003ec3      0x204 ../MasterUpgraded_bsp//newlib/nios2-elf/lib/libc.a(closer.o)
 .debug_abbrev  0x00000000000040c7      0x213 ../MasterUpgraded_bsp//newlib/nios2-elf/lib/libc.a(lib_a-assert.o)
 .debug_abbrev  0x00000000000042da      0x23f ../MasterUpgraded_bsp//newlib/nios2-elf/lib/libc.a(lib_a-callocr.o)
 .debug_abbrev  0x0000000000004519      0x1d6 ../MasterUpgraded_bsp//newlib/nios2-elf/lib/libc.a(lib_a-ctype_.o)
 .debug_abbrev  0x00000000000046ef      0x272 ../MasterUpgraded_bsp//newlib/nios2-elf/lib/libc.a(lib_a-fclose.o)
 .debug_abbrev  0x0000000000004961      0x21d ../MasterUpgraded_bsp//newlib/nios2-elf/lib/libc.a(lib_a-fiprintf.o)
 .debug_abbrev  0x0000000000004b7e      0x251 ../MasterUpgraded_bsp//newlib/nios2-elf/lib/libc.a(lib_a-fputwc.o)
 .debug_abbrev  0x0000000000004dcf      0x217 ../MasterUpgraded_bsp//newlib/nios2-elf/lib/libc.a(lib_a-fstatr.o)
 .debug_abbrev  0x0000000000004fe6      0x25e ../MasterUpgraded_bsp//newlib/nios2-elf/lib/libc.a(lib_a-fvwrite.o)
 .debug_abbrev  0x0000000000005244      0x1d5 ../MasterUpgraded_bsp//newlib/nios2-elf/lib/libc.a(lib_a-int_errno.o)
 .debug_abbrev  0x0000000000005419      0x204 ../MasterUpgraded_bsp//newlib/nios2-elf/lib/libc.a(lib_a-isattyr.o)
 .debug_abbrev  0x000000000000561d      0x215 ../MasterUpgraded_bsp//newlib/nios2-elf/lib/libc.a(lib_a-lseekr.o)
 .debug_abbrev  0x0000000000005832      0x213 ../MasterUpgraded_bsp//newlib/nios2-elf/lib/libc.a(lib_a-memmove.o)
 .debug_abbrev  0x0000000000005a45      0x204 ../MasterUpgraded_bsp//newlib/nios2-elf/lib/libc.a(lib_a-readr.o)
 .debug_abbrev  0x0000000000005c49      0x251 ../MasterUpgraded_bsp//newlib/nios2-elf/lib/libc.a(lib_a-reallocr.o)
 .debug_abbrev  0x0000000000005e9a      0x25d ../MasterUpgraded_bsp//newlib/nios2-elf/lib/libc.a(lib_a-vfiprintfr_1.o)
 .debug_abbrev  0x00000000000060f7      0x266 ../MasterUpgraded_bsp//newlib/nios2-elf/lib/libc.a(lib_a-wbuf.o)
 .debug_abbrev  0x000000000000635d      0x24c ../MasterUpgraded_bsp//newlib/nios2-elf/lib/libc.a(lib_a-wcrtomb.o)
 .debug_abbrev  0x00000000000065a9      0x1e3 ../MasterUpgraded_bsp//newlib/nios2-elf/lib/libc.a(lib_a-abort.o)
 .debug_abbrev  0x000000000000678c      0x265 ../MasterUpgraded_bsp//newlib/nios2-elf/lib/libc.a(lib_a-signal.o)
 .debug_abbrev  0x00000000000069f1      0x222 ../MasterUpgraded_bsp//newlib/nios2-elf/lib/libc.a(lib_a-signalr.o)
 .debug_abbrev  0x0000000000006c13      0x1cb /home/omaralkhatib/intelFPGA_lite/20.1/nios2eds/bin/gnu/H-x86_64-pc-linux-gnu/bin/../lib/gcc/nios2-elf/9.2.1/libgcc.a(_udivdi3.o)
 .debug_abbrev  0x0000000000006dde      0x1f7 /home/omaralkhatib/intelFPGA_lite/20.1/nios2eds/bin/gnu/H-x86_64-pc-linux-gnu/bin/../lib/gcc/nios2-elf/9.2.1/libgcc.a(_umoddi3.o)
 .debug_abbrev  0x0000000000006fd5      0x103 /home/omaralkhatib/intelFPGA_lite/20.1/nios2eds/bin/gnu/H-x86_64-pc-linux-gnu/bin/../lib/gcc/nios2-elf/9.2.1/libgcc.a(lib2-divmod.o)
 .debug_abbrev  0x00000000000070d8      0x197 /home/omaralkhatib/intelFPGA_lite/20.1/nios2eds/bin/gnu/H-x86_64-pc-linux-gnu/bin/../lib/gcc/nios2-elf/9.2.1/libgcc.a(adddf3.o)
 .debug_abbrev  0x000000000000726f      0x188 /home/omaralkhatib/intelFPGA_lite/20.1/nios2eds/bin/gnu/H-x86_64-pc-linux-gnu/bin/../lib/gcc/nios2-elf/9.2.1/libgcc.a(divdf3.o)
 .debug_abbrev  0x00000000000073f7      0x16a /home/omaralkhatib/intelFPGA_lite/20.1/nios2eds/bin/gnu/H-x86_64-pc-linux-gnu/bin/../lib/gcc/nios2-elf/9.2.1/libgcc.a(eqdf2.o)
 .debug_abbrev  0x0000000000007561      0x18e /home/omaralkhatib/intelFPGA_lite/20.1/nios2eds/bin/gnu/H-x86_64-pc-linux-gnu/bin/../lib/gcc/nios2-elf/9.2.1/libgcc.a(gedf2.o)
 .debug_abbrev  0x00000000000076ef      0x18e /home/omaralkhatib/intelFPGA_lite/20.1/nios2eds/bin/gnu/H-x86_64-pc-linux-gnu/bin/../lib/gcc/nios2-elf/9.2.1/libgcc.a(ledf2.o)
 .debug_abbrev  0x000000000000787d      0x18f /home/omaralkhatib/intelFPGA_lite/20.1/nios2eds/bin/gnu/H-x86_64-pc-linux-gnu/bin/../lib/gcc/nios2-elf/9.2.1/libgcc.a(muldf3.o)
 .debug_abbrev  0x0000000000007a0c      0x197 /home/omaralkhatib/intelFPGA_lite/20.1/nios2eds/bin/gnu/H-x86_64-pc-linux-gnu/bin/../lib/gcc/nios2-elf/9.2.1/libgcc.a(subdf3.o)
 .debug_abbrev  0x0000000000007ba3      0x16a /home/omaralkhatib/intelFPGA_lite/20.1/nios2eds/bin/gnu/H-x86_64-pc-linux-gnu/bin/../lib/gcc/nios2-elf/9.2.1/libgcc.a(unorddf2.o)
 .debug_abbrev  0x0000000000007d0d      0x171 /home/omaralkhatib/intelFPGA_lite/20.1/nios2eds/bin/gnu/H-x86_64-pc-linux-gnu/bin/../lib/gcc/nios2-elf/9.2.1/libgcc.a(fixdfsi.o)
 .debug_abbrev  0x0000000000007e7e      0x18a /home/omaralkhatib/intelFPGA_lite/20.1/nios2eds/bin/gnu/H-x86_64-pc-linux-gnu/bin/../lib/gcc/nios2-elf/9.2.1/libgcc.a(floatsidf.o)
 .debug_abbrev  0x0000000000008008      0x18a /home/omaralkhatib/intelFPGA_lite/20.1/nios2eds/bin/gnu/H-x86_64-pc-linux-gnu/bin/../lib/gcc/nios2-elf/9.2.1/libgcc.a(floatunsidf.o)
 .debug_abbrev  0x0000000000008192       0xa8 /home/omaralkhatib/intelFPGA_lite/20.1/nios2eds/bin/gnu/H-x86_64-pc-linux-gnu/bin/../lib/gcc/nios2-elf/9.2.1/libgcc.a(_clz.o)
 .debug_abbrev  0x000000000000823a       0xf7 /home/omaralkhatib/intelFPGA_lite/20.1/nios2eds/bin/gnu/H-x86_64-pc-linux-gnu/bin/../lib/gcc/nios2-elf/9.2.1/libgcc.a(_clzsi2.o)
 .debug_abbrev  0x0000000000008331      0x23f ../MasterUpgraded_bsp//libhal_bsp.a(alt_close.o)
 .debug_abbrev  0x0000000000008570      0x212 ../MasterUpgraded_bsp//libhal_bsp.a(alt_dev.o)
 .debug_abbrev  0x0000000000008782      0x1df ../MasterUpgraded_bsp//libhal_bsp.a(alt_errno.o)
 .debug_abbrev  0x0000000000008961      0x24d ../MasterUpgraded_bsp//libhal_bsp.a(alt_exit.o)
 .debug_abbrev  0x0000000000008bae      0x23f ../MasterUpgraded_bsp//libhal_bsp.a(alt_fstat.o)
 .debug_abbrev  0x0000000000008ded       0x3b ../MasterUpgraded_bsp//libhal_bsp.a(alt_getpid.o)
 .debug_abbrev  0x0000000000008e28      0x23f ../MasterUpgraded_bsp//libhal_bsp.a(alt_isatty.o)
 .debug_abbrev  0x0000000000009067      0x22e ../MasterUpgraded_bsp//libhal_bsp.a(alt_kill.o)
 .debug_abbrev  0x0000000000009295      0x21c ../MasterUpgraded_bsp//libhal_bsp.a(alt_load.o)
 .debug_abbrev  0x00000000000094b1      0x23f ../MasterUpgraded_bsp//libhal_bsp.a(alt_lseek.o)
 .debug_abbrev  0x00000000000096f0      0x21e ../MasterUpgraded_bsp//libhal_bsp.a(alt_main.o)
 .debug_abbrev  0x000000000000990e      0x1fa ../MasterUpgraded_bsp//libhal_bsp.a(alt_malloc_lock.o)
 .debug_abbrev  0x0000000000009b08      0x250 ../MasterUpgraded_bsp//libhal_bsp.a(alt_read.o)
 .debug_abbrev  0x0000000000009d58       0xea ../MasterUpgraded_bsp//libhal_bsp.a(alt_release_fd.o)
 .debug_abbrev  0x0000000000009e42      0x285 ../MasterUpgraded_bsp//libhal_bsp.a(alt_sbrk.o)
 .debug_abbrev  0x000000000000a0c7       0x82 ../MasterUpgraded_bsp//libhal_bsp.a(alt_usleep.o)
 .debug_abbrev  0x000000000000a149      0x255 ../MasterUpgraded_bsp//libhal_bsp.a(alt_write.o)
 .debug_abbrev  0x000000000000a39e      0x287 ../MasterUpgraded_bsp//libhal_bsp.a(alt_sys_init.o)
 .debug_abbrev  0x000000000000a625      0x159 ../MasterUpgraded_bsp//libhal_bsp.a(altera_avalon_jtag_uart_fd.o)
 .debug_abbrev  0x000000000000a77e      0x2ce ../MasterUpgraded_bsp//libhal_bsp.a(altera_avalon_jtag_uart_init.o)
 .debug_abbrev  0x000000000000aa4c      0x235 ../MasterUpgraded_bsp//libhal_bsp.a(altera_avalon_jtag_uart_ioctl.o)
 .debug_abbrev  0x000000000000ac81      0x2d3 ../MasterUpgraded_bsp//libhal_bsp.a(altera_avalon_jtag_uart_read.o)
 .debug_abbrev  0x000000000000af54      0x2ca ../MasterUpgraded_bsp//libhal_bsp.a(altera_avalon_jtag_uart_write.o)
 .debug_abbrev  0x000000000000b21e      0x2ca ../MasterUpgraded_bsp//libhal_bsp.a(altera_avalon_timer_sc.o)
 .debug_abbrev  0x000000000000b4e8      0x227 ../MasterUpgraded_bsp//libhal_bsp.a(altera_up_avalon_accelerometer_spi.o)
 .debug_abbrev  0x000000000000b70f      0x2c3 ../MasterUpgraded_bsp//libhal_bsp.a(alt_alarm_start.o)
 .debug_abbrev  0x000000000000b9d2      0x202 ../MasterUpgraded_bsp//libhal_bsp.a(alt_busy_sleep.o)
 .debug_abbrev  0x000000000000bbd4      0x1f1 ../MasterUpgraded_bsp//libhal_bsp.a(alt_dcache_flush_all.o)
 .debug_abbrev  0x000000000000bdc5      0x268 ../MasterUpgraded_bsp//libhal_bsp.a(alt_dev_llist_insert.o)
 .debug_abbrev  0x000000000000c02d       0x81 ../MasterUpgraded_bsp//libhal_bsp.a(alt_do_ctors.o)
 .debug_abbrev  0x000000000000c0ae       0x81 ../MasterUpgraded_bsp//libhal_bsp.a(alt_do_dtors.o)
 .debug_abbrev  0x000000000000c12f      0x21a ../MasterUpgraded_bsp//libhal_bsp.a(alt_find_dev.o)
 .debug_abbrev  0x000000000000c349      0x1e0 ../MasterUpgraded_bsp//libhal_bsp.a(alt_icache_flush_all.o)
 .debug_abbrev  0x000000000000c529      0x232 ../MasterUpgraded_bsp//libhal_bsp.a(alt_io_redirect.o)
 .debug_abbrev  0x000000000000c75b      0x2db ../MasterUpgraded_bsp//libhal_bsp.a(alt_irq_register.o)
 .debug_abbrev  0x000000000000ca36       0x44 ../MasterUpgraded_bsp//libhal_bsp.a(alt_irq_vars.o)
 .debug_abbrev  0x000000000000ca7a      0x26c ../MasterUpgraded_bsp//libhal_bsp.a(alt_open.o)
 .debug_abbrev  0x000000000000cce6      0x2b5 ../MasterUpgraded_bsp//libhal_bsp.a(alt_tick.o)
 .debug_abbrev  0x000000000000cf9b      0x1e5 ../MasterUpgraded_bsp//libhal_bsp.a(altera_nios2_gen2_irq.o)
 .debug_abbrev  0x000000000000d180      0x21a ../MasterUpgraded_bsp//libhal_bsp.a(alt_find_file.o)
 .debug_abbrev  0x000000000000d39a      0x22d ../MasterUpgraded_bsp//libhal_bsp.a(alt_get_fd.o)
 .debug_abbrev  0x000000000000d5c7      0x213 ../MasterUpgraded_bsp//libhal_bsp.a(alt_icache_flush.o)
 .debug_abbrev  0x000000000000d7da       0x12 ../MasterUpgraded_bsp//libhal_bsp.a(alt_irq_entry.o)
 .debug_abbrev  0x000000000000d7ec      0x26b ../MasterUpgraded_bsp//libhal_bsp.a(alt_irq_handler.o)
 .debug_abbrev  0x000000000000da57       0x12 ../MasterUpgraded_bsp//libhal_bsp.a(alt_exception_entry.o)
 .debug_abbrev  0x000000000000da69       0xea ../MasterUpgraded_bsp//libhal_bsp.a(alt_instruction_exception_entry.o)
 .debug_abbrev  0x000000000000db53      0x211 ../MasterUpgraded_bsp//newlib/nios2-elf/lib/libc.a(lib_a-atexit.o)
 .debug_abbrev  0x000000000000dd64      0x1f4 ../MasterUpgraded_bsp//newlib/nios2-elf/lib/libc.a(lib_a-exit.o)
 .debug_abbrev  0x000000000000df58      0x1f8 ../MasterUpgraded_bsp//newlib/nios2-elf/lib/libc.a(lib_a-memcmp.o)
 .debug_abbrev  0x000000000000e150      0x246 ../MasterUpgraded_bsp//newlib/nios2-elf/lib/libc.a(lib_a-__atexit.o)
 .debug_abbrev  0x000000000000e396      0x23e ../MasterUpgraded_bsp//newlib/nios2-elf/lib/libc.a(lib_a-__call_atexit.o)

.debug_line     0x0000000000000000    0x16547
 *(.debug_line)
 .debug_line    0x0000000000000000       0x72 ../MasterUpgraded_bsp//obj/HAL/src/crt0.o
 .debug_line    0x0000000000000072      0x2b3 obj/default/float2_functionality.o
 .debug_line    0x0000000000000325      0x25e ../MasterUpgraded_bsp//newlib/nios2-elf/lib/libc.a(lib_a-printf.o)
 .debug_line    0x0000000000000583      0xff4 ../MasterUpgraded_bsp//newlib/nios2-elf/lib/libc.a(lib_a-vfprintf.o)
 .debug_line    0x0000000000001577      0x2fe ../MasterUpgraded_bsp//newlib/nios2-elf/lib/libc.a(lib_a-wsetup.o)
 .debug_line    0x0000000000001875      0xdf0 ../MasterUpgraded_bsp//newlib/nios2-elf/lib/libc.a(lib_a-dtoa.o)
 .debug_line    0x0000000000002665      0x3ec ../MasterUpgraded_bsp//newlib/nios2-elf/lib/libc.a(lib_a-fflush.o)
 .debug_line    0x0000000000002a51      0x4cc ../MasterUpgraded_bsp//newlib/nios2-elf/lib/libc.a(lib_a-findfp.o)
 .debug_line    0x0000000000002f1d      0x361 ../MasterUpgraded_bsp//newlib/nios2-elf/lib/libc.a(lib_a-freer.o)
 .debug_line    0x000000000000327e      0x2fb ../MasterUpgraded_bsp//newlib/nios2-elf/lib/libc.a(lib_a-fwalk.o)
 .debug_line    0x0000000000003579      0x180 ../MasterUpgraded_bsp//newlib/nios2-elf/lib/libc.a(lib_a-impure.o)
 .debug_line    0x00000000000036f9      0x2b4 ../MasterUpgraded_bsp//newlib/nios2-elf/lib/libc.a(lib_a-localeconv.o)
 .debug_line    0x00000000000039ad      0x3af ../MasterUpgraded_bsp//newlib/nios2-elf/lib/libc.a(lib_a-locale.o)
 .debug_line    0x0000000000003d5c      0x3d0 ../MasterUpgraded_bsp//newlib/nios2-elf/lib/libc.a(lib_a-makebuf.o)
 .debug_line    0x000000000000412c      0x5c3 ../MasterUpgraded_bsp//newlib/nios2-elf/lib/libc.a(lib_a-mallocr.o)
 .debug_line    0x00000000000046ef      0x321 ../MasterUpgraded_bsp//newlib/nios2-elf/lib/libc.a(lib_a-mbtowc_r.o)
 .debug_line    0x0000000000004a10      0x28f ../MasterUpgraded_bsp//newlib/nios2-elf/lib/libc.a(lib_a-memchr.o)
 .debug_line    0x0000000000004c9f      0x329 ../MasterUpgraded_bsp//newlib/nios2-elf/lib/libc.a(lib_a-memcpy.o)
 .debug_line    0x0000000000004fc8      0x33a ../MasterUpgraded_bsp//newlib/nios2-elf/lib/libc.a(lib_a-memset.o)
 .debug_line    0x0000000000005302      0xf74 ../MasterUpgraded_bsp//newlib/nios2-elf/lib/libc.a(lib_a-mprec.o)
 .debug_line    0x0000000000006276      0x225 ../MasterUpgraded_bsp//newlib/nios2-elf/lib/libc.a(lib_a-sbrkr.o)
 .debug_line    0x000000000000649b      0x2f3 ../MasterUpgraded_bsp//newlib/nios2-elf/lib/libc.a(lib_a-stdio.o)
 .debug_line    0x000000000000678e      0x256 ../MasterUpgraded_bsp//newlib/nios2-elf/lib/libc.a(lib_a-strcmp.o)
 .debug_line    0x00000000000069e4      0x239 ../MasterUpgraded_bsp//newlib/nios2-elf/lib/libc.a(lib_a-strlen.o)
 .debug_line    0x0000000000006c1d      0xaff ../MasterUpgraded_bsp//newlib/nios2-elf/lib/libc.a(lib_a-vfiprintf.o)
 .debug_line    0x000000000000771c      0x30b ../MasterUpgraded_bsp//newlib/nios2-elf/lib/libc.a(lib_a-wctomb_r.o)
 .debug_line    0x0000000000007a27      0x227 ../MasterUpgraded_bsp//newlib/nios2-elf/lib/libc.a(lib_a-writer.o)
 .debug_line    0x0000000000007c4e      0x226 ../MasterUpgraded_bsp//newlib/nios2-elf/lib/libc.a(closer.o)
 .debug_line    0x0000000000007e74      0x24b ../MasterUpgraded_bsp//newlib/nios2-elf/lib/libc.a(lib_a-assert.o)
 .debug_line    0x00000000000080bf      0x1f9 ../MasterUpgraded_bsp//newlib/nios2-elf/lib/libc.a(lib_a-callocr.o)
 .debug_line    0x00000000000082b8      0x28b ../MasterUpgraded_bsp//newlib/nios2-elf/lib/libc.a(lib_a-ctype_.o)
 .debug_line    0x0000000000008543      0x2b7 ../MasterUpgraded_bsp//newlib/nios2-elf/lib/libc.a(lib_a-fclose.o)
 .debug_line    0x00000000000087fa      0x235 ../MasterUpgraded_bsp//newlib/nios2-elf/lib/libc.a(lib_a-fiprintf.o)
 .debug_line    0x0000000000008a2f      0x345 ../MasterUpgraded_bsp//newlib/nios2-elf/lib/libc.a(lib_a-fputwc.o)
 .debug_line    0x0000000000008d74      0x2db ../MasterUpgraded_bsp//newlib/nios2-elf/lib/libc.a(lib_a-fstatr.o)
 .debug_line    0x000000000000904f      0x4bb ../MasterUpgraded_bsp//newlib/nios2-elf/lib/libc.a(lib_a-fvwrite.o)
 .debug_line    0x000000000000950a      0x1ec ../MasterUpgraded_bsp//newlib/nios2-elf/lib/libc.a(lib_a-int_errno.o)
 .debug_line    0x00000000000096f6      0x227 ../MasterUpgraded_bsp//newlib/nios2-elf/lib/libc.a(lib_a-isattyr.o)
 .debug_line    0x000000000000991d      0x227 ../MasterUpgraded_bsp//newlib/nios2-elf/lib/libc.a(lib_a-lseekr.o)
 .debug_line    0x0000000000009b44      0x357 ../MasterUpgraded_bsp//newlib/nios2-elf/lib/libc.a(lib_a-memmove.o)
 .debug_line    0x0000000000009e9b      0x226 ../MasterUpgraded_bsp//newlib/nios2-elf/lib/libc.a(lib_a-readr.o)
 .debug_line    0x000000000000a0c1      0x420 ../MasterUpgraded_bsp//newlib/nios2-elf/lib/libc.a(lib_a-reallocr.o)
 .debug_line    0x000000000000a4e1      0x239 ../MasterUpgraded_bsp//newlib/nios2-elf/lib/libc.a(lib_a-vfiprintfr_1.o)
 .debug_line    0x000000000000a71a      0x2de ../MasterUpgraded_bsp//newlib/nios2-elf/lib/libc.a(lib_a-wbuf.o)
 .debug_line    0x000000000000a9f8      0x330 ../MasterUpgraded_bsp//newlib/nios2-elf/lib/libc.a(lib_a-wcrtomb.o)
 .debug_line    0x000000000000ad28      0x20a ../MasterUpgraded_bsp//newlib/nios2-elf/lib/libc.a(lib_a-abort.o)
 .debug_line    0x000000000000af32      0x3db ../MasterUpgraded_bsp//newlib/nios2-elf/lib/libc.a(lib_a-signal.o)
 .debug_line    0x000000000000b30d      0x243 ../MasterUpgraded_bsp//newlib/nios2-elf/lib/libc.a(lib_a-signalr.o)
 .debug_line    0x000000000000b550      0x373 /home/omaralkhatib/intelFPGA_lite/20.1/nios2eds/bin/gnu/H-x86_64-pc-linux-gnu/bin/../lib/gcc/nios2-elf/9.2.1/libgcc.a(_udivdi3.o)
 .debug_line    0x000000000000b8c3      0x3ca /home/omaralkhatib/intelFPGA_lite/20.1/nios2eds/bin/gnu/H-x86_64-pc-linux-gnu/bin/../lib/gcc/nios2-elf/9.2.1/libgcc.a(_umoddi3.o)
 .debug_line    0x000000000000bc8d      0x2f6 /home/omaralkhatib/intelFPGA_lite/20.1/nios2eds/bin/gnu/H-x86_64-pc-linux-gnu/bin/../lib/gcc/nios2-elf/9.2.1/libgcc.a(lib2-divmod.o)
 .debug_line    0x000000000000bf83      0xe4b /home/omaralkhatib/intelFPGA_lite/20.1/nios2eds/bin/gnu/H-x86_64-pc-linux-gnu/bin/../lib/gcc/nios2-elf/9.2.1/libgcc.a(adddf3.o)
 .debug_line    0x000000000000cdce      0xacb /home/omaralkhatib/intelFPGA_lite/20.1/nios2eds/bin/gnu/H-x86_64-pc-linux-gnu/bin/../lib/gcc/nios2-elf/9.2.1/libgcc.a(divdf3.o)
 .debug_line    0x000000000000d899      0x14f /home/omaralkhatib/intelFPGA_lite/20.1/nios2eds/bin/gnu/H-x86_64-pc-linux-gnu/bin/../lib/gcc/nios2-elf/9.2.1/libgcc.a(eqdf2.o)
 .debug_line    0x000000000000d9e8      0x1a7 /home/omaralkhatib/intelFPGA_lite/20.1/nios2eds/bin/gnu/H-x86_64-pc-linux-gnu/bin/../lib/gcc/nios2-elf/9.2.1/libgcc.a(gedf2.o)
 .debug_line    0x000000000000db8f      0x1a6 /home/omaralkhatib/intelFPGA_lite/20.1/nios2eds/bin/gnu/H-x86_64-pc-linux-gnu/bin/../lib/gcc/nios2-elf/9.2.1/libgcc.a(ledf2.o)
 .debug_line    0x000000000000dd35      0x999 /home/omaralkhatib/intelFPGA_lite/20.1/nios2eds/bin/gnu/H-x86_64-pc-linux-gnu/bin/../lib/gcc/nios2-elf/9.2.1/libgcc.a(muldf3.o)
 .debug_line    0x000000000000e6ce      0xe1e /home/omaralkhatib/intelFPGA_lite/20.1/nios2eds/bin/gnu/H-x86_64-pc-linux-gnu/bin/../lib/gcc/nios2-elf/9.2.1/libgcc.a(subdf3.o)
 .debug_line    0x000000000000f4ec      0x115 /home/omaralkhatib/intelFPGA_lite/20.1/nios2eds/bin/gnu/H-x86_64-pc-linux-gnu/bin/../lib/gcc/nios2-elf/9.2.1/libgcc.a(unorddf2.o)
 .debug_line    0x000000000000f601      0x164 /home/omaralkhatib/intelFPGA_lite/20.1/nios2eds/bin/gnu/H-x86_64-pc-linux-gnu/bin/../lib/gcc/nios2-elf/9.2.1/libgcc.a(fixdfsi.o)
 .debug_line    0x000000000000f765      0x1ec /home/omaralkhatib/intelFPGA_lite/20.1/nios2eds/bin/gnu/H-x86_64-pc-linux-gnu/bin/../lib/gcc/nios2-elf/9.2.1/libgcc.a(floatsidf.o)
 .debug_line    0x000000000000f951      0x1dc /home/omaralkhatib/intelFPGA_lite/20.1/nios2eds/bin/gnu/H-x86_64-pc-linux-gnu/bin/../lib/gcc/nios2-elf/9.2.1/libgcc.a(floatunsidf.o)
 .debug_line    0x000000000000fb2d       0xab /home/omaralkhatib/intelFPGA_lite/20.1/nios2eds/bin/gnu/H-x86_64-pc-linux-gnu/bin/../lib/gcc/nios2-elf/9.2.1/libgcc.a(_clz.o)
 .debug_line    0x000000000000fbd8       0xff /home/omaralkhatib/intelFPGA_lite/20.1/nios2eds/bin/gnu/H-x86_64-pc-linux-gnu/bin/../lib/gcc/nios2-elf/9.2.1/libgcc.a(_clzsi2.o)
 .debug_line    0x000000000000fcd7      0x267 ../MasterUpgraded_bsp//libhal_bsp.a(alt_close.o)
 .debug_line    0x000000000000ff3e      0x2d9 ../MasterUpgraded_bsp//libhal_bsp.a(alt_dev.o)
 .debug_line    0x0000000000010217      0x15b ../MasterUpgraded_bsp//libhal_bsp.a(alt_errno.o)
 .debug_line    0x0000000000010372      0x18f ../MasterUpgraded_bsp//libhal_bsp.a(alt_exit.o)
 .debug_line    0x0000000000010501      0x342 ../MasterUpgraded_bsp//libhal_bsp.a(alt_fstat.o)
 .debug_line    0x0000000000010843       0x4c ../MasterUpgraded_bsp//libhal_bsp.a(alt_getpid.o)
 .debug_line    0x000000000001088f      0x344 ../MasterUpgraded_bsp//libhal_bsp.a(alt_isatty.o)
 .debug_line    0x0000000000010bd3      0x1df ../MasterUpgraded_bsp//libhal_bsp.a(alt_kill.o)
 .debug_line    0x0000000000010db2      0x211 ../MasterUpgraded_bsp//libhal_bsp.a(alt_load.o)
 .debug_line    0x0000000000010fc3      0x24c ../MasterUpgraded_bsp//libhal_bsp.a(alt_lseek.o)
 .debug_line    0x000000000001120f      0x310 ../MasterUpgraded_bsp//libhal_bsp.a(alt_main.o)
 .debug_line    0x000000000001151f      0x14e ../MasterUpgraded_bsp//libhal_bsp.a(alt_malloc_lock.o)
 .debug_line    0x000000000001166d      0x373 ../MasterUpgraded_bsp//libhal_bsp.a(alt_read.o)
 .debug_line    0x00000000000119e0       0xb6 ../MasterUpgraded_bsp//libhal_bsp.a(alt_release_fd.o)
 .debug_line    0x0000000000011a96      0x1d9 ../MasterUpgraded_bsp//libhal_bsp.a(alt_sbrk.o)
 .debug_line    0x0000000000011c6f       0xd4 ../MasterUpgraded_bsp//libhal_bsp.a(alt_usleep.o)
 .debug_line    0x0000000000011d43      0x376 ../MasterUpgraded_bsp//libhal_bsp.a(alt_write.o)
 .debug_line    0x00000000000120b9      0x294 ../MasterUpgraded_bsp//libhal_bsp.a(alt_sys_init.o)
 .debug_line    0x000000000001234d      0x149 ../MasterUpgraded_bsp//libhal_bsp.a(altera_avalon_jtag_uart_fd.o)
 .debug_line    0x0000000000012496      0x3cf ../MasterUpgraded_bsp//libhal_bsp.a(altera_avalon_jtag_uart_init.o)
 .debug_line    0x0000000000012865      0x2c8 ../MasterUpgraded_bsp//libhal_bsp.a(altera_avalon_jtag_uart_ioctl.o)
 .debug_line    0x0000000000012b2d      0x345 ../MasterUpgraded_bsp//libhal_bsp.a(altera_avalon_jtag_uart_read.o)
 .debug_line    0x0000000000012e72      0x34a ../MasterUpgraded_bsp//libhal_bsp.a(altera_avalon_jtag_uart_write.o)
 .debug_line    0x00000000000131bc      0x23f ../MasterUpgraded_bsp//libhal_bsp.a(altera_avalon_timer_sc.o)
 .debug_line    0x00000000000133fb      0x2df ../MasterUpgraded_bsp//libhal_bsp.a(altera_up_avalon_accelerometer_spi.o)
 .debug_line    0x00000000000136da      0x242 ../MasterUpgraded_bsp//libhal_bsp.a(alt_alarm_start.o)
 .debug_line    0x000000000001391c      0x1e0 ../MasterUpgraded_bsp//libhal_bsp.a(alt_busy_sleep.o)
 .debug_line    0x0000000000013afc      0x1d9 ../MasterUpgraded_bsp//libhal_bsp.a(alt_dcache_flush_all.o)
 .debug_line    0x0000000000013cd5      0x210 ../MasterUpgraded_bsp//libhal_bsp.a(alt_dev_llist_insert.o)
 .debug_line    0x0000000000013ee5       0x66 ../MasterUpgraded_bsp//libhal_bsp.a(alt_do_ctors.o)
 .debug_line    0x0000000000013f4b       0x66 ../MasterUpgraded_bsp//libhal_bsp.a(alt_do_dtors.o)
 .debug_line    0x0000000000013fb1      0x1d4 ../MasterUpgraded_bsp//libhal_bsp.a(alt_find_dev.o)
 .debug_line    0x0000000000014185      0x1c1 ../MasterUpgraded_bsp//libhal_bsp.a(alt_icache_flush_all.o)
 .debug_line    0x0000000000014346      0x301 ../MasterUpgraded_bsp//libhal_bsp.a(alt_io_redirect.o)
 .debug_line    0x0000000000014647      0x2b7 ../MasterUpgraded_bsp//libhal_bsp.a(alt_irq_register.o)
 .debug_line    0x00000000000148fe       0x50 ../MasterUpgraded_bsp//libhal_bsp.a(alt_irq_vars.o)
 .debug_line    0x000000000001494e      0x2aa ../MasterUpgraded_bsp//libhal_bsp.a(alt_open.o)
 .debug_line    0x0000000000014bf8      0x26a ../MasterUpgraded_bsp//libhal_bsp.a(alt_tick.o)
 .debug_line    0x0000000000014e62      0x161 ../MasterUpgraded_bsp//libhal_bsp.a(altera_nios2_gen2_irq.o)
 .debug_line    0x0000000000014fc3      0x202 ../MasterUpgraded_bsp//libhal_bsp.a(alt_find_file.o)
 .debug_line    0x00000000000151c5      0x204 ../MasterUpgraded_bsp//libhal_bsp.a(alt_get_fd.o)
 .debug_line    0x00000000000153c9      0x20b ../MasterUpgraded_bsp//libhal_bsp.a(alt_icache_flush.o)
 .debug_line    0x00000000000155d4       0x6b ../MasterUpgraded_bsp//libhal_bsp.a(alt_irq_entry.o)
 .debug_line    0x000000000001563f      0x1de ../MasterUpgraded_bsp//libhal_bsp.a(alt_irq_handler.o)
 .debug_line    0x000000000001581d       0xb3 ../MasterUpgraded_bsp//libhal_bsp.a(alt_exception_entry.o)
 .debug_line    0x00000000000158d0       0xd9 ../MasterUpgraded_bsp//libhal_bsp.a(alt_instruction_exception_entry.o)
 .debug_line    0x00000000000159a9      0x20f ../MasterUpgraded_bsp//newlib/nios2-elf/lib/libc.a(lib_a-atexit.o)
 .debug_line    0x0000000000015bb8      0x218 ../MasterUpgraded_bsp//newlib/nios2-elf/lib/libc.a(lib_a-exit.o)
 .debug_line    0x0000000000015dd0      0x257 ../MasterUpgraded_bsp//newlib/nios2-elf/lib/libc.a(lib_a-memcmp.o)
 .debug_line    0x0000000000016027      0x26c ../MasterUpgraded_bsp//newlib/nios2-elf/lib/libc.a(lib_a-__atexit.o)
 .debug_line    0x0000000000016293      0x2b4 ../MasterUpgraded_bsp//newlib/nios2-elf/lib/libc.a(lib_a-__call_atexit.o)

.debug_frame    0x0000000000000000     0x2988
 *(.debug_frame)
 .debug_frame   0x0000000000000000       0x5c obj/default/float2_functionality.o
 .debug_frame   0x000000000000005c       0x60 ../MasterUpgraded_bsp//newlib/nios2-elf/lib/libc.a(lib_a-printf.o)
 .debug_frame   0x00000000000000bc      0x110 ../MasterUpgraded_bsp//newlib/nios2-elf/lib/libc.a(lib_a-vfprintf.o)
 .debug_frame   0x00000000000001cc       0x40 ../MasterUpgraded_bsp//newlib/nios2-elf/lib/libc.a(lib_a-wsetup.o)
 .debug_frame   0x000000000000020c       0x74 ../MasterUpgraded_bsp//newlib/nios2-elf/lib/libc.a(lib_a-dtoa.o)
 .debug_frame   0x0000000000000280       0xa0 ../MasterUpgraded_bsp//newlib/nios2-elf/lib/libc.a(lib_a-fflush.o)
 .debug_frame   0x0000000000000320      0x2a4 ../MasterUpgraded_bsp//newlib/nios2-elf/lib/libc.a(lib_a-findfp.o)
 .debug_frame   0x00000000000005c4       0x60 ../MasterUpgraded_bsp//newlib/nios2-elf/lib/libc.a(lib_a-freer.o)
 .debug_frame   0x0000000000000624       0x88 ../MasterUpgraded_bsp//newlib/nios2-elf/lib/libc.a(lib_a-fwalk.o)
 .debug_frame   0x00000000000006ac       0xfc ../MasterUpgraded_bsp//newlib/nios2-elf/lib/libc.a(lib_a-localeconv.o)
 .debug_frame   0x00000000000007a8       0xd4 ../MasterUpgraded_bsp//newlib/nios2-elf/lib/libc.a(lib_a-locale.o)
 .debug_frame   0x000000000000087c       0x6c ../MasterUpgraded_bsp//newlib/nios2-elf/lib/libc.a(lib_a-makebuf.o)
 .debug_frame   0x00000000000008e8       0x60 ../MasterUpgraded_bsp//newlib/nios2-elf/lib/libc.a(lib_a-mallocr.o)
 .debug_frame   0x0000000000000948       0xa8 ../MasterUpgraded_bsp//newlib/nios2-elf/lib/libc.a(lib_a-mbtowc_r.o)
 .debug_frame   0x00000000000009f0       0x34 ../MasterUpgraded_bsp//newlib/nios2-elf/lib/libc.a(lib_a-memchr.o)
 .debug_frame   0x0000000000000a24       0x34 ../MasterUpgraded_bsp//newlib/nios2-elf/lib/libc.a(lib_a-memcpy.o)
 .debug_frame   0x0000000000000a58       0x34 ../MasterUpgraded_bsp//newlib/nios2-elf/lib/libc.a(lib_a-memset.o)
 .debug_frame   0x0000000000000a8c      0x304 ../MasterUpgraded_bsp//newlib/nios2-elf/lib/libc.a(lib_a-mprec.o)
 .debug_frame   0x0000000000000d90       0x38 ../MasterUpgraded_bsp//newlib/nios2-elf/lib/libc.a(lib_a-sbrkr.o)
 .debug_frame   0x0000000000000dc8       0xe8 ../MasterUpgraded_bsp//newlib/nios2-elf/lib/libc.a(lib_a-stdio.o)
 .debug_frame   0x0000000000000eb0       0x34 ../MasterUpgraded_bsp//newlib/nios2-elf/lib/libc.a(lib_a-strcmp.o)
 .debug_frame   0x0000000000000ee4       0x34 ../MasterUpgraded_bsp//newlib/nios2-elf/lib/libc.a(lib_a-strlen.o)
 .debug_frame   0x0000000000000f18       0xe8 ../MasterUpgraded_bsp//newlib/nios2-elf/lib/libc.a(lib_a-vfiprintf.o)
 .debug_frame   0x0000000000001000       0xa8 ../MasterUpgraded_bsp//newlib/nios2-elf/lib/libc.a(lib_a-wctomb_r.o)
 .debug_frame   0x00000000000010a8       0x38 ../MasterUpgraded_bsp//newlib/nios2-elf/lib/libc.a(lib_a-writer.o)
 .debug_frame   0x00000000000010e0       0x38 ../MasterUpgraded_bsp//newlib/nios2-elf/lib/libc.a(closer.o)
 .debug_frame   0x0000000000001118       0x48 ../MasterUpgraded_bsp//newlib/nios2-elf/lib/libc.a(lib_a-assert.o)
 .debug_frame   0x0000000000001160       0x38 ../MasterUpgraded_bsp//newlib/nios2-elf/lib/libc.a(lib_a-callocr.o)
 .debug_frame   0x0000000000001198       0x68 ../MasterUpgraded_bsp//newlib/nios2-elf/lib/libc.a(lib_a-fclose.o)
 .debug_frame   0x0000000000001200       0x60 ../MasterUpgraded_bsp//newlib/nios2-elf/lib/libc.a(lib_a-fiprintf.o)
 .debug_frame   0x0000000000001260       0x88 ../MasterUpgraded_bsp//newlib/nios2-elf/lib/libc.a(lib_a-fputwc.o)
 .debug_frame   0x00000000000012e8       0x38 ../MasterUpgraded_bsp//newlib/nios2-elf/lib/libc.a(lib_a-fstatr.o)
 .debug_frame   0x0000000000001320       0x58 ../MasterUpgraded_bsp//newlib/nios2-elf/lib/libc.a(lib_a-fvwrite.o)
 .debug_frame   0x0000000000001378       0x38 ../MasterUpgraded_bsp//newlib/nios2-elf/lib/libc.a(lib_a-isattyr.o)
 .debug_frame   0x00000000000013b0       0x38 ../MasterUpgraded_bsp//newlib/nios2-elf/lib/libc.a(lib_a-lseekr.o)
 .debug_frame   0x00000000000013e8       0x34 ../MasterUpgraded_bsp//newlib/nios2-elf/lib/libc.a(lib_a-memmove.o)
 .debug_frame   0x000000000000141c       0x38 ../MasterUpgraded_bsp//newlib/nios2-elf/lib/libc.a(lib_a-readr.o)
 .debug_frame   0x0000000000001454       0x38 ../MasterUpgraded_bsp//newlib/nios2-elf/lib/libc.a(lib_a-reallocr.o)
 .debug_frame   0x000000000000148c       0x38 ../MasterUpgraded_bsp//newlib/nios2-elf/lib/libc.a(lib_a-vfiprintfr_1.o)
 .debug_frame   0x00000000000014c4       0x70 ../MasterUpgraded_bsp//newlib/nios2-elf/lib/libc.a(lib_a-wbuf.o)
 .debug_frame   0x0000000000001534       0xac ../MasterUpgraded_bsp//newlib/nios2-elf/lib/libc.a(lib_a-wcrtomb.o)
 .debug_frame   0x00000000000015e0       0x2c ../MasterUpgraded_bsp//newlib/nios2-elf/lib/libc.a(lib_a-abort.o)
 .debug_frame   0x000000000000160c      0x150 ../MasterUpgraded_bsp//newlib/nios2-elf/lib/libc.a(lib_a-signal.o)
 .debug_frame   0x000000000000175c       0x60 ../MasterUpgraded_bsp//newlib/nios2-elf/lib/libc.a(lib_a-signalr.o)
 .debug_frame   0x00000000000017bc       0x54 /home/omaralkhatib/intelFPGA_lite/20.1/nios2eds/bin/gnu/H-x86_64-pc-linux-gnu/bin/../lib/gcc/nios2-elf/9.2.1/libgcc.a(_udivdi3.o)
 .debug_frame   0x0000000000001810       0x54 /home/omaralkhatib/intelFPGA_lite/20.1/nios2eds/bin/gnu/H-x86_64-pc-linux-gnu/bin/../lib/gcc/nios2-elf/9.2.1/libgcc.a(_umoddi3.o)
 .debug_frame   0x0000000000001864       0x50 /home/omaralkhatib/intelFPGA_lite/20.1/nios2eds/bin/gnu/H-x86_64-pc-linux-gnu/bin/../lib/gcc/nios2-elf/9.2.1/libgcc.a(lib2-divmod.o)
 .debug_frame   0x00000000000018b4       0x40 /home/omaralkhatib/intelFPGA_lite/20.1/nios2eds/bin/gnu/H-x86_64-pc-linux-gnu/bin/../lib/gcc/nios2-elf/9.2.1/libgcc.a(adddf3.o)
 .debug_frame   0x00000000000018f4       0x58 /home/omaralkhatib/intelFPGA_lite/20.1/nios2eds/bin/gnu/H-x86_64-pc-linux-gnu/bin/../lib/gcc/nios2-elf/9.2.1/libgcc.a(divdf3.o)
 .debug_frame   0x000000000000194c       0x20 /home/omaralkhatib/intelFPGA_lite/20.1/nios2eds/bin/gnu/H-x86_64-pc-linux-gnu/bin/../lib/gcc/nios2-elf/9.2.1/libgcc.a(eqdf2.o)
 .debug_frame   0x000000000000196c       0x20 /home/omaralkhatib/intelFPGA_lite/20.1/nios2eds/bin/gnu/H-x86_64-pc-linux-gnu/bin/../lib/gcc/nios2-elf/9.2.1/libgcc.a(gedf2.o)
 .debug_frame   0x000000000000198c       0x20 /home/omaralkhatib/intelFPGA_lite/20.1/nios2eds/bin/gnu/H-x86_64-pc-linux-gnu/bin/../lib/gcc/nios2-elf/9.2.1/libgcc.a(ledf2.o)
 .debug_frame   0x00000000000019ac       0x54 /home/omaralkhatib/intelFPGA_lite/20.1/nios2eds/bin/gnu/H-x86_64-pc-linux-gnu/bin/../lib/gcc/nios2-elf/9.2.1/libgcc.a(muldf3.o)
 .debug_frame   0x0000000000001a00       0x44 /home/omaralkhatib/intelFPGA_lite/20.1/nios2eds/bin/gnu/H-x86_64-pc-linux-gnu/bin/../lib/gcc/nios2-elf/9.2.1/libgcc.a(subdf3.o)
 .debug_frame   0x0000000000001a44       0x20 /home/omaralkhatib/intelFPGA_lite/20.1/nios2eds/bin/gnu/H-x86_64-pc-linux-gnu/bin/../lib/gcc/nios2-elf/9.2.1/libgcc.a(unorddf2.o)
 .debug_frame   0x0000000000001a64       0x20 /home/omaralkhatib/intelFPGA_lite/20.1/nios2eds/bin/gnu/H-x86_64-pc-linux-gnu/bin/../lib/gcc/nios2-elf/9.2.1/libgcc.a(fixdfsi.o)
 .debug_frame   0x0000000000001a84       0x38 /home/omaralkhatib/intelFPGA_lite/20.1/nios2eds/bin/gnu/H-x86_64-pc-linux-gnu/bin/../lib/gcc/nios2-elf/9.2.1/libgcc.a(floatsidf.o)
 .debug_frame   0x0000000000001abc       0x34 /home/omaralkhatib/intelFPGA_lite/20.1/nios2eds/bin/gnu/H-x86_64-pc-linux-gnu/bin/../lib/gcc/nios2-elf/9.2.1/libgcc.a(floatunsidf.o)
 .debug_frame   0x0000000000001af0       0x20 /home/omaralkhatib/intelFPGA_lite/20.1/nios2eds/bin/gnu/H-x86_64-pc-linux-gnu/bin/../lib/gcc/nios2-elf/9.2.1/libgcc.a(_clzsi2.o)
 .debug_frame   0x0000000000001b10       0x60 ../MasterUpgraded_bsp//libhal_bsp.a(alt_close.o)
 .debug_frame   0x0000000000001b70       0x34 ../MasterUpgraded_bsp//libhal_bsp.a(alt_dev.o)
 .debug_frame   0x0000000000001ba4       0x2c ../MasterUpgraded_bsp//libhal_bsp.a(alt_exit.o)
 .debug_frame   0x0000000000001bd0       0x60 ../MasterUpgraded_bsp//libhal_bsp.a(alt_fstat.o)
 .debug_frame   0x0000000000001c30       0x34 ../MasterUpgraded_bsp//libhal_bsp.a(alt_getpid.o)
 .debug_frame   0x0000000000001c64       0x60 ../MasterUpgraded_bsp//libhal_bsp.a(alt_isatty.o)
 .debug_frame   0x0000000000001cc4       0x60 ../MasterUpgraded_bsp//libhal_bsp.a(alt_kill.o)
 .debug_frame   0x0000000000001d24       0x5c ../MasterUpgraded_bsp//libhal_bsp.a(alt_load.o)
 .debug_frame   0x0000000000001d80       0x60 ../MasterUpgraded_bsp//libhal_bsp.a(alt_lseek.o)
 .debug_frame   0x0000000000001de0       0x2c ../MasterUpgraded_bsp//libhal_bsp.a(alt_main.o)
 .debug_frame   0x0000000000001e0c       0x58 ../MasterUpgraded_bsp//libhal_bsp.a(alt_malloc_lock.o)
 .debug_frame   0x0000000000001e64       0x60 ../MasterUpgraded_bsp//libhal_bsp.a(alt_read.o)
 .debug_frame   0x0000000000001ec4       0x34 ../MasterUpgraded_bsp//libhal_bsp.a(alt_release_fd.o)
 .debug_frame   0x0000000000001ef8       0x34 ../MasterUpgraded_bsp//libhal_bsp.a(alt_sbrk.o)
 .debug_frame   0x0000000000001f2c       0x38 ../MasterUpgraded_bsp//libhal_bsp.a(alt_usleep.o)
 .debug_frame   0x0000000000001f64       0x60 ../MasterUpgraded_bsp//libhal_bsp.a(alt_write.o)
 .debug_frame   0x0000000000001fc4       0x88 ../MasterUpgraded_bsp//libhal_bsp.a(alt_sys_init.o)
 .debug_frame   0x000000000000204c       0xb0 ../MasterUpgraded_bsp//libhal_bsp.a(altera_avalon_jtag_uart_fd.o)
 .debug_frame   0x00000000000020fc       0xa4 ../MasterUpgraded_bsp//libhal_bsp.a(altera_avalon_jtag_uart_init.o)
 .debug_frame   0x00000000000021a0       0x34 ../MasterUpgraded_bsp//libhal_bsp.a(altera_avalon_jtag_uart_ioctl.o)
 .debug_frame   0x00000000000021d4       0x38 ../MasterUpgraded_bsp//libhal_bsp.a(altera_avalon_jtag_uart_read.o)
 .debug_frame   0x000000000000220c       0x38 ../MasterUpgraded_bsp//libhal_bsp.a(altera_avalon_jtag_uart_write.o)
 .debug_frame   0x0000000000002244       0x60 ../MasterUpgraded_bsp//libhal_bsp.a(altera_avalon_timer_sc.o)
 .debug_frame   0x00000000000022a4      0x110 ../MasterUpgraded_bsp//libhal_bsp.a(altera_up_avalon_accelerometer_spi.o)
 .debug_frame   0x00000000000023b4       0x34 ../MasterUpgraded_bsp//libhal_bsp.a(alt_alarm_start.o)
 .debug_frame   0x00000000000023e8       0x38 ../MasterUpgraded_bsp//libhal_bsp.a(alt_busy_sleep.o)
 .debug_frame   0x0000000000002420       0x34 ../MasterUpgraded_bsp//libhal_bsp.a(alt_dcache_flush_all.o)
 .debug_frame   0x0000000000002454       0x60 ../MasterUpgraded_bsp//libhal_bsp.a(alt_dev_llist_insert.o)
 .debug_frame   0x00000000000024b4       0x38 ../MasterUpgraded_bsp//libhal_bsp.a(alt_do_ctors.o)
 .debug_frame   0x00000000000024ec       0x38 ../MasterUpgraded_bsp//libhal_bsp.a(alt_do_dtors.o)
 .debug_frame   0x0000000000002524       0x38 ../MasterUpgraded_bsp//libhal_bsp.a(alt_find_dev.o)
 .debug_frame   0x000000000000255c       0x38 ../MasterUpgraded_bsp//libhal_bsp.a(alt_icache_flush_all.o)
 .debug_frame   0x0000000000002594       0x60 ../MasterUpgraded_bsp//libhal_bsp.a(alt_io_redirect.o)
 .debug_frame   0x00000000000025f4       0x34 ../MasterUpgraded_bsp//libhal_bsp.a(alt_irq_register.o)
 .debug_frame   0x0000000000002628       0x84 ../MasterUpgraded_bsp//libhal_bsp.a(alt_open.o)
 .debug_frame   0x00000000000026ac       0x5c ../MasterUpgraded_bsp//libhal_bsp.a(alt_tick.o)
 .debug_frame   0x0000000000002708       0x34 ../MasterUpgraded_bsp//libhal_bsp.a(altera_nios2_gen2_irq.o)
 .debug_frame   0x000000000000273c       0x38 ../MasterUpgraded_bsp//libhal_bsp.a(alt_find_file.o)
 .debug_frame   0x0000000000002774       0x34 ../MasterUpgraded_bsp//libhal_bsp.a(alt_get_fd.o)
 .debug_frame   0x00000000000027a8       0x34 ../MasterUpgraded_bsp//libhal_bsp.a(alt_icache_flush.o)
 .debug_frame   0x00000000000027dc       0x38 ../MasterUpgraded_bsp//libhal_bsp.a(alt_irq_handler.o)
 .debug_frame   0x0000000000002814       0x5c ../MasterUpgraded_bsp//libhal_bsp.a(alt_instruction_exception_entry.o)
 .debug_frame   0x0000000000002870       0x38 ../MasterUpgraded_bsp//newlib/nios2-elf/lib/libc.a(lib_a-atexit.o)
 .debug_frame   0x00000000000028a8       0x2c ../MasterUpgraded_bsp//newlib/nios2-elf/lib/libc.a(lib_a-exit.o)
 .debug_frame   0x00000000000028d4       0x34 ../MasterUpgraded_bsp//newlib/nios2-elf/lib/libc.a(lib_a-memcmp.o)
 .debug_frame   0x0000000000002908       0x38 ../MasterUpgraded_bsp//newlib/nios2-elf/lib/libc.a(lib_a-__atexit.o)
 .debug_frame   0x0000000000002940       0x48 ../MasterUpgraded_bsp//newlib/nios2-elf/lib/libc.a(lib_a-__call_atexit.o)

.debug_str      0x0000000000000000     0x4d00
 *(.debug_str)
 .debug_str     0x0000000000000000       0x8c ../MasterUpgraded_bsp//obj/HAL/src/crt0.o
 .debug_str     0x000000000000008c      0x70f obj/default/float2_functionality.o
                                        0x819 (size before relaxing)
 .debug_str     0x000000000000079b      0x3e8 ../MasterUpgraded_bsp//newlib/nios2-elf/lib/libc.a(lib_a-printf.o)
                                        0x8ac (size before relaxing)
 .debug_str     0x0000000000000b83      0x476 ../MasterUpgraded_bsp//newlib/nios2-elf/lib/libc.a(lib_a-vfprintf.o)
                                        0xe21 (size before relaxing)
 .debug_str     0x0000000000000ff9       0x70 ../MasterUpgraded_bsp//newlib/nios2-elf/lib/libc.a(lib_a-wsetup.o)
                                        0x8aa (size before relaxing)
 .debug_str     0x0000000000001069      0x1f0 ../MasterUpgraded_bsp//newlib/nios2-elf/lib/libc.a(lib_a-dtoa.o)
                                        0xbce (size before relaxing)
 .debug_str     0x0000000000001259       0x91 ../MasterUpgraded_bsp//newlib/nios2-elf/lib/libc.a(lib_a-fflush.o)
                                        0x8d8 (size before relaxing)
 .debug_str     0x00000000000012ea      0x19d ../MasterUpgraded_bsp//newlib/nios2-elf/lib/libc.a(lib_a-findfp.o)
                                        0x9e0 (size before relaxing)
 .debug_str     0x0000000000001487      0x1b4 ../MasterUpgraded_bsp//newlib/nios2-elf/lib/libc.a(lib_a-freer.o)
                                        0x8fe (size before relaxing)
 .debug_str     0x000000000000163b       0x86 ../MasterUpgraded_bsp//newlib/nios2-elf/lib/libc.a(lib_a-fwalk.o)
                                        0x8b9 (size before relaxing)
 .debug_str     0x00000000000016c1      0x113 ../MasterUpgraded_bsp//newlib/nios2-elf/lib/libc.a(lib_a-impure.o)
                                        0x743 (size before relaxing)
 .debug_str     0x00000000000017d4      0x17d ../MasterUpgraded_bsp//newlib/nios2-elf/lib/libc.a(lib_a-localeconv.o)
                                        0xad5 (size before relaxing)
 .debug_str     0x0000000000001951       0xb6 ../MasterUpgraded_bsp//newlib/nios2-elf/lib/libc.a(lib_a-locale.o)
                                        0xb17 (size before relaxing)
 .debug_str     0x0000000000001a07      0x18c ../MasterUpgraded_bsp//newlib/nios2-elf/lib/libc.a(lib_a-makebuf.o)
                                        0xa1d (size before relaxing)
 .debug_str     0x0000000000001b93       0xc0 ../MasterUpgraded_bsp//newlib/nios2-elf/lib/libc.a(lib_a-mallocr.o)
                                        0x97d (size before relaxing)
 .debug_str     0x0000000000001c53       0x86 ../MasterUpgraded_bsp//newlib/nios2-elf/lib/libc.a(lib_a-mbtowc_r.o)
                                        0xae6 (size before relaxing)
 .debug_str     0x0000000000001cd9      0x11e ../MasterUpgraded_bsp//newlib/nios2-elf/lib/libc.a(lib_a-memchr.o)
                                        0x761 (size before relaxing)
 .debug_str     0x0000000000001df7       0x93 ../MasterUpgraded_bsp//newlib/nios2-elf/lib/libc.a(lib_a-memcpy.o)
                                        0xa83 (size before relaxing)
 .debug_str     0x0000000000001e8a       0x80 ../MasterUpgraded_bsp//newlib/nios2-elf/lib/libc.a(lib_a-memset.o)
                                        0xa70 (size before relaxing)
 .debug_str     0x0000000000001f0a      0x111 ../MasterUpgraded_bsp//newlib/nios2-elf/lib/libc.a(lib_a-mprec.o)
                                        0xbca (size before relaxing)
 .debug_str     0x000000000000201b       0x7f ../MasterUpgraded_bsp//newlib/nios2-elf/lib/libc.a(lib_a-sbrkr.o)
                                        0x785 (size before relaxing)
 .debug_str     0x000000000000209a       0xa0 ../MasterUpgraded_bsp//newlib/nios2-elf/lib/libc.a(lib_a-stdio.o)
                                        0x8ea (size before relaxing)
 .debug_str     0x000000000000213a       0x6c ../MasterUpgraded_bsp//newlib/nios2-elf/lib/libc.a(lib_a-strcmp.o)
                                        0x740 (size before relaxing)
 .debug_str     0x00000000000021a6       0x6c ../MasterUpgraded_bsp//newlib/nios2-elf/lib/libc.a(lib_a-strlen.o)
                                        0x75a (size before relaxing)
 .debug_str     0x0000000000002212       0x38 ../MasterUpgraded_bsp//newlib/nios2-elf/lib/libc.a(lib_a-vfiprintf.o)
                                        0xd93 (size before relaxing)
 .debug_str     0x000000000000224a       0x87 ../MasterUpgraded_bsp//newlib/nios2-elf/lib/libc.a(lib_a-wctomb_r.o)
                                        0xaed (size before relaxing)
 .debug_str     0x00000000000022d1       0x6d ../MasterUpgraded_bsp//newlib/nios2-elf/lib/libc.a(lib_a-writer.o)
                                        0x783 (size before relaxing)
 .debug_str     0x000000000000233e       0x6d ../MasterUpgraded_bsp//newlib/nios2-elf/lib/libc.a(closer.o)
                                        0x773 (size before relaxing)
 .debug_str     0x00000000000023ab       0x8c ../MasterUpgraded_bsp//newlib/nios2-elf/lib/libc.a(lib_a-assert.o)
                                        0x774 (size before relaxing)
 .debug_str     0x0000000000002437       0x19 ../MasterUpgraded_bsp//newlib/nios2-elf/lib/libc.a(lib_a-callocr.o)
                                        0x8be (size before relaxing)
 .debug_str     0x0000000000002450      0x107 ../MasterUpgraded_bsp//newlib/nios2-elf/lib/libc.a(lib_a-ctype_.o)
                                        0xa64 (size before relaxing)
 .debug_str     0x0000000000002557       0x75 ../MasterUpgraded_bsp//newlib/nios2-elf/lib/libc.a(lib_a-fclose.o)
                                        0x89d (size before relaxing)
 .debug_str     0x00000000000025cc       0x7b ../MasterUpgraded_bsp//newlib/nios2-elf/lib/libc.a(lib_a-fiprintf.o)
                                        0x77c (size before relaxing)
 .debug_str     0x0000000000002647       0x77 ../MasterUpgraded_bsp//newlib/nios2-elf/lib/libc.a(lib_a-fputwc.o)
                                        0x8cd (size before relaxing)
 .debug_str     0x00000000000026be       0x73 ../MasterUpgraded_bsp//newlib/nios2-elf/lib/libc.a(lib_a-fstatr.o)
                                        0x8da (size before relaxing)
 .debug_str     0x0000000000002731       0x90 ../MasterUpgraded_bsp//newlib/nios2-elf/lib/libc.a(lib_a-fvwrite.o)
                                        0x8fd (size before relaxing)
 .debug_str     0x00000000000027c1       0x67 ../MasterUpgraded_bsp//newlib/nios2-elf/lib/libc.a(lib_a-int_errno.o)
                                        0x74a (size before relaxing)
 .debug_str     0x0000000000002828       0x6f ../MasterUpgraded_bsp//newlib/nios2-elf/lib/libc.a(lib_a-isattyr.o)
                                        0x775 (size before relaxing)
 .debug_str     0x0000000000002897       0x6d ../MasterUpgraded_bsp//newlib/nios2-elf/lib/libc.a(lib_a-lseekr.o)
                                        0x77a (size before relaxing)
 .debug_str     0x0000000000002904       0x77 ../MasterUpgraded_bsp//newlib/nios2-elf/lib/libc.a(lib_a-memmove.o)
                                        0xa8f (size before relaxing)
 .debug_str     0x000000000000297b       0x6b ../MasterUpgraded_bsp//newlib/nios2-elf/lib/libc.a(lib_a-readr.o)
                                        0x781 (size before relaxing)
 .debug_str     0x00000000000029e6       0x59 ../MasterUpgraded_bsp//newlib/nios2-elf/lib/libc.a(lib_a-reallocr.o)
                                        0x92a (size before relaxing)
 .debug_str     0x0000000000002a3f       0x77 ../MasterUpgraded_bsp//newlib/nios2-elf/lib/libc.a(lib_a-vfiprintfr_1.o)
                                        0x8d0 (size before relaxing)
 .debug_str     0x0000000000002ab6       0x74 ../MasterUpgraded_bsp//newlib/nios2-elf/lib/libc.a(lib_a-wbuf.o)
                                        0x8ae (size before relaxing)
 .debug_str     0x0000000000002b2a       0x80 ../MasterUpgraded_bsp//newlib/nios2-elf/lib/libc.a(lib_a-wcrtomb.o)
                                        0xae0 (size before relaxing)
 .debug_str     0x0000000000002baa       0x6a ../MasterUpgraded_bsp//newlib/nios2-elf/lib/libc.a(lib_a-abort.o)
                                        0x775 (size before relaxing)
 .debug_str     0x0000000000002c14      0x163 ../MasterUpgraded_bsp//newlib/nios2-elf/lib/libc.a(lib_a-signal.o)
                                        0x7ca (size before relaxing)
 .debug_str     0x0000000000002d77       0x77 ../MasterUpgraded_bsp//newlib/nios2-elf/lib/libc.a(lib_a-signalr.o)
                                        0x77d (size before relaxing)
 .debug_str     0x0000000000002dee      0x262 /home/omaralkhatib/intelFPGA_lite/20.1/nios2eds/bin/gnu/H-x86_64-pc-linux-gnu/bin/../lib/gcc/nios2-elf/9.2.1/libgcc.a(_udivdi3.o)
                                        0x2f7 (size before relaxing)
 .debug_str     0x0000000000003050        0xa /home/omaralkhatib/intelFPGA_lite/20.1/nios2eds/bin/gnu/H-x86_64-pc-linux-gnu/bin/../lib/gcc/nios2-elf/9.2.1/libgcc.a(_umoddi3.o)
                                        0x2f7 (size before relaxing)
 .debug_str     0x000000000000305a       0xfb /home/omaralkhatib/intelFPGA_lite/20.1/nios2eds/bin/gnu/H-x86_64-pc-linux-gnu/bin/../lib/gcc/nios2-elf/9.2.1/libgcc.a(lib2-divmod.o)
                                        0x1c5 (size before relaxing)
 .debug_str     0x0000000000003155      0x183 /home/omaralkhatib/intelFPGA_lite/20.1/nios2eds/bin/gnu/H-x86_64-pc-linux-gnu/bin/../lib/gcc/nios2-elf/9.2.1/libgcc.a(adddf3.o)
                                        0x319 (size before relaxing)
 .debug_str     0x00000000000032d8      0x19a /home/omaralkhatib/intelFPGA_lite/20.1/nios2eds/bin/gnu/H-x86_64-pc-linux-gnu/bin/../lib/gcc/nios2-elf/9.2.1/libgcc.a(divdf3.o)
                                        0x3db (size before relaxing)
 .debug_str     0x0000000000003472       0x47 /home/omaralkhatib/intelFPGA_lite/20.1/nios2eds/bin/gnu/H-x86_64-pc-linux-gnu/bin/../lib/gcc/nios2-elf/9.2.1/libgcc.a(eqdf2.o)
                                        0x225 (size before relaxing)
 .debug_str     0x00000000000034b9       0x5a /home/omaralkhatib/intelFPGA_lite/20.1/nios2eds/bin/gnu/H-x86_64-pc-linux-gnu/bin/../lib/gcc/nios2-elf/9.2.1/libgcc.a(gedf2.o)
                                        0x249 (size before relaxing)
 .debug_str     0x0000000000003513       0x36 /home/omaralkhatib/intelFPGA_lite/20.1/nios2eds/bin/gnu/H-x86_64-pc-linux-gnu/bin/../lib/gcc/nios2-elf/9.2.1/libgcc.a(ledf2.o)
                                        0x249 (size before relaxing)
 .debug_str     0x0000000000003549      0x15d /home/omaralkhatib/intelFPGA_lite/20.1/nios2eds/bin/gnu/H-x86_64-pc-linux-gnu/bin/../lib/gcc/nios2-elf/9.2.1/libgcc.a(muldf3.o)
                                        0x433 (size before relaxing)
 .debug_str     0x00000000000036a6       0x38 /home/omaralkhatib/intelFPGA_lite/20.1/nios2eds/bin/gnu/H-x86_64-pc-linux-gnu/bin/../lib/gcc/nios2-elf/9.2.1/libgcc.a(subdf3.o)
                                        0x319 (size before relaxing)
 .debug_str     0x00000000000036de       0x3c /home/omaralkhatib/intelFPGA_lite/20.1/nios2eds/bin/gnu/H-x86_64-pc-linux-gnu/bin/../lib/gcc/nios2-elf/9.2.1/libgcc.a(unorddf2.o)
                                        0x22b (size before relaxing)
 .debug_str     0x000000000000371a       0x4d /home/omaralkhatib/intelFPGA_lite/20.1/nios2eds/bin/gnu/H-x86_64-pc-linux-gnu/bin/../lib/gcc/nios2-elf/9.2.1/libgcc.a(fixdfsi.o)
                                        0x230 (size before relaxing)
 .debug_str     0x0000000000003767       0x6b /home/omaralkhatib/intelFPGA_lite/20.1/nios2eds/bin/gnu/H-x86_64-pc-linux-gnu/bin/../lib/gcc/nios2-elf/9.2.1/libgcc.a(floatsidf.o)
                                        0x2cb (size before relaxing)
 .debug_str     0x00000000000037d2       0x42 /home/omaralkhatib/intelFPGA_lite/20.1/nios2eds/bin/gnu/H-x86_64-pc-linux-gnu/bin/../lib/gcc/nios2-elf/9.2.1/libgcc.a(floatunsidf.o)
                                        0x2c8 (size before relaxing)
 .debug_str     0x0000000000003814      0x23e /home/omaralkhatib/intelFPGA_lite/20.1/nios2eds/bin/gnu/H-x86_64-pc-linux-gnu/bin/../lib/gcc/nios2-elf/9.2.1/libgcc.a(_clz.o)
 .debug_str     0x0000000000003814        0x9 /home/omaralkhatib/intelFPGA_lite/20.1/nios2eds/bin/gnu/H-x86_64-pc-linux-gnu/bin/../lib/gcc/nios2-elf/9.2.1/libgcc.a(_clzsi2.o)
                                        0x25b (size before relaxing)
 .debug_str     0x000000000000381d       0x68 ../MasterUpgraded_bsp//libhal_bsp.a(alt_close.o)
                                        0x7a5 (size before relaxing)
 .debug_str     0x0000000000003885       0x32 ../MasterUpgraded_bsp//libhal_bsp.a(alt_dev.o)
                                        0x8f5 (size before relaxing)
 .debug_str     0x00000000000038b7       0x14 ../MasterUpgraded_bsp//libhal_bsp.a(alt_errno.o)
                                        0x694 (size before relaxing)
 .debug_str     0x00000000000038cb       0x2a ../MasterUpgraded_bsp//libhal_bsp.a(alt_exit.o)
                                        0x6a0 (size before relaxing)
 .debug_str     0x00000000000038f5       0x14 ../MasterUpgraded_bsp//libhal_bsp.a(alt_fstat.o)
                                        0x8cd (size before relaxing)
 .debug_str     0x0000000000003909       0x1c ../MasterUpgraded_bsp//libhal_bsp.a(alt_getpid.o)
                                        0x201 (size before relaxing)
 .debug_str     0x0000000000003925       0x1c ../MasterUpgraded_bsp//libhal_bsp.a(alt_isatty.o)
                                        0x8d5 (size before relaxing)
 .debug_str     0x0000000000003941       0x1f ../MasterUpgraded_bsp//libhal_bsp.a(alt_kill.o)
                                        0x6da (size before relaxing)
 .debug_str     0x0000000000003960       0xe9 ../MasterUpgraded_bsp//libhal_bsp.a(alt_load.o)
                                        0x754 (size before relaxing)
 .debug_str     0x0000000000003a49       0x14 ../MasterUpgraded_bsp//libhal_bsp.a(alt_lseek.o)
                                        0x7ac (size before relaxing)
 .debug_str     0x0000000000003a5d       0x44 ../MasterUpgraded_bsp//libhal_bsp.a(alt_main.o)
                                        0x918 (size before relaxing)
 .debug_str     0x0000000000003aa1       0x38 ../MasterUpgraded_bsp//libhal_bsp.a(alt_malloc_lock.o)
                                        0x691 (size before relaxing)
 .debug_str     0x0000000000003ad9       0x13 ../MasterUpgraded_bsp//libhal_bsp.a(alt_read.o)
                                        0x905 (size before relaxing)
 .debug_str     0x0000000000003aec       0x28 ../MasterUpgraded_bsp//libhal_bsp.a(alt_release_fd.o)
                                        0x353 (size before relaxing)
 .debug_str     0x0000000000003b14       0x98 ../MasterUpgraded_bsp//libhal_bsp.a(alt_sbrk.o)
                                        0x723 (size before relaxing)
 .debug_str     0x0000000000003bac       0x29 ../MasterUpgraded_bsp//libhal_bsp.a(alt_usleep.o)
                                        0x2db (size before relaxing)
 .debug_str     0x0000000000003bd5       0x14 ../MasterUpgraded_bsp//libhal_bsp.a(alt_write.o)
                                        0x906 (size before relaxing)
 .debug_str     0x0000000000003be9      0x18d ../MasterUpgraded_bsp//libhal_bsp.a(alt_sys_init.o)
                                        0x921 (size before relaxing)
 .debug_str     0x0000000000003d76       0xac ../MasterUpgraded_bsp//libhal_bsp.a(altera_avalon_jtag_uart_fd.o)
                                        0x4ff (size before relaxing)
 .debug_str     0x0000000000003e22       0xd1 ../MasterUpgraded_bsp//libhal_bsp.a(altera_avalon_jtag_uart_init.o)
                                        0x8a5 (size before relaxing)
 .debug_str     0x0000000000003ef3       0x4a ../MasterUpgraded_bsp//libhal_bsp.a(altera_avalon_jtag_uart_ioctl.o)
                                        0x800 (size before relaxing)
 .debug_str     0x0000000000003f3d       0x48 ../MasterUpgraded_bsp//libhal_bsp.a(altera_avalon_jtag_uart_read.o)
                                        0x855 (size before relaxing)
 .debug_str     0x0000000000003f85       0x4a ../MasterUpgraded_bsp//libhal_bsp.a(altera_avalon_jtag_uart_write.o)
                                        0x856 (size before relaxing)
 .debug_str     0x0000000000003fcf       0x6d ../MasterUpgraded_bsp//libhal_bsp.a(altera_avalon_timer_sc.o)
                                        0x7d4 (size before relaxing)
 .debug_str     0x000000000000403c      0x138 ../MasterUpgraded_bsp//libhal_bsp.a(altera_up_avalon_accelerometer_spi.o)
                                        0x8b3 (size before relaxing)
 .debug_str     0x0000000000004174       0x4a ../MasterUpgraded_bsp//libhal_bsp.a(alt_alarm_start.o)
                                        0x7cd (size before relaxing)
 .debug_str     0x00000000000041be       0x42 ../MasterUpgraded_bsp//libhal_bsp.a(alt_busy_sleep.o)
                                        0x6a3 (size before relaxing)
 .debug_str     0x0000000000004200       0x34 ../MasterUpgraded_bsp//libhal_bsp.a(alt_dcache_flush_all.o)
                                        0x697 (size before relaxing)
 .debug_str     0x0000000000004234       0x34 ../MasterUpgraded_bsp//libhal_bsp.a(alt_dev_llist_insert.o)
                                        0x71b (size before relaxing)
 .debug_str     0x0000000000004268       0x48 ../MasterUpgraded_bsp//libhal_bsp.a(alt_do_ctors.o)
                                        0x232 (size before relaxing)
 .debug_str     0x00000000000042b0       0x4c ../MasterUpgraded_bsp//libhal_bsp.a(alt_do_dtors.o)
                                        0x231 (size before relaxing)
 .debug_str     0x00000000000042fc       0x24 ../MasterUpgraded_bsp//libhal_bsp.a(alt_find_dev.o)
                                        0x747 (size before relaxing)
 .debug_str     0x0000000000004320       0x34 ../MasterUpgraded_bsp//libhal_bsp.a(alt_icache_flush_all.o)
                                        0x697 (size before relaxing)
 .debug_str     0x0000000000004354       0x56 ../MasterUpgraded_bsp//libhal_bsp.a(alt_io_redirect.o)
                                        0x90d (size before relaxing)
 .debug_str     0x00000000000043aa       0x7f ../MasterUpgraded_bsp//libhal_bsp.a(alt_irq_register.o)
                                        0x745 (size before relaxing)
 .debug_str     0x0000000000004429       0x29 ../MasterUpgraded_bsp//libhal_bsp.a(alt_irq_vars.o)
                                        0x29c (size before relaxing)
 .debug_str     0x0000000000004452       0x29 ../MasterUpgraded_bsp//libhal_bsp.a(alt_open.o)
                                        0x7a6 (size before relaxing)
 .debug_str     0x000000000000447b       0x4a ../MasterUpgraded_bsp//libhal_bsp.a(alt_tick.o)
                                        0x7a1 (size before relaxing)
 .debug_str     0x00000000000044c5       0x3b ../MasterUpgraded_bsp//libhal_bsp.a(altera_nios2_gen2_irq.o)
                                        0x6ab (size before relaxing)
 .debug_str     0x0000000000004500       0x26 ../MasterUpgraded_bsp//libhal_bsp.a(alt_find_file.o)
                                        0x749 (size before relaxing)
 .debug_str     0x0000000000004526       0x30 ../MasterUpgraded_bsp//libhal_bsp.a(alt_get_fd.o)
                                        0x777 (size before relaxing)
 .debug_str     0x0000000000004556       0x2c ../MasterUpgraded_bsp//libhal_bsp.a(alt_icache_flush.o)
                                        0x69d (size before relaxing)
 .debug_str     0x0000000000004582       0x18 ../MasterUpgraded_bsp//libhal_bsp.a(alt_irq_entry.o)
                                         0x95 (size before relaxing)
 .debug_str     0x000000000000459a       0x3a ../MasterUpgraded_bsp//libhal_bsp.a(alt_irq_handler.o)
                                        0x6e6 (size before relaxing)
 .debug_str     0x00000000000045d4       0x1e ../MasterUpgraded_bsp//libhal_bsp.a(alt_exception_entry.o)
                                         0x9b (size before relaxing)
 .debug_str     0x00000000000045f2      0x48b ../MasterUpgraded_bsp//libhal_bsp.a(alt_instruction_exception_entry.o)
                                        0x702 (size before relaxing)
 .debug_str     0x0000000000004a7d       0x95 ../MasterUpgraded_bsp//newlib/nios2-elf/lib/libc.a(lib_a-atexit.o)
                                        0x77a (size before relaxing)
 .debug_str     0x0000000000004b12       0x63 ../MasterUpgraded_bsp//newlib/nios2-elf/lib/libc.a(lib_a-exit.o)
                                        0x778 (size before relaxing)
 .debug_str     0x0000000000004b75       0x6c ../MasterUpgraded_bsp//newlib/nios2-elf/lib/libc.a(lib_a-memcmp.o)
                                        0x747 (size before relaxing)
 .debug_str     0x0000000000004be1       0x94 ../MasterUpgraded_bsp//newlib/nios2-elf/lib/libc.a(lib_a-__atexit.o)
                                        0x7ac (size before relaxing)
 .debug_str     0x0000000000004c75       0x8b ../MasterUpgraded_bsp//newlib/nios2-elf/lib/libc.a(lib_a-__call_atexit.o)
                                        0x78c (size before relaxing)

.debug_loc      0x0000000000000000     0xad51
 *(.debug_loc)
 .debug_loc     0x0000000000000000     0x14a5 /home/omaralkhatib/intelFPGA_lite/20.1/nios2eds/bin/gnu/H-x86_64-pc-linux-gnu/bin/../lib/gcc/nios2-elf/9.2.1/libgcc.a(_udivdi3.o)
 .debug_loc     0x00000000000014a5     0x1185 /home/omaralkhatib/intelFPGA_lite/20.1/nios2eds/bin/gnu/H-x86_64-pc-linux-gnu/bin/../lib/gcc/nios2-elf/9.2.1/libgcc.a(_umoddi3.o)
 .debug_loc     0x000000000000262a      0x5d0 /home/omaralkhatib/intelFPGA_lite/20.1/nios2eds/bin/gnu/H-x86_64-pc-linux-gnu/bin/../lib/gcc/nios2-elf/9.2.1/libgcc.a(lib2-divmod.o)
 .debug_loc     0x0000000000002bfa     0x1f6e /home/omaralkhatib/intelFPGA_lite/20.1/nios2eds/bin/gnu/H-x86_64-pc-linux-gnu/bin/../lib/gcc/nios2-elf/9.2.1/libgcc.a(adddf3.o)
 .debug_loc     0x0000000000004b68     0x235c /home/omaralkhatib/intelFPGA_lite/20.1/nios2eds/bin/gnu/H-x86_64-pc-linux-gnu/bin/../lib/gcc/nios2-elf/9.2.1/libgcc.a(divdf3.o)
 .debug_loc     0x0000000000006ec4      0x113 /home/omaralkhatib/intelFPGA_lite/20.1/nios2eds/bin/gnu/H-x86_64-pc-linux-gnu/bin/../lib/gcc/nios2-elf/9.2.1/libgcc.a(eqdf2.o)
 .debug_loc     0x0000000000006fd7      0x174 /home/omaralkhatib/intelFPGA_lite/20.1/nios2eds/bin/gnu/H-x86_64-pc-linux-gnu/bin/../lib/gcc/nios2-elf/9.2.1/libgcc.a(gedf2.o)
 .debug_loc     0x000000000000714b      0x166 /home/omaralkhatib/intelFPGA_lite/20.1/nios2eds/bin/gnu/H-x86_64-pc-linux-gnu/bin/../lib/gcc/nios2-elf/9.2.1/libgcc.a(ledf2.o)
 .debug_loc     0x00000000000072b1     0x1275 /home/omaralkhatib/intelFPGA_lite/20.1/nios2eds/bin/gnu/H-x86_64-pc-linux-gnu/bin/../lib/gcc/nios2-elf/9.2.1/libgcc.a(muldf3.o)
 .debug_loc     0x0000000000008526     0x203d /home/omaralkhatib/intelFPGA_lite/20.1/nios2eds/bin/gnu/H-x86_64-pc-linux-gnu/bin/../lib/gcc/nios2-elf/9.2.1/libgcc.a(subdf3.o)
 .debug_loc     0x000000000000a563       0x9e /home/omaralkhatib/intelFPGA_lite/20.1/nios2eds/bin/gnu/H-x86_64-pc-linux-gnu/bin/../lib/gcc/nios2-elf/9.2.1/libgcc.a(unorddf2.o)
 .debug_loc     0x000000000000a601      0x1bf /home/omaralkhatib/intelFPGA_lite/20.1/nios2eds/bin/gnu/H-x86_64-pc-linux-gnu/bin/../lib/gcc/nios2-elf/9.2.1/libgcc.a(fixdfsi.o)
 .debug_loc     0x000000000000a7c0      0x252 /home/omaralkhatib/intelFPGA_lite/20.1/nios2eds/bin/gnu/H-x86_64-pc-linux-gnu/bin/../lib/gcc/nios2-elf/9.2.1/libgcc.a(floatsidf.o)
 .debug_loc     0x000000000000aa12      0x281 /home/omaralkhatib/intelFPGA_lite/20.1/nios2eds/bin/gnu/H-x86_64-pc-linux-gnu/bin/../lib/gcc/nios2-elf/9.2.1/libgcc.a(floatunsidf.o)
 .debug_loc     0x000000000000ac93       0xbe /home/omaralkhatib/intelFPGA_lite/20.1/nios2eds/bin/gnu/H-x86_64-pc-linux-gnu/bin/../lib/gcc/nios2-elf/9.2.1/libgcc.a(_clzsi2.o)

.debug_macinfo
 *(.debug_macinfo)

.debug_weaknames
 *(.debug_weaknames)

.debug_funcnames
 *(.debug_funcnames)

.debug_typenames
 *(.debug_typenames)

.debug_varnames
 *(.debug_varnames)

.debug_alt_sim_info
                0x0000000000000000       0x60
 *(.debug_alt_sim_info)
 .debug_alt_sim_info
                0x0000000000000000       0x30 ../MasterUpgraded_bsp//obj/HAL/src/crt0.o
 .debug_alt_sim_info
                0x0000000000000030       0x30 ../MasterUpgraded_bsp//libhal_bsp.a(alt_busy_sleep.o)
                0x0000000008000000                __alt_data_end = 0x8000000
                0x0000000008000000                PROVIDE (__alt_stack_pointer = __alt_data_end)
                [!provide]                        PROVIDE (__alt_stack_limit = __alt_stack_base)
                0x0000000004017718                PROVIDE (__alt_heap_start = end)
                0x0000000008000000                PROVIDE (__alt_heap_limit = 0x8000000)
OUTPUT(MasterUpgraded.elf elf32-littlenios2)

.debug_ranges   0x0000000000000000     0x15e0
 .debug_ranges  0x0000000000000000       0x20 ../MasterUpgraded_bsp//obj/HAL/src/crt0.o
 .debug_ranges  0x0000000000000020       0x18 ../MasterUpgraded_bsp//newlib/nios2-elf/lib/libc.a(lib_a-printf.o)
 .debug_ranges  0x0000000000000038       0x90 ../MasterUpgraded_bsp//newlib/nios2-elf/lib/libc.a(lib_a-vfprintf.o)
 .debug_ranges  0x00000000000000c8       0x10 ../MasterUpgraded_bsp//newlib/nios2-elf/lib/libc.a(lib_a-wsetup.o)
 .debug_ranges  0x00000000000000d8       0x18 ../MasterUpgraded_bsp//newlib/nios2-elf/lib/libc.a(lib_a-dtoa.o)
 .debug_ranges  0x00000000000000f0       0x20 ../MasterUpgraded_bsp//newlib/nios2-elf/lib/libc.a(lib_a-fflush.o)
 .debug_ranges  0x0000000000000110       0x90 ../MasterUpgraded_bsp//newlib/nios2-elf/lib/libc.a(lib_a-findfp.o)
 .debug_ranges  0x00000000000001a0       0x18 ../MasterUpgraded_bsp//newlib/nios2-elf/lib/libc.a(lib_a-freer.o)
 .debug_ranges  0x00000000000001b8       0x18 ../MasterUpgraded_bsp//newlib/nios2-elf/lib/libc.a(lib_a-fwalk.o)
 .debug_ranges  0x00000000000001d0       0x38 ../MasterUpgraded_bsp//newlib/nios2-elf/lib/libc.a(lib_a-localeconv.o)
 .debug_ranges  0x0000000000000208       0x30 ../MasterUpgraded_bsp//newlib/nios2-elf/lib/libc.a(lib_a-locale.o)
 .debug_ranges  0x0000000000000238       0x18 ../MasterUpgraded_bsp//newlib/nios2-elf/lib/libc.a(lib_a-makebuf.o)
 .debug_ranges  0x0000000000000250       0x18 ../MasterUpgraded_bsp//newlib/nios2-elf/lib/libc.a(lib_a-mallocr.o)
 .debug_ranges  0x0000000000000268       0x28 ../MasterUpgraded_bsp//newlib/nios2-elf/lib/libc.a(lib_a-mbtowc_r.o)
 .debug_ranges  0x0000000000000290       0x10 ../MasterUpgraded_bsp//newlib/nios2-elf/lib/libc.a(lib_a-memchr.o)
 .debug_ranges  0x00000000000002a0       0x10 ../MasterUpgraded_bsp//newlib/nios2-elf/lib/libc.a(lib_a-memcpy.o)
 .debug_ranges  0x00000000000002b0       0x10 ../MasterUpgraded_bsp//newlib/nios2-elf/lib/libc.a(lib_a-memset.o)
 .debug_ranges  0x00000000000002c0       0xa0 ../MasterUpgraded_bsp//newlib/nios2-elf/lib/libc.a(lib_a-mprec.o)
 .debug_ranges  0x0000000000000360       0x10 ../MasterUpgraded_bsp//newlib/nios2-elf/lib/libc.a(lib_a-sbrkr.o)
 .debug_ranges  0x0000000000000370       0x30 ../MasterUpgraded_bsp//newlib/nios2-elf/lib/libc.a(lib_a-stdio.o)
 .debug_ranges  0x00000000000003a0       0x10 ../MasterUpgraded_bsp//newlib/nios2-elf/lib/libc.a(lib_a-strcmp.o)
 .debug_ranges  0x00000000000003b0       0x10 ../MasterUpgraded_bsp//newlib/nios2-elf/lib/libc.a(lib_a-strlen.o)
 .debug_ranges  0x00000000000003c0       0x40 ../MasterUpgraded_bsp//newlib/nios2-elf/lib/libc.a(lib_a-vfiprintf.o)
 .debug_ranges  0x0000000000000400       0x28 ../MasterUpgraded_bsp//newlib/nios2-elf/lib/libc.a(lib_a-wctomb_r.o)
 .debug_ranges  0x0000000000000428       0x10 ../MasterUpgraded_bsp//newlib/nios2-elf/lib/libc.a(lib_a-writer.o)
 .debug_ranges  0x0000000000000438       0x10 ../MasterUpgraded_bsp//newlib/nios2-elf/lib/libc.a(closer.o)
 .debug_ranges  0x0000000000000448       0x18 ../MasterUpgraded_bsp//newlib/nios2-elf/lib/libc.a(lib_a-assert.o)
 .debug_ranges  0x0000000000000460       0x10 ../MasterUpgraded_bsp//newlib/nios2-elf/lib/libc.a(lib_a-callocr.o)
 .debug_ranges  0x0000000000000470       0x18 ../MasterUpgraded_bsp//newlib/nios2-elf/lib/libc.a(lib_a-fclose.o)
 .debug_ranges  0x0000000000000488       0x18 ../MasterUpgraded_bsp//newlib/nios2-elf/lib/libc.a(lib_a-fiprintf.o)
 .debug_ranges  0x00000000000004a0       0x20 ../MasterUpgraded_bsp//newlib/nios2-elf/lib/libc.a(lib_a-fputwc.o)
 .debug_ranges  0x00000000000004c0       0x10 ../MasterUpgraded_bsp//newlib/nios2-elf/lib/libc.a(lib_a-fstatr.o)
 .debug_ranges  0x00000000000004d0       0x10 ../MasterUpgraded_bsp//newlib/nios2-elf/lib/libc.a(lib_a-fvwrite.o)
 .debug_ranges  0x00000000000004e0       0x10 ../MasterUpgraded_bsp//newlib/nios2-elf/lib/libc.a(lib_a-isattyr.o)
 .debug_ranges  0x00000000000004f0       0x10 ../MasterUpgraded_bsp//newlib/nios2-elf/lib/libc.a(lib_a-lseekr.o)
 .debug_ranges  0x0000000000000500       0x10 ../MasterUpgraded_bsp//newlib/nios2-elf/lib/libc.a(lib_a-memmove.o)
 .debug_ranges  0x0000000000000510       0x10 ../MasterUpgraded_bsp//newlib/nios2-elf/lib/libc.a(lib_a-readr.o)
 .debug_ranges  0x0000000000000520       0x40 ../MasterUpgraded_bsp//newlib/nios2-elf/lib/libc.a(lib_a-reallocr.o)
 .debug_ranges  0x0000000000000560       0x10 ../MasterUpgraded_bsp//newlib/nios2-elf/lib/libc.a(lib_a-vfiprintfr_1.o)
 .debug_ranges  0x0000000000000570       0x18 ../MasterUpgraded_bsp//newlib/nios2-elf/lib/libc.a(lib_a-wbuf.o)
 .debug_ranges  0x0000000000000588       0x28 ../MasterUpgraded_bsp//newlib/nios2-elf/lib/libc.a(lib_a-wcrtomb.o)
 .debug_ranges  0x00000000000005b0       0x10 ../MasterUpgraded_bsp//newlib/nios2-elf/lib/libc.a(lib_a-abort.o)
 .debug_ranges  0x00000000000005c0       0x48 ../MasterUpgraded_bsp//newlib/nios2-elf/lib/libc.a(lib_a-signal.o)
 .debug_ranges  0x0000000000000608       0x18 ../MasterUpgraded_bsp//newlib/nios2-elf/lib/libc.a(lib_a-signalr.o)
 .debug_ranges  0x0000000000000620      0x1b8 /home/omaralkhatib/intelFPGA_lite/20.1/nios2eds/bin/gnu/H-x86_64-pc-linux-gnu/bin/../lib/gcc/nios2-elf/9.2.1/libgcc.a(_udivdi3.o)
 .debug_ranges  0x00000000000007d8      0x168 /home/omaralkhatib/intelFPGA_lite/20.1/nios2eds/bin/gnu/H-x86_64-pc-linux-gnu/bin/../lib/gcc/nios2-elf/9.2.1/libgcc.a(_umoddi3.o)
 .debug_ranges  0x0000000000000940       0x70 /home/omaralkhatib/intelFPGA_lite/20.1/nios2eds/bin/gnu/H-x86_64-pc-linux-gnu/bin/../lib/gcc/nios2-elf/9.2.1/libgcc.a(lib2-divmod.o)
 .debug_ranges  0x00000000000009b0      0x250 /home/omaralkhatib/intelFPGA_lite/20.1/nios2eds/bin/gnu/H-x86_64-pc-linux-gnu/bin/../lib/gcc/nios2-elf/9.2.1/libgcc.a(adddf3.o)
 .debug_ranges  0x0000000000000c00      0x1c8 /home/omaralkhatib/intelFPGA_lite/20.1/nios2eds/bin/gnu/H-x86_64-pc-linux-gnu/bin/../lib/gcc/nios2-elf/9.2.1/libgcc.a(divdf3.o)
 .debug_ranges  0x0000000000000dc8       0x48 /home/omaralkhatib/intelFPGA_lite/20.1/nios2eds/bin/gnu/H-x86_64-pc-linux-gnu/bin/../lib/gcc/nios2-elf/9.2.1/libgcc.a(eqdf2.o)
 .debug_ranges  0x0000000000000e10       0x70 /home/omaralkhatib/intelFPGA_lite/20.1/nios2eds/bin/gnu/H-x86_64-pc-linux-gnu/bin/../lib/gcc/nios2-elf/9.2.1/libgcc.a(gedf2.o)
 .debug_ranges  0x0000000000000e80       0x70 /home/omaralkhatib/intelFPGA_lite/20.1/nios2eds/bin/gnu/H-x86_64-pc-linux-gnu/bin/../lib/gcc/nios2-elf/9.2.1/libgcc.a(ledf2.o)
 .debug_ranges  0x0000000000000ef0      0x270 /home/omaralkhatib/intelFPGA_lite/20.1/nios2eds/bin/gnu/H-x86_64-pc-linux-gnu/bin/../lib/gcc/nios2-elf/9.2.1/libgcc.a(muldf3.o)
 .debug_ranges  0x0000000000001160      0x248 /home/omaralkhatib/intelFPGA_lite/20.1/nios2eds/bin/gnu/H-x86_64-pc-linux-gnu/bin/../lib/gcc/nios2-elf/9.2.1/libgcc.a(subdf3.o)
 .debug_ranges  0x00000000000013a8       0x48 /home/omaralkhatib/intelFPGA_lite/20.1/nios2eds/bin/gnu/H-x86_64-pc-linux-gnu/bin/../lib/gcc/nios2-elf/9.2.1/libgcc.a(unorddf2.o)
 .debug_ranges  0x00000000000013f0       0x18 /home/omaralkhatib/intelFPGA_lite/20.1/nios2eds/bin/gnu/H-x86_64-pc-linux-gnu/bin/../lib/gcc/nios2-elf/9.2.1/libgcc.a(fixdfsi.o)
 .debug_ranges  0x0000000000001408       0x50 /home/omaralkhatib/intelFPGA_lite/20.1/nios2eds/bin/gnu/H-x86_64-pc-linux-gnu/bin/../lib/gcc/nios2-elf/9.2.1/libgcc.a(floatsidf.o)
 .debug_ranges  0x0000000000001458       0x50 /home/omaralkhatib/intelFPGA_lite/20.1/nios2eds/bin/gnu/H-x86_64-pc-linux-gnu/bin/../lib/gcc/nios2-elf/9.2.1/libgcc.a(floatunsidf.o)
 .debug_ranges  0x00000000000014a8       0x20 /home/omaralkhatib/intelFPGA_lite/20.1/nios2eds/bin/gnu/H-x86_64-pc-linux-gnu/bin/../lib/gcc/nios2-elf/9.2.1/libgcc.a(_clzsi2.o)
 .debug_ranges  0x00000000000014c8       0x30 ../MasterUpgraded_bsp//libhal_bsp.a(altera_avalon_jtag_uart_init.o)
 .debug_ranges  0x00000000000014f8       0x18 ../MasterUpgraded_bsp//libhal_bsp.a(altera_avalon_jtag_uart_read.o)
 .debug_ranges  0x0000000000001510       0x28 ../MasterUpgraded_bsp//libhal_bsp.a(alt_irq_entry.o)
 .debug_ranges  0x0000000000001538       0x10 ../MasterUpgraded_bsp//libhal_bsp.a(alt_irq_handler.o)
 .debug_ranges  0x0000000000001548       0x30 ../MasterUpgraded_bsp//libhal_bsp.a(alt_exception_entry.o)
 .debug_ranges  0x0000000000001578       0x18 ../MasterUpgraded_bsp//libhal_bsp.a(alt_instruction_exception_entry.o)
 .debug_ranges  0x0000000000001590       0x10 ../MasterUpgraded_bsp//newlib/nios2-elf/lib/libc.a(lib_a-atexit.o)
 .debug_ranges  0x00000000000015a0       0x10 ../MasterUpgraded_bsp//newlib/nios2-elf/lib/libc.a(lib_a-exit.o)
 .debug_ranges  0x00000000000015b0       0x10 ../MasterUpgraded_bsp//newlib/nios2-elf/lib/libc.a(lib_a-memcmp.o)
 .debug_ranges  0x00000000000015c0       0x10 ../MasterUpgraded_bsp//newlib/nios2-elf/lib/libc.a(lib_a-__atexit.o)
 .debug_ranges  0x00000000000015d0       0x10 ../MasterUpgraded_bsp//newlib/nios2-elf/lib/libc.a(lib_a-__call_atexit.o)
