
MasterUpgraded.elf:     file format elf32-littlenios2
MasterUpgraded.elf
architecture: nios2:r1, flags 0x00000112:
EXEC_P, HAS_SYMS, D_PAGED
start address 0x0400023c

Program Header:
    LOAD off    0x00001000 vaddr 0x04000000 paddr 0x04000000 align 2**12
         filesz 0x00000020 memsz 0x00000020 flags r-x
    LOAD off    0x00001020 vaddr 0x04000020 paddr 0x04000020 align 2**12
         filesz 0x00013d8c memsz 0x00013d8c flags r-x
    LOAD off    0x00014dac vaddr 0x04013dac paddr 0x040159b0 align 2**12
         filesz 0x00001c04 memsz 0x00001c04 flags rw-
    LOAD off    0x000175b4 vaddr 0x040175b4 paddr 0x040175b4 align 2**12
         filesz 0x00000000 memsz 0x00000164 flags rw-

Sections:
Idx Name          Size      VMA       LMA       File off  Algn
  0 .entry        00000020  04000000  04000000  00001000  2**5
                  CONTENTS, ALLOC, LOAD, READONLY, CODE
  1 .exceptions   0000021c  04000020  04000020  00001020  2**2
                  CONTENTS, ALLOC, LOAD, READONLY, CODE
  2 .text         00013424  0400023c  0400023c  0000123c  2**2
                  CONTENTS, ALLOC, LOAD, READONLY, CODE
  3 .rodata       0000074c  04013660  04013660  00014660  2**2
                  CONTENTS, ALLOC, LOAD, READONLY, DATA
  4 .rwdata       00001c04  04013dac  040159b0  00014dac  2**2
                  CONTENTS, ALLOC, LOAD, DATA, SMALL_DATA
  5 .bss          00000164  040175b4  040175b4  000175b4  2**2
                  ALLOC, SMALL_DATA
  6 .dram_controller 00000000  04017718  04017718  000169b0  2**0
                  CONTENTS
  7 .comment      0000002c  00000000  00000000  000169b0  2**0
                  CONTENTS, READONLY
  8 .debug_aranges 00001110  00000000  00000000  000169e0  2**3
                  CONTENTS, READONLY, DEBUGGING
  9 .debug_info   0004956d  00000000  00000000  00017af0  2**0
                  CONTENTS, READONLY, DEBUGGING
 10 .debug_abbrev 0000e5d4  00000000  00000000  0006105d  2**0
                  CONTENTS, READONLY, DEBUGGING
 11 .debug_line   00016545  00000000  00000000  0006f631  2**0
                  CONTENTS, READONLY, DEBUGGING
 12 .debug_frame  00002988  00000000  00000000  00085b78  2**2
                  CONTENTS, READONLY, DEBUGGING
 13 .debug_str    00004d00  00000000  00000000  00088500  2**0
                  CONTENTS, READONLY, DEBUGGING
 14 .debug_loc    0000ad51  00000000  00000000  0008d200  2**0
                  CONTENTS, READONLY, DEBUGGING
 15 .debug_alt_sim_info 00000060  00000000  00000000  00097f54  2**2
                  CONTENTS, READONLY, DEBUGGING
 16 .debug_ranges 000015e0  00000000  00000000  00097fb8  2**3
                  CONTENTS, READONLY, DEBUGGING
 17 .thread_model 00000003  00000000  00000000  0009cb92  2**0
                  CONTENTS, READONLY
 18 .cpu          00000009  00000000  00000000  0009cb95  2**0
                  CONTENTS, READONLY
 19 .qsys         00000001  00000000  00000000  0009cb9e  2**0
                  CONTENTS, READONLY
 20 .simulation_enabled 00000001  00000000  00000000  0009cb9f  2**0
                  CONTENTS, READONLY
 21 .stderr_dev   00000004  00000000  00000000  0009cba0  2**0
                  CONTENTS, READONLY
 22 .stdin_dev    00000004  00000000  00000000  0009cba4  2**0
                  CONTENTS, READONLY
 23 .stdout_dev   00000004  00000000  00000000  0009cba8  2**0
                  CONTENTS, READONLY
 24 .sopc_system_name 00000010  00000000  00000000  0009cbac  2**0
                  CONTENTS, READONLY
 25 .quartus_project_dir 00000051  00000000  00000000  0009cbbc  2**0
                  CONTENTS, READONLY
 26 .jdi          000051c7  00000000  00000000  0009cc0d  2**0
                  CONTENTS, READONLY
 27 .sopcinfo     00058b7a  00000000  00000000  000a1dd4  2**0
                  CONTENTS, READONLY
SYMBOL TABLE:
04000000 l    d  .entry	00000000 .entry
04000020 l    d  .exceptions	00000000 .exceptions
0400023c l    d  .text	00000000 .text
04013660 l    d  .rodata	00000000 .rodata
04013dac l    d  .rwdata	00000000 .rwdata
040175b4 l    d  .bss	00000000 .bss
04017718 l    d  .dram_controller	00000000 .dram_controller
00000000 l    d  .comment	00000000 .comment
00000000 l    d  .debug_aranges	00000000 .debug_aranges
00000000 l    d  .debug_info	00000000 .debug_info
00000000 l    d  .debug_abbrev	00000000 .debug_abbrev
00000000 l    d  .debug_line	00000000 .debug_line
00000000 l    d  .debug_frame	00000000 .debug_frame
00000000 l    d  .debug_str	00000000 .debug_str
00000000 l    d  .debug_loc	00000000 .debug_loc
00000000 l    d  .debug_alt_sim_info	00000000 .debug_alt_sim_info
00000000 l    d  .debug_ranges	00000000 .debug_ranges
00000000 l    df *ABS*	00000000 ../MasterUpgraded_bsp//obj/HAL/src/crt0.o
04000284 l       .text	00000000 alt_after_alt_main
00000000 l    df *ABS*	00000000 alt_irq_handler.c
00000000 l    df *ABS*	00000000 alt_instruction_exception_entry.c
00000000 l    df *ABS*	00000000 float2_functionality.c
00000000 l    df *ABS*	00000000 printf.c
00000000 l    df *ABS*	00000000 vfprintf.c
04000444 l     F .text	000000f0 __sbprintf
040026c4 l     F .text	00000208 cvt
040028cc l     F .text	00000148 exponent
040136e4 l     O .rodata	00000010 blanks.5176
040136f4 l     O .rodata	00000010 zeroes.5177
00000000 l    df *ABS*	00000000 wsetup.c
00000000 l    df *ABS*	00000000 dtoa.c
04002bb4 l     F .text	000003a4 quorem
00000000 l    df *ABS*	00000000 fflush.c
00000000 l    df *ABS*	00000000 findfp.c
04004f5c l     F .text	000000f0 std
0400504c l     F .text	0000003c stdin_init
04005088 l     F .text	0000003c stdout_init
040050c4 l     F .text	0000003c stderr_init
040175b4 l     O .bss	00000004 __sfp_recursive_mutex
040175b8 l     O .bss	00000004 __sinit_recursive_mutex
040054e4 l     F .text	00000024 __fp_lock
04005508 l     F .text	00000024 __fp_unlock
00000000 l    df *ABS*	00000000 mallocr.c
00000000 l    df *ABS*	00000000 fwalk.c
00000000 l    df *ABS*	00000000 impure.c
04013dac l     O .rwdata	00000424 impure_data
00000000 l    df *ABS*	00000000 localeconv.c
04005e78 l     F .text	00000024 __get_global_locale
04005e9c l     F .text	00000028 __get_current_locale
04005ec4 l     F .text	00000028 __get_C_locale
00000000 l    df *ABS*	00000000 locale.c
04005fa0 l     F .text	00000024 __get_global_locale
04005fc4 l     F .text	00000028 __get_current_locale
00000000 l    df *ABS*	00000000 makebuf.c
00000000 l    df *ABS*	00000000 mallocr.c
04006374 l     F .text	000003c4 malloc_extend_top
00000000 l    df *ABS*	00000000 mbtowc_r.c
040072a0 l     F .text	00000024 __get_global_locale
040072c4 l     F .text	00000028 __get_current_locale
00000000 l    df *ABS*	00000000 memchr.c
00000000 l    df *ABS*	00000000 memcpy.c
00000000 l    df *ABS*	00000000 memset.c
00000000 l    df *ABS*	00000000 mprec.c
04013934 l     O .rodata	0000000c p05.3991
00000000 l    df *ABS*	00000000 sbrkr.c
00000000 l    df *ABS*	00000000 stdio.c
00000000 l    df *ABS*	00000000 strcmp.c
00000000 l    df *ABS*	00000000 strlen.c
00000000 l    df *ABS*	00000000 vfprintf.c
04009a58 l     F .text	000000f0 __sbprintf
0401398c l     O .rodata	00000010 blanks.5153
0401399c l     O .rodata	00000010 zeroes.5154
00000000 l    df *ABS*	00000000 wctomb_r.c
0400ae38 l     F .text	00000024 __get_global_locale
0400ae5c l     F .text	00000028 __get_current_locale
00000000 l    df *ABS*	00000000 writer.c
00000000 l    df *ABS*	00000000 closer.c
00000000 l    df *ABS*	00000000 assert.c
00000000 l    df *ABS*	00000000 mallocr.c
00000000 l    df *ABS*	00000000 ctype_.c
00000000 l    df *ABS*	00000000 fclose.c
00000000 l    df *ABS*	00000000 fiprintf.c
00000000 l    df *ABS*	00000000 fputwc.c
00000000 l    df *ABS*	00000000 fstatr.c
00000000 l    df *ABS*	00000000 fvwrite.c
00000000 l    df *ABS*	00000000 int_errno.c
00000000 l    df *ABS*	00000000 isattyr.c
00000000 l    df *ABS*	00000000 lseekr.c
00000000 l    df *ABS*	00000000 memmove.c
00000000 l    df *ABS*	00000000 readr.c
00000000 l    df *ABS*	00000000 mallocr.c
00000000 l    df *ABS*	00000000 vfiprintfr_1.c
00000000 l    df *ABS*	00000000 wbuf.c
00000000 l    df *ABS*	00000000 wcrtomb.c
0400ce90 l     F .text	00000024 __get_global_locale
0400ceb4 l     F .text	00000028 __get_current_locale
00000000 l    df *ABS*	00000000 abort.c
00000000 l    df *ABS*	00000000 signal.c
00000000 l    df *ABS*	00000000 signalr.c
00000000 l    df *ABS*	00000000 libgcc2.c
00000000 l    df *ABS*	00000000 libgcc2.c
00000000 l    df *ABS*	00000000 lib2-divmod.c
00000000 l    df *ABS*	00000000 adddf3.c
00000000 l    df *ABS*	00000000 divdf3.c
00000000 l    df *ABS*	00000000 eqdf2.c
00000000 l    df *ABS*	00000000 gedf2.c
00000000 l    df *ABS*	00000000 ledf2.c
00000000 l    df *ABS*	00000000 muldf3.c
00000000 l    df *ABS*	00000000 subdf3.c
00000000 l    df *ABS*	00000000 unorddf2.c
00000000 l    df *ABS*	00000000 fixdfsi.c
00000000 l    df *ABS*	00000000 floatsidf.c
00000000 l    df *ABS*	00000000 floatunsidf.c
00000000 l    df *ABS*	00000000 libgcc2.c
00000000 l    df *ABS*	00000000 libgcc2.c
00000000 l    df *ABS*	00000000 alt_close.c
040107e4 l     F .text	0000003c alt_get_errno
00000000 l    df *ABS*	00000000 alt_dev.c
040108f0 l     F .text	0000002c alt_dev_null_write
00000000 l    df *ABS*	00000000 alt_errno.c
00000000 l    df *ABS*	00000000 alt_exit.c
00000000 l    df *ABS*	00000000 alt_fstat.c
04010954 l     F .text	0000003c alt_get_errno
00000000 l    df *ABS*	00000000 alt_getpid.c
00000000 l    df *ABS*	00000000 alt_isatty.c
04010a60 l     F .text	0000003c alt_get_errno
00000000 l    df *ABS*	00000000 alt_kill.c
04010b40 l     F .text	0000003c alt_get_errno
00000000 l    df *ABS*	00000000 alt_load.c
04010ca8 l     F .text	00000068 alt_load_section
00000000 l    df *ABS*	00000000 alt_lseek.c
04010d94 l     F .text	0000003c alt_get_errno
00000000 l    df *ABS*	00000000 alt_main.c
00000000 l    df *ABS*	00000000 alt_malloc_lock.c
00000000 l    df *ABS*	00000000 alt_read.c
04010f68 l     F .text	0000003c alt_get_errno
00000000 l    df *ABS*	00000000 alt_release_fd.c
00000000 l    df *ABS*	00000000 alt_sbrk.c
040159a0 l     O .rwdata	00000004 heap_end
00000000 l    df *ABS*	00000000 alt_usleep.c
00000000 l    df *ABS*	00000000 alt_write.c
040111e0 l     F .text	0000003c alt_get_errno
00000000 l    df *ABS*	00000000 alt_sys_init.c
04011314 l     F .text	00000034 alt_dev_reg
040148ec l     O .rwdata	00001060 jtag
0401594c l     O .rwdata	0000002c accelerometer
00000000 l    df *ABS*	00000000 altera_avalon_jtag_uart_fd.c
00000000 l    df *ABS*	00000000 altera_avalon_jtag_uart_init.c
0401160c l     F .text	00000210 altera_avalon_jtag_uart_irq
0401181c l     F .text	000000a0 altera_avalon_jtag_uart_timeout
00000000 l    df *ABS*	00000000 altera_avalon_jtag_uart_ioctl.c
00000000 l    df *ABS*	00000000 altera_avalon_jtag_uart_read.c
00000000 l    df *ABS*	00000000 altera_avalon_jtag_uart_write.c
00000000 l    df *ABS*	00000000 altera_avalon_timer_sc.c
04011e60 l     F .text	00000080 alt_avalon_timer_sc_irq
00000000 l    df *ABS*	00000000 altera_up_avalon_accelerometer_spi.c
00000000 l    df *ABS*	00000000 alt_alarm_start.c
00000000 l    df *ABS*	00000000 alt_busy_sleep.c
00000000 l    df *ABS*	00000000 alt_dcache_flush_all.c
00000000 l    df *ABS*	00000000 alt_dev_llist_insert.c
04012600 l     F .text	0000003c alt_get_errno
00000000 l    df *ABS*	00000000 alt_do_ctors.c
00000000 l    df *ABS*	00000000 alt_do_dtors.c
00000000 l    df *ABS*	00000000 alt_find_dev.c
00000000 l    df *ABS*	00000000 alt_icache_flush_all.c
00000000 l    df *ABS*	00000000 alt_io_redirect.c
04012870 l     F .text	000000b0 alt_open_fd
00000000 l    df *ABS*	00000000 alt_irq_register.c
00000000 l    df *ABS*	00000000 alt_irq_vars.c
00000000 l    df *ABS*	00000000 alt_open.c
04012b1c l     F .text	0000003c alt_get_errno
04012b58 l     F .text	000000b8 alt_file_locked
00000000 l    df *ABS*	00000000 alt_tick.c
00000000 l    df *ABS*	00000000 altera_nios2_gen2_irq.c
00000000 l    df *ABS*	00000000 alt_find_file.c
00000000 l    df *ABS*	00000000 alt_get_fd.c
00000000 l    df *ABS*	00000000 alt_icache_flush.c
00000000 l    df *ABS*	00000000 atexit.c
00000000 l    df *ABS*	00000000 exit.c
00000000 l    df *ABS*	00000000 memcmp.c
00000000 l    df *ABS*	00000000 __atexit.c
00000000 l    df *ABS*	00000000 __call_atexit.c
040175ec l     O .bss	00000004 __atexit_recursive_mutex
040175e8 g     O .bss	00000004 alt_instruction_exception_handler
04009184 g     F .text	000000b4 _mprec_log10
040092fc g     F .text	00000124 __any_on
0400bd58 g     F .text	00000060 _isatty_r
0401390c g     O .rodata	00000028 __mprec_tinytens
04010ea4 g     F .text	0000007c alt_main
04017618 g     O .bss	00000100 alt_irq
0400bdb8 g     F .text	00000070 _lseek_r
040159b0 g       *ABS*	00000000 __flash_rwdata_start
0400f36c g     F .text	00000080 .hidden __eqdf2
04017718 g       *ABS*	00000000 __alt_heap_start
0400d480 g     F .text	00000068 _kill_r
040003dc g     F .text	00000068 printf
0400cedc g     F .text	000000b4 _wcrtomb_r
0400d104 g     F .text	000000b4 _signal_r
04009600 g     F .text	000000a0 __sseek
040053b0 g     F .text	000000b4 __sinit
0400cce8 g     F .text	00000168 __swbuf_r
04005fec g     F .text	00000080 _setlocale_r
04005100 g     F .text	000000a4 __sfmoreglue
04010f44 g     F .text	00000024 __malloc_unlock
04000000 g       *ABS*	00000000 __alt_mem_dram_controller
0400be28 g     F .text	00000208 memmove
0400537c g     F .text	00000034 _cleanup
040078e0 g     F .text	00000124 _Balloc
0400f3ec g     F .text	000000f0 .hidden __gtdf2
04012f10 g     F .text	00000024 altera_nios2_gen2_irq_init
04000000 g     F .entry	0000001c __reset
04005eec g     F .text	00000050 __localeconv_l
040120ac g     F .text	000000d4 alt_up_accelerometer_spi_read_x_axis
04000020 g       *ABS*	00000000 __flash_exceptions_start
0400b71c g     F .text	00000068 _fstat_r
040175cc g     O .bss	00000004 errno
0400951c g     F .text	00000030 __seofread
040175d4 g     O .bss	00000004 alt_argv
0401d978 g       *ABS*	00000000 _gp
040111b0 g     F .text	00000030 usleep
04010a40 g     F .text	00000020 getpid
0401476c g     O .rwdata	00000180 alt_fd_list
040127ac g     F .text	00000090 alt_find_dev
04007594 g     F .text	00000188 memcpy
04005338 g     F .text	00000044 _cleanup_r
04010644 g     F .text	000000bc .hidden __floatsidf
04012920 g     F .text	0000007c alt_io_redirect
0400f4dc g     F .text	000000f0 .hidden __ltdf2
04013660 g       *ABS*	00000000 __DTOR_END__
0401316c g     F .text	00000098 alt_exception_cause_generated_bad_addr
04009068 g     F .text	0000011c __ratio
04009b48 g     F .text	00000050 __vfiprintf_internal
04011a18 g     F .text	00000220 altera_avalon_jtag_uart_read
04000378 g     F .text	00000064 _printf_r
0400e0d4 g     F .text	00000064 .hidden __udivsi3
04010a9c g     F .text	000000a4 isatty
0400d1b8 g     F .text	00000104 _raise_r
0400b01c g     F .text	00000084 __assert_func
0401381c g     O .rodata	000000c8 __mprec_tens
040130dc g     F .text	00000090 alt_icache_flush
040175c0 g     O .bss	00000004 __malloc_top_pad
0400d4e8 g     F .text	00000034 _getpid_r
04005f3c g     F .text	00000034 _localeconv_r
0400b784 g     F .text	000005d4 __sfvwrite_r
04007f60 g     F .text	00000084 __i2b
0400d2bc g     F .text	000000e4 __sigtramp_r
04009420 g     F .text	00000060 _sbrk_r
0400c030 g     F .text	00000070 _read_r
04015998 g     O .rwdata	00000004 alt_max_fd
0400b234 g     F .text	0000012c _fclose_r
04004f08 g     F .text	00000054 fflush
040175c4 g     O .bss	00000004 __malloc_max_sbrked_mem
0401299c g     F .text	00000180 alt_irq_register
0400e194 g     F .text	00000978 .hidden __adddf3
04008c08 g     F .text	000001fc __b2d
0400daac g     F .text	00000534 .hidden __umoddi3
04010dd0 g     F .text	000000d4 lseek
0401597c g     O .rwdata	00000004 _global_impure_ptr
0400c0a0 g     F .text	00000bf4 _realloc_r
04017718 g       *ABS*	00000000 __bss_end
04012e08 g     F .text	00000108 alt_tick
0400d51c g     F .text	00000590 .hidden __udivdi3
0400b62c g     F .text	00000088 _fputwc_r
040138e4 g     O .rodata	00000028 __mprec_bigtens
04007c30 g     F .text	000001b8 __s2b
0400d048 g     F .text	00000020 abort
04010700 g     F .text	00000090 .hidden __floatunsidf
0400874c g     F .text	00000104 __mcmp
0400552c g     F .text	00000040 __fp_lock_all
04012d64 g     F .text	000000a4 alt_alarm_stop
040175dc g     O .bss	00000004 alt_irq_active
040000fc g     F .exceptions	000000cc alt_irq_handler
04014744 g     O .rwdata	00000028 alt_dev_null
040125b4 g     F .text	0000004c alt_dcache_flush_all
04007de8 g     F .text	0000008c __hi0bits
040105c4 g     F .text	00000080 .hidden __fixdfsi
040159b0 g       *ABS*	00000000 __ram_rwdata_end
04015990 g     O .rwdata	00000008 alt_dev_list
0401121c g     F .text	000000f8 write
04013dac g       *ABS*	00000000 __ram_rodata_end
04010990 g     F .text	000000b0 fstat
04010b7c g     F .text	0000012c kill
0400f4dc g     F .text	000000f0 .hidden __ledf2
040083c0 g     F .text	00000170 __pow5mult
04009b98 g     F .text	000012a0 ___vfiprintf_internal_r
0400e138 g     F .text	0000005c .hidden __umodsi3
04017718 g       *ABS*	00000000 end
04011558 g     F .text	000000b4 altera_avalon_jtag_uart_init
040001c8 g     F .exceptions	00000074 alt_instruction_exception_entry
04013660 g       *ABS*	00000000 __CTOR_LIST__
08000000 g       *ABS*	00000000 __alt_stack_pointer
04011ee0 g     F .text	0000007c alt_avalon_timer_sc_init
04010790 g     F .text	00000054 .hidden __clzsi2
04011c38 g     F .text	00000228 altera_avalon_jtag_uart_write
04005464 g     F .text	00000020 __sfp_lock_acquire
040073d8 g     F .text	000001bc memchr
04000584 g     F .text	00002140 ___vfprintf_internal_r
040055ac g     F .text	00000558 _free_r
040139f0 g     O .rodata	00000180 _ctype_b
0400606c g     F .text	00000038 __locale_mb_cur_max
040134d4 g     F .text	0000018c __call_exitprocs
04015984 g     O .rwdata	00000004 __malloc_sbrk_base
0400023c g     F .text	0000004c _start
040175e0 g     O .bss	00000004 _alt_tick_rate
04008530 g     F .text	0000021c __lshift
040175e4 g     O .bss	00000004 _alt_nticks
0400d3d8 g     F .text	00000040 signal
04010fa4 g     F .text	000000fc read
04011384 g     F .text	00000070 alt_sys_init
04011f98 g     F .text	00000044 alt_up_accelerometer_spi_read_address_register
040133bc g     F .text	00000118 __register_exitproc
04007fe4 g     F .text	000003dc __multiply
040118bc g     F .text	00000068 altera_avalon_jtag_uart_close
04013dac g       *ABS*	00000000 __ram_rwdata_start
04013660 g       *ABS*	00000000 __ram_rodata_start
040175f0 g     O .bss	00000028 __malloc_current_mallinfo
04008e04 g     F .text	00000264 __d2b
040113f4 g     F .text	00000060 altera_avalon_jtag_uart_read_fd
0401303c g     F .text	000000a0 alt_get_fd
0401245c g     F .text	00000158 alt_busy_sleep
04012180 g     F .text	000000d4 alt_up_accelerometer_spi_read_y_axis
0400afbc g     F .text	00000060 _close_r
04013288 g     F .text	00000134 memcmp
040114b4 g     F .text	00000050 altera_avalon_jtag_uart_close_fd
04017718 g       *ABS*	00000000 __alt_stack_base
04011504 g     F .text	00000054 altera_avalon_jtag_uart_ioctl_fd
04002a14 g     F .text	000001a0 __swsetup_r
0400eb0c g     F .text	00000860 .hidden __divdf3
040051a4 g     F .text	00000194 __sfp
04009238 g     F .text	000000c4 __copybits
0401433c g     O .rwdata	00000408 __malloc_av_
040054c4 g     F .text	00000020 __sinit_lock_release
0400f5cc g     F .text	00000670 .hidden __muldf3
04009480 g     F .text	0000009c __sread
04012f34 g     F .text	00000108 alt_find_file
0401263c g     F .text	000000a8 alt_dev_llist_insert
04010f20 g     F .text	00000024 __malloc_lock
040110f8 g     F .text	000000b8 sbrk
04004e80 g     F .text	00000088 _fflush_r
0400b0d0 g     F .text	00000164 _calloc_r
040175b4 g       *ABS*	00000000 __bss_start
0400771c g     F .text	000001c4 memset
040002c4 g     F .text	000000b4 main
040175d8 g     O .bss	00000004 alt_envp
040175c8 g     O .bss	00000004 __malloc_max_total_mem
04011454 g     F .text	00000060 altera_avalon_jtag_uart_write_fd
0400ce50 g     F .text	00000040 __swbuf
040096a0 g     F .text	00000054 __sclose
08000000 g       *ABS*	00000000 __alt_heap_limit
0400b360 g     F .text	00000038 fclose
04002f58 g     F .text	00001c2c _dtoa_r
04006738 g     F .text	00000b68 _malloc_r
0400aed4 g     F .text	00000078 __ascii_wctomb
0401599c g     O .rwdata	00000004 alt_errno
0400b398 g     F .text	0000005c _fiprintf_r
0400d418 g     F .text	00000030 _init_signal
04005cc4 g     F .text	000000d8 _fwalk
040072ec g     F .text	00000058 _mbtowc_r
0400dfe0 g     F .text	00000080 .hidden __divsi3
04005b04 g     F .text	000001c0 _malloc_trim_r
04013660 g       *ABS*	00000000 __CTOR_END__
040096f4 g     F .text	00000140 strcmp
04013660 g       *ABS*	00000000 __flash_rodata_start
04013660 g       *ABS*	00000000 __DTOR_LIST__
0400f36c g     F .text	00000080 .hidden __nedf2
04011348 g     F .text	0000003c alt_irq_init
040110a0 g     F .text	00000058 alt_release_fd
04013c74 g     O .rodata	00000100 .hidden __clz_tab
040175bc g     O .bss	00000004 _PathLocale
04013204 g     F .text	0000003c atexit
0400af4c g     F .text	00000070 _write_r
040060a4 g     F .text	00000040 setlocale
04015978 g     O .rwdata	00000004 _impure_ptr
040175d0 g     O .bss	00000004 alt_argc
04004b84 g     F .text	000002fc __sflush_r
04012748 g     F .text	00000064 _do_dtors
04000288 g     F .text	0000003c sendReading
04000020 g       .exceptions	00000000 alt_irq_entry
04007344 g     F .text	00000094 __ascii_mbtowc
04008b44 g     F .text	000000c4 __ulp
0400556c g     F .text	00000040 __fp_unlock_all
04015988 g     O .rwdata	00000008 alt_fs_list
04000020 g       *ABS*	00000000 __ram_exceptions_start
04011f5c g     F .text	0000003c alt_up_accelerometer_spi_open_dev
04005f70 g     F .text	00000030 localeconv
0400628c g     F .text	000000e8 __swhatbuf_r
040159b0 g       *ABS*	00000000 _edata
04017718 g       *ABS*	00000000 _end
0400b454 g     F .text	000001d8 __fputwc
0400023c g       *ABS*	00000000 __ram_exceptions_end
04011924 g     F .text	000000f4 altera_avalon_jtag_uart_ioctl
0400954c g     F .text	000000b4 __swrite
04015980 g     O .rwdata	00000004 __malloc_trim_threshold
04013240 g     F .text	00000048 exit
0400b3f4 g     F .text	00000060 fiprintf
0400cc94 g     F .text	00000054 _vfiprintf_r
04005d9c g     F .text	000000dc _fwalk_reent
04008850 g     F .text	000002f4 __mdiff
0400e060 g     F .text	00000074 .hidden __modsi3
04012254 g     F .text	000000d4 alt_up_accelerometer_spi_read_z_axis
08000000 g       *ABS*	00000000 __alt_data_end
04000020 g     F .exceptions	00000000 alt_exception
04005484 g     F .text	00000020 __sfp_lock_release
04013b70 g     O .rodata	00000101 _ctype_
04010570 g     F .text	00000054 .hidden __unorddf2
0401091c g     F .text	00000038 _exit
04012328 g     F .text	00000134 alt_alarm_start
04011fdc g     F .text	00000068 alt_up_accelerometer_spi_read
04012044 g     F .text	00000068 alt_up_accelerometer_spi_write
040060e4 g     F .text	000001a8 __smakebuf_r
04009834 g     F .text	000000f4 strlen
0400d068 g     F .text	0000009c _init_signal_r
04012c10 g     F .text	00000154 open
0400f3ec g     F .text	000000f0 .hidden __gedf2
0400b0a0 g     F .text	00000030 __assert
04009928 g     F .text	00000130 __sprint_r
0401283c g     F .text	00000034 alt_icache_flush_all
040159a4 g     O .rwdata	00000004 alt_priority_mask
04000534 g     F .text	00000050 __vfprintf_internal
0400ae84 g     F .text	00000050 _wctomb_r
0400fc3c g     F .text	00000934 .hidden __subdf3
04007e74 g     F .text	000000ec __lo0bits
040159a8 g     O .rwdata	00000008 alt_alarm_list
040126e4 g     F .text	00000064 _do_ctors
0400d448 g     F .text	00000038 __sigtramp
0400cf90 g     F .text	000000b8 wcrtomb
04010820 g     F .text	000000d0 close
040141d0 g     O .rwdata	0000016c __global_locale
04010d10 g     F .text	00000084 alt_load
0400b6b4 g     F .text	00000068 fputwc
0400d3a0 g     F .text	00000038 raise
040054a4 g     F .text	00000020 __sinit_lock_acquire
04007a78 g     F .text	000001b8 __multadd
04007a04 g     F .text	00000074 _Bfree



Disassembly of section .entry:

04000000 <__reset>:
#if NIOS2_ICACHE_SIZE > 0 && defined(ALT_ALLOW_CODE_AT_RESET) && (!defined(ALT_SIM_OPTIMIZE) || defined(NIOS2_ECC_PRESENT))
    /* Assume the instruction cache size is always a power of two. */
#if NIOS2_ICACHE_SIZE > 0x8000
    movhi r2, %hi(NIOS2_ICACHE_SIZE)
#else
    movui r2, NIOS2_ICACHE_SIZE
 4000000:	00820014 	movui	r2,2048
#endif

0:
    initi r2
 4000004:	1001483a 	initi	r2
    addi r2, r2, -NIOS2_ICACHE_LINE_SIZE
 4000008:	10bff804 	addi	r2,r2,-32
    bgt r2, zero, 0b
 400000c:	00bffd16 	blt	zero,r2,4000004 <__reset+0x4>
 * Jump to the _start entry point in the .text section if reset code
 * is allowed or if optimizing for RTL simulation.
 */
#if defined(ALT_ALLOW_CODE_AT_RESET) || defined(ALT_SIM_OPTIMIZE)
    /* Jump to the _start entry point in the .text section. */
    movhi r1, %hi(_start)
 4000010:	00410034 	movhi	at,1024
    ori r1, r1, %lo(_start)
 4000014:	08408f14 	ori	at,at,572
    jmp r1
 4000018:	0800683a 	jmp	at
 400001c:	00000000 	call	0 <__alt_mem_dram_controller-0x4000000>

Disassembly of section .exceptions:

04000020 <alt_exception>:

#else /* ALT_EXCEPTION_STACK disabled */
        /* 
         * Reserve space on normal stack for registers about to be pushed.
         */
        addi  sp, sp, -76
 4000020:	deffed04 	addi	sp,sp,-76
         * documentation for details).
         *
         * Leave a gap in the stack frame at 4(sp) for the muldiv handler to
         * store zero into.
         */
        stw   ra,  0(sp)
 4000024:	dfc00015 	stw	ra,0(sp)
        stw   r1,   8(sp)
 4000028:	d8400215 	stw	at,8(sp)
        stw   r2,  12(sp)
 400002c:	d8800315 	stw	r2,12(sp)
        stw   r3,  16(sp)
 4000030:	d8c00415 	stw	r3,16(sp)
        stw   r4,  20(sp)
 4000034:	d9000515 	stw	r4,20(sp)
        stw   r5,  24(sp)
 4000038:	d9400615 	stw	r5,24(sp)
        stw   r6,  28(sp)
 400003c:	d9800715 	stw	r6,28(sp)
        stw   r7,  32(sp)
 4000040:	d9c00815 	stw	r7,32(sp)
        rdctl r5, estatus   /* Read early to avoid usage stall */
 4000044:	000b307a 	rdctl	r5,estatus
        stw   r8,  36(sp)
 4000048:	da000915 	stw	r8,36(sp)
        stw   r9,  40(sp)
 400004c:	da400a15 	stw	r9,40(sp)
        stw   r10, 44(sp)
 4000050:	da800b15 	stw	r10,44(sp)
        stw   r11, 48(sp)
 4000054:	dac00c15 	stw	r11,48(sp)
        stw   r12, 52(sp)
 4000058:	db000d15 	stw	r12,52(sp)
        stw   r13, 56(sp)
 400005c:	db400e15 	stw	r13,56(sp)
        stw   r14, 60(sp)
 4000060:	db800f15 	stw	r14,60(sp)
        stw   r15, 64(sp)
 4000064:	dbc01015 	stw	r15,64(sp)
        /*
         * ea-4 contains the address of the instruction being executed
         * when the exception occured. For interrupt exceptions, we will
         * will be re-issue the isntruction. Store it in 72(sp)
         */
        stw   r5,  68(sp)  /* estatus */
 4000068:	d9401115 	stw	r5,68(sp)
        addi  r15, ea, -4  /* instruction that caused exception */
 400006c:	ebffff04 	addi	r15,ea,-4
        stw   r15,  72(sp)
 4000070:	dbc01215 	stw	r15,72(sp)
#else
        /*
         * Test to see if the exception was a software exception or caused 
         * by an external interrupt, and vector accordingly.
         */
        rdctl r4, ipending
 4000074:	0009313a 	rdctl	r4,ipending
        andi  r2, r5, 1
 4000078:	2880004c 	andi	r2,r5,1
        beq   r2, zero, .Lnot_irq
 400007c:	10000326 	beq	r2,zero,400008c <alt_exception+0x6c>
        beq   r4, zero, .Lnot_irq
 4000080:	20000226 	beq	r4,zero,400008c <alt_exception+0x6c>
        /*
         * Now that all necessary registers have been preserved, call 
         * alt_irq_handler() to process the interrupts.
         */

        call alt_irq_handler
 4000084:	40000fc0 	call	40000fc <alt_irq_handler>

        .section .exceptions.irqreturn, "xa"

        br    .Lexception_exit
 4000088:	00000706 	br	40000a8 <alt_exception+0x88>
         * upon completion, so we write ea (address of instruction *after*
         * the one where the exception occured) into 72(sp). The actual
         * instruction that caused the exception is written in r2, which these
         * handlers will utilize.
         */
        stw ea, 72(sp) /* EA is PC+4 so will skip over instruction causing exception */
 400008c:	df401215 	stw	ea,72(sp)
.Lunknown_16bit:
        addi.n r4, r4, 2 /* Need PC+2 to skip over instruction causing exception */
        stw r4, 72(sp)

#else /* CDX is not Enabled and all instructions are 32bits */
        ldw r2, -4(ea) /* Instruction value that caused exception */
 4000090:	e8bfff17 	ldw	r2,-4(ea)
         * debugger is present) or go into an infinite loop since the
         * handling behavior is undefined; in that case we will not return here.
         */

        /* Load exception-causing address as first argument (r4) */
        addi   r4, ea, -4
 4000094:	e93fff04 	addi	r4,ea,-4

        /* Call the instruction-exception entry */
        call   alt_instruction_exception_entry
 4000098:	40001c80 	call	40001c8 <alt_instruction_exception_entry>
         * instruction
         *
         * Return code was 0: Skip. The instruction after the exception is
         * already stored in 72(sp).
         */
        bne   r2, r0, .Lexception_exit
 400009c:	1000021e 	bne	r2,zero,40000a8 <alt_exception+0x88>

        /*
         * Otherwise, modify 72(sp) to re-issue the instruction that caused the
         * exception.
         */
        addi  r15, ea, -4  /* instruction that caused exception */
 40000a0:	ebffff04 	addi	r15,ea,-4
        stw   r15,  72(sp)
 40000a4:	dbc01215 	stw	r15,72(sp)
        /* 
         * Restore the saved registers, so that all general purpose registers 
         * have been restored to their state at the time the interrupt occured.
         */

        ldw   r5,  68(sp)
 40000a8:	d9401117 	ldw	r5,68(sp)
        ldw   ea,  72(sp)  /* This becomes the PC once eret is executed */
 40000ac:	df401217 	ldw	ea,72(sp)
        ldw   ra,   0(sp)
 40000b0:	dfc00017 	ldw	ra,0(sp)

        wrctl estatus, r5
 40000b4:	2801707a 	wrctl	estatus,r5

        ldw   r1,   8(sp)
 40000b8:	d8400217 	ldw	at,8(sp)
        ldw   r2,  12(sp)
 40000bc:	d8800317 	ldw	r2,12(sp)
        ldw   r3,  16(sp)
 40000c0:	d8c00417 	ldw	r3,16(sp)
        ldw   r4,  20(sp)
 40000c4:	d9000517 	ldw	r4,20(sp)
        ldw   r5,  24(sp)
 40000c8:	d9400617 	ldw	r5,24(sp)
        ldw   r6,  28(sp)
 40000cc:	d9800717 	ldw	r6,28(sp)
        ldw   r7,  32(sp)
 40000d0:	d9c00817 	ldw	r7,32(sp)

#if defined(ALT_EXCEPTION_STACK) && defined(ALT_STACK_CHECK)
        ldw   et, %gprel(alt_exception_old_stack_limit)(gp)
#endif

        ldw   r8,  36(sp)
 40000d4:	da000917 	ldw	r8,36(sp)
        ldw   r9,  40(sp)
 40000d8:	da400a17 	ldw	r9,40(sp)
        ldw   r10, 44(sp)
 40000dc:	da800b17 	ldw	r10,44(sp)
        ldw   r11, 48(sp)
 40000e0:	dac00c17 	ldw	r11,48(sp)
        ldw   r12, 52(sp)
 40000e4:	db000d17 	ldw	r12,52(sp)
        ldw   r13, 56(sp)
 40000e8:	db400e17 	ldw	r13,56(sp)
        ldw   r14, 60(sp)
 40000ec:	db800f17 	ldw	r14,60(sp)
        ldw   r15, 64(sp)
 40000f0:	dbc01017 	ldw	r15,64(sp)
        stw   et, %gprel(alt_stack_limit_value)(gp)
        stw   zero, %gprel(alt_exception_old_stack_limit)(gp)
#endif /* ALT_STACK_CHECK */
        ldw   sp,  76(sp)
#else /* ALT_EXCEPTION_STACK disabled */
        addi  sp, sp, 76
 40000f4:	dec01304 	addi	sp,sp,76

        /*
         * Return to the interrupted instruction.
         */

        eret
 40000f8:	ef80083a 	eret

040000fc <alt_irq_handler>:
 * instruction is present if the macro ALT_CI_INTERRUPT_VECTOR defined.
 */

void alt_irq_handler (void) __attribute__ ((section (".exceptions")));
void alt_irq_handler (void)
{
 40000fc:	defff904 	addi	sp,sp,-28
 4000100:	dfc00615 	stw	ra,24(sp)
 4000104:	df000515 	stw	fp,20(sp)
 4000108:	df000504 	addi	fp,sp,20
  
  /*
   * Notify the operating system that we are at interrupt level.
   */ 
  
  ALT_OS_INT_ENTER();
 400010c:	0001883a 	nop
#ifndef NIOS2_EIC_PRESENT
static ALT_INLINE alt_u32 ALT_ALWAYS_INLINE alt_irq_pending (void)
{
  alt_u32 active;

  NIOS2_READ_IPENDING (active);
 4000110:	0005313a 	rdctl	r2,ipending
 4000114:	e0bffc15 	stw	r2,-16(fp)

  return active;
 4000118:	e0bffc17 	ldw	r2,-16(fp)
   * Consider the case where the high priority interupt is asserted during
   * the interrupt entry sequence for a lower priority interrupt to see why
   * this is the case.
   */

  active = alt_irq_pending ();
 400011c:	e0bfff15 	stw	r2,-4(fp)

  do
  {
    i = 0;
 4000120:	e03ffd15 	stw	zero,-12(fp)
    mask = 1;
 4000124:	00800044 	movi	r2,1
 4000128:	e0bffe15 	stw	r2,-8(fp)
     * called to clear the interrupt condition.
     */

    do
    {
      if (active & mask)
 400012c:	e0ffff17 	ldw	r3,-4(fp)
 4000130:	e0bffe17 	ldw	r2,-8(fp)
 4000134:	1884703a 	and	r2,r3,r2
 4000138:	10001226 	beq	r2,zero,4000184 <alt_irq_handler+0x88>
      { 
#ifdef ALT_ENHANCED_INTERRUPT_API_PRESENT
        alt_irq[i].handler(alt_irq[i].context); 
#else
        alt_irq[i].handler(alt_irq[i].context, i); 
 400013c:	e0bffd17 	ldw	r2,-12(fp)
 4000140:	100690fa 	slli	r3,r2,3
 4000144:	00810074 	movhi	r2,1025
 4000148:	1885883a 	add	r2,r3,r2
 400014c:	10dd8617 	ldw	r3,30232(r2)
 4000150:	e0bffd17 	ldw	r2,-12(fp)
 4000154:	100890fa 	slli	r4,r2,3
 4000158:	00810074 	movhi	r2,1025
 400015c:	2085883a 	add	r2,r4,r2
 4000160:	109d8717 	ldw	r2,30236(r2)
 4000164:	e17ffd17 	ldw	r5,-12(fp)
 4000168:	1009883a 	mov	r4,r2
 400016c:	183ee83a 	callr	r3
#endif
        break;
 4000170:	0001883a 	nop
  NIOS2_READ_IPENDING (active);
 4000174:	0005313a 	rdctl	r2,ipending
 4000178:	e0bffb15 	stw	r2,-20(fp)
  return active;
 400017c:	e0bffb17 	ldw	r2,-20(fp)
 4000180:	00000706 	br	40001a0 <alt_irq_handler+0xa4>
      }
      mask <<= 1;
 4000184:	e0bffe17 	ldw	r2,-8(fp)
 4000188:	1085883a 	add	r2,r2,r2
 400018c:	e0bffe15 	stw	r2,-8(fp)
      i++;
 4000190:	e0bffd17 	ldw	r2,-12(fp)
 4000194:	10800044 	addi	r2,r2,1
 4000198:	e0bffd15 	stw	r2,-12(fp)
      if (active & mask)
 400019c:	003fe306 	br	400012c <alt_irq_handler+0x30>

    } while (1);

    active = alt_irq_pending ();
 40001a0:	e0bfff15 	stw	r2,-4(fp)
    
  } while (active);
 40001a4:	e0bfff17 	ldw	r2,-4(fp)
 40001a8:	103fdd1e 	bne	r2,zero,4000120 <alt_irq_handler+0x24>

  /*
   * Notify the operating system that interrupt processing is complete.
   */ 

  ALT_OS_INT_EXIT();
 40001ac:	0001883a 	nop
}
 40001b0:	0001883a 	nop
 40001b4:	e037883a 	mov	sp,fp
 40001b8:	dfc00117 	ldw	ra,4(sp)
 40001bc:	df000017 	ldw	fp,0(sp)
 40001c0:	dec00204 	addi	sp,sp,8
 40001c4:	f800283a 	ret

040001c8 <alt_instruction_exception_entry>:
 * that handler if it has been registered. Absent a handler, it will
 * break break or hang as discussed below.
 */
int 
alt_instruction_exception_entry (alt_u32 exception_pc)
{
 40001c8:	defffb04 	addi	sp,sp,-20
 40001cc:	dfc00415 	stw	ra,16(sp)
 40001d0:	df000315 	stw	fp,12(sp)
 40001d4:	df000304 	addi	fp,sp,12
 40001d8:	e13ffd15 	stw	r4,-12(fp)
 * NIOS2_EXCEPTION_CAUSE_NOT_PRESENT. Your handling routine should
 * check the validity of the cause argument before proceeding.
 */
#ifdef NIOS2_HAS_EXTRA_EXCEPTION_INFO
  /* Get exception cause & "badaddr" */
  NIOS2_READ_EXCEPTION(cause);
 40001dc:	000531fa 	rdctl	r2,exception
 40001e0:	e0bfff15 	stw	r2,-4(fp)
  cause = ( (cause & NIOS2_EXCEPTION_REG_CAUSE_MASK) >>
 40001e4:	e0bfff17 	ldw	r2,-4(fp)
 40001e8:	1004d0ba 	srli	r2,r2,2
 40001ec:	108007cc 	andi	r2,r2,31
 40001f0:	e0bfff15 	stw	r2,-4(fp)
              NIOS2_EXCEPTION_REG_CAUSE_OFST );

  NIOS2_READ_BADADDR(badaddr);
 40001f4:	0005333a 	rdctl	r2,badaddr
 40001f8:	e0bffe15 	stw	r2,-8(fp)
#else
  cause = NIOS2_EXCEPTION_CAUSE_NOT_PRESENT;
  badaddr = 0;
#endif /* NIOS2_HAS_EXTRA_EXCEPTION_INFO */

  if(alt_instruction_exception_handler) {
 40001fc:	d0a71c17 	ldw	r2,-25488(gp)
 4000200:	10000726 	beq	r2,zero,4000220 <alt_instruction_exception_entry+0x58>
     * Call handler. Its return value indicates whether the exception-causing
     * instruction should be re-issued. The code that called us,
     * alt_eceptions_entry.S, will look at this value and adjust the ea
     * register as necessary
     */
    return alt_instruction_exception_handler(cause, exception_pc, badaddr);
 4000204:	d0a71c17 	ldw	r2,-25488(gp)
 4000208:	e0ffff17 	ldw	r3,-4(fp)
 400020c:	e1bffe17 	ldw	r6,-8(fp)
 4000210:	e17ffd17 	ldw	r5,-12(fp)
 4000214:	1809883a 	mov	r4,r3
 4000218:	103ee83a 	callr	r2
 400021c:	00000206 	br	4000228 <alt_instruction_exception_entry+0x60>
   *    (a peripheral which negates its interrupt output before its
   *    interrupt handler has been executed will cause spurious interrupts)
   */
  else {
#ifdef NIOS2_HAS_DEBUG_STUB
    NIOS2_BREAK();
 4000220:	003da03a 	break	0
      ;
#endif /* NIOS2_HAS_DEBUG_STUB */
  }

  /* We should not get here. Remove compiler warning. */
  return NIOS2_EXCEPTION_RETURN_REISSUE_INST;
 4000224:	0005883a 	mov	r2,zero
}
 4000228:	e037883a 	mov	sp,fp
 400022c:	dfc00117 	ldw	ra,4(sp)
 4000230:	df000017 	ldw	fp,0(sp)
 4000234:	dec00204 	addi	sp,sp,8
 4000238:	f800283a 	ret

Disassembly of section .text:

0400023c <_start>:

    /* Assume the data cache size is always a power of two. */
#if NIOS2_DCACHE_SIZE > 0x8000
    movhi r2, %hi(NIOS2_DCACHE_SIZE)
#else
    movui r2, NIOS2_DCACHE_SIZE
 400023c:	00820014 	movui	r2,2048
#endif

0:
    initd 0(r2)
 4000240:	10000033 	initd	0(r2)
#ifdef NIOS2_ECC_PRESENT
    addi r2, r2, -4
#else
    addi r2, r2, -NIOS2_DCACHE_LINE_SIZE
 4000244:	10bff804 	addi	r2,r2,-32
#endif
    bgt r2, zero, 0b
 4000248:	00bffd16 	blt	zero,r2,4000240 <_start+0x4>

    /*
     * Now that the caches are initialized, set up the stack pointer and global pointer.
     * The values provided by the linker are assumed to be correctly aligned.
     */
    movhi sp, %hi(__alt_stack_pointer)
 400024c:	06c20034 	movhi	sp,2048
    ori sp, sp, %lo(__alt_stack_pointer)
 4000250:	dec00014 	ori	sp,sp,0
    movhi gp, %hi(_gp)
 4000254:	06810074 	movhi	gp,1025
    ori gp, gp, %lo(_gp)
 4000258:	d6b65e14 	ori	gp,gp,55672
 */
#ifndef ALT_SIM_OPTIMIZE
    /* Log that the BSS is about to be cleared. */
    ALT_LOG_PUTS(alt_log_msg_bss)

    movhi r2, %hi(__bss_start)
 400025c:	00810074 	movhi	r2,1025
    ori r2, r2, %lo(__bss_start)
 4000260:	109d6d14 	ori	r2,r2,30132

    movhi r3, %hi(__bss_end)
 4000264:	00c10074 	movhi	r3,1025
    ori r3, r3, %lo(__bss_end)
 4000268:	18ddc614 	ori	r3,r3,30488

    beq r2, r3, 1f
 400026c:	10c00326 	beq	r2,r3,400027c <_start+0x40>

0:
    stw zero, (r2)
 4000270:	10000015 	stw	zero,0(r2)
    addi r2, r2, 4
 4000274:	10800104 	addi	r2,r2,4
    bltu r2, r3, 0b
 4000278:	10fffd36 	bltu	r2,r3,4000270 <_start+0x34>
     * section aren't defined until alt_load() has been called).
     */
    mov   et, zero
#endif

    call alt_load
 400027c:	4010d100 	call	4010d10 <alt_load>

    /* Log that alt_main is about to be called. */
    ALT_LOG_PUTS(alt_log_msg_alt_main)

    /* Call the C entry point. It should never return. */
    call alt_main
 4000280:	4010ea40 	call	4010ea4 <alt_main>

04000284 <alt_after_alt_main>:

    /* Wait in infinite loop in case alt_main does return. */
alt_after_alt_main:
    br alt_after_alt_main
 4000284:	003fff06 	br	4000284 <alt_after_alt_main>

04000288 <sendReading>:
#include <unistd.h>
#include <stdlib.h>
#include <altera_avalon_pio_regs.h>

void sendReading ( alt_32 x ) 
{
 4000288:	defffe04 	addi	sp,sp,-8
 400028c:	df000115 	stw	fp,4(sp)
 4000290:	df000104 	addi	fp,sp,4
 4000294:	e13fff15 	stw	r4,-4(fp)
  if ( IORD_ALTERA_AVALON_SPI_STATUS(ESP32_SPI_BASE) && 0b01000000 )
 4000298:	00820034 	movhi	r2,2048
 400029c:	10840237 	ldwio	r2,4104(r2)
 40002a0:	10000326 	beq	r2,zero,40002b0 <sendReading+0x28>
  {
    IOWR_ALTERA_AVALON_SPI_TXDATA(ESP32_SPI_BASE, (int) x);
 40002a4:	e0ffff17 	ldw	r3,-4(fp)
 40002a8:	00820034 	movhi	r2,2048
 40002ac:	10c40135 	stwio	r3,4100(r2)
    // printf("txreg: %d\n", IORD_ALTERA_AVALON_SPI_TXDATA(ESP32_SPI_BASE));
    // printf("data: %ld\n", (x & 0b111111111));
  }

}
 40002b0:	0001883a 	nop
 40002b4:	e037883a 	mov	sp,fp
 40002b8:	df000017 	ldw	fp,0(sp)
 40002bc:	dec00104 	addi	sp,sp,4
 40002c0:	f800283a 	ret

040002c4 <main>:

int main()
{
 40002c4:	defffb04 	addi	sp,sp,-20
 40002c8:	dfc00415 	stw	ra,16(sp)
 40002cc:	df000315 	stw	fp,12(sp)
 40002d0:	df000304 	addi	fp,sp,12
  alt_32 x_read, y_read;
  alt_up_accelerometer_spi_dev *accDev;
  accDev = alt_up_accelerometer_spi_open_dev(ACCELEROMETER_NAME);
 40002d4:	01010074 	movhi	r4,1025
 40002d8:	210d9804 	addi	r4,r4,13920
 40002dc:	4011f5c0 	call	4011f5c <alt_up_accelerometer_spi_open_dev>
 40002e0:	e0bfff15 	stw	r2,-4(fp)

  if ( accDev == NULL )
 40002e4:	e0bfff17 	ldw	r2,-4(fp)
 40002e8:	1000021e 	bne	r2,zero,40002f4 <main+0x30>
  {
    return 1;
 40002ec:	00800044 	movi	r2,1
 40002f0:	00001c06 	br	4000364 <main+0xa0>
  } 

  while ( 1 )
  {
    alt_up_accelerometer_spi_read_x_axis(accDev, &x_read);
 40002f4:	e0bffe04 	addi	r2,fp,-8
 40002f8:	100b883a 	mov	r5,r2
 40002fc:	e13fff17 	ldw	r4,-4(fp)
 4000300:	40120ac0 	call	40120ac <alt_up_accelerometer_spi_read_x_axis>
    alt_up_accelerometer_spi_read_y_axis(accDev, &y_read);
 4000304:	e0bffd04 	addi	r2,fp,-12
 4000308:	100b883a 	mov	r5,r2
 400030c:	e13fff17 	ldw	r4,-4(fp)
 4000310:	40121800 	call	4012180 <alt_up_accelerometer_spi_read_y_axis>
    printf("x: %ld, y: %ld\n", x_read, y_read);
 4000314:	e0bffe17 	ldw	r2,-8(fp)
 4000318:	e0fffd17 	ldw	r3,-12(fp)
 400031c:	180d883a 	mov	r6,r3
 4000320:	100b883a 	mov	r5,r2
 4000324:	01010074 	movhi	r4,1025
 4000328:	210d9d04 	addi	r4,r4,13940
 400032c:	40003dc0 	call	40003dc <printf>
    sendReading(((x_read & 0b1111111111) + ((y_read & 0b1111111111) << 9)));
 4000330:	e0bffe17 	ldw	r2,-8(fp)
 4000334:	10c0ffcc 	andi	r3,r2,1023
 4000338:	e0bffd17 	ldw	r2,-12(fp)
 400033c:	1008927a 	slli	r4,r2,9
 4000340:	00800234 	movhi	r2,8
 4000344:	10bf8004 	addi	r2,r2,-512
 4000348:	2084703a 	and	r2,r4,r2
 400034c:	1885883a 	add	r2,r3,r2
 4000350:	1009883a 	mov	r4,r2
 4000354:	40002880 	call	4000288 <sendReading>
    usleep(10);
 4000358:	01000284 	movi	r4,10
 400035c:	40111b00 	call	40111b0 <usleep>
    alt_up_accelerometer_spi_read_x_axis(accDev, &x_read);
 4000360:	003fe406 	br	40002f4 <main+0x30>
  }
  printf("Hello from Nios II!\n");

  return 0;
}
 4000364:	e037883a 	mov	sp,fp
 4000368:	dfc00117 	ldw	ra,4(sp)
 400036c:	df000017 	ldw	fp,0(sp)
 4000370:	dec00204 	addi	sp,sp,8
 4000374:	f800283a 	ret

04000378 <_printf_r>:
#include "fvwrite.h"    /* IntelSpecific */

int
_printf_r (struct _reent *ptr,
       const char *__restrict fmt, ...)
{
 4000378:	defff804 	addi	sp,sp,-32
 400037c:	dfc00515 	stw	ra,20(sp)
 4000380:	df000415 	stw	fp,16(sp)
 4000384:	df000404 	addi	fp,sp,16
 4000388:	e13ffd15 	stw	r4,-12(fp)
 400038c:	e17ffc15 	stw	r5,-16(fp)
 4000390:	e1800215 	stw	r6,8(fp)
 4000394:	e1c00315 	stw	r7,12(fp)
  int ret;
  va_list ap;

  _REENT_SMALL_CHECK_INIT (ptr);
  _FILE_INIT_DEV_WRITE (_stdout_r (ptr));    /* IntelSpecific */
  va_start (ap, fmt);
 4000398:	e0800204 	addi	r2,fp,8
 400039c:	e0bffe15 	stw	r2,-8(fp)
/*ret =   _vfprintf_r          (ptr, _stdout_r (ptr), fmt, ap);	*/	/*1.16.0*/	/* IntelSpecific */
/*ret = ___vfprintf_internal_r (ptr, _stdout_r (ptr), fmt, ap);	*/	/*1.16  */	/* IntelSpecific */
/*ret =   _vfprintf_r          (ptr, _stdout_r (ptr), fmt, ap);	*/	/*1.18.0*/	/* IntelSpecific */
/*ret =   _vfprintf_r          (ptr, _stdout_r (ptr), fmt, ap);	*/	/* try1 */	/* IntelSpecific */
  ret = ___vfprintf_internal_r (ptr, _stdout_r (ptr), fmt, ap);		/* try2 */	/* IntelSpecific */
 40003a0:	e0bffd17 	ldw	r2,-12(fp)
 40003a4:	10800217 	ldw	r2,8(r2)
 40003a8:	e0fffe17 	ldw	r3,-8(fp)
 40003ac:	180f883a 	mov	r7,r3
 40003b0:	e1bffc17 	ldw	r6,-16(fp)
 40003b4:	100b883a 	mov	r5,r2
 40003b8:	e13ffd17 	ldw	r4,-12(fp)
 40003bc:	40005840 	call	4000584 <___vfprintf_internal_r>
 40003c0:	e0bfff15 	stw	r2,-4(fp)
  va_end (ap);
  return ret;
 40003c4:	e0bfff17 	ldw	r2,-4(fp)
}
 40003c8:	e037883a 	mov	sp,fp
 40003cc:	dfc00117 	ldw	ra,4(sp)
 40003d0:	df000017 	ldw	fp,0(sp)
 40003d4:	dec00404 	addi	sp,sp,16
 40003d8:	f800283a 	ret

040003dc <printf>:

#ifndef _REENT_ONLY

int
printf (const char *__restrict fmt, ...)
{
 40003dc:	defff704 	addi	sp,sp,-36
 40003e0:	dfc00515 	stw	ra,20(sp)
 40003e4:	df000415 	stw	fp,16(sp)
 40003e8:	df000404 	addi	fp,sp,16
 40003ec:	e13ffc15 	stw	r4,-16(fp)
 40003f0:	e1400215 	stw	r5,8(fp)
 40003f4:	e1800315 	stw	r6,12(fp)
 40003f8:	e1c00415 	stw	r7,16(fp)
  int ret;
  va_list ap;
  struct _reent *ptr = _REENT;
 40003fc:	d0a00017 	ldw	r2,-32768(gp)
 4000400:	e0bfff15 	stw	r2,-4(fp)

  _REENT_SMALL_CHECK_INIT (ptr);
  _FILE_INIT_DEV_WRITE (_stdout_r (_REENT));    /* IntelSpecific. Mirror changes here in iprintf.c */
  va_start (ap, fmt);
 4000404:	e0800204 	addi	r2,fp,8
 4000408:	e0bffd15 	stw	r2,-12(fp)
/*ret =  _vfprintf_r        (ptr, _stdout_r    (ptr), fmt, ap);	*/ /*1.16.0*/	/* IntelSpecific */
/*ret = __vfprintf_internal (     _stdout_r (_REENT), fmt, ap);	*/ /*1.16  */	/* IntelSpecific */
/*ret =  _vfprintf_r        (ptr, _stdout_r    (ptr), fmt, ap);	*/ /*1.18.0*/	/* IntelSpecific */
/*ret =  _vfprintf_r        (ptr, _stdout_r    (ptr), fmt, ap); */ /* try1 */	/* IntelSpecific */
  ret = __vfprintf_internal (     _stdout_r (_REENT), fmt, ap);    /* try2 */	/* IntelSpecific */
 400040c:	d0a00017 	ldw	r2,-32768(gp)
 4000410:	10800217 	ldw	r2,8(r2)
 4000414:	e0fffd17 	ldw	r3,-12(fp)
 4000418:	180d883a 	mov	r6,r3
 400041c:	e17ffc17 	ldw	r5,-16(fp)
 4000420:	1009883a 	mov	r4,r2
 4000424:	40005340 	call	4000534 <__vfprintf_internal>
 4000428:	e0bffe15 	stw	r2,-8(fp)
  va_end (ap);
  return ret;
 400042c:	e0bffe17 	ldw	r2,-8(fp)
}
 4000430:	e037883a 	mov	sp,fp
 4000434:	dfc00117 	ldw	ra,4(sp)
 4000438:	df000017 	ldw	fp,0(sp)
 400043c:	dec00504 	addi	sp,sp,20
 4000440:	f800283a 	ret

04000444 <__sbprintf>:
_NOINLINE_STATIC int
__sbprintf (struct _reent *rptr,
       register FILE *fp,
       const char *fmt,
       va_list ap)
{
 4000444:	defedf04 	addi	sp,sp,-1156
 4000448:	dfc12015 	stw	ra,1152(sp)
 400044c:	df011f15 	stw	fp,1148(sp)
 4000450:	dc011e15 	stw	r16,1144(sp)
 4000454:	df011f04 	addi	fp,sp,1148
 4000458:	e13ee315 	stw	r4,-1140(fp)
 400045c:	2821883a 	mov	r16,r5
 4000460:	e1bee215 	stw	r6,-1144(fp)
 4000464:	e1fee115 	stw	r7,-1148(fp)
	int ret;
	FILE fake;
	unsigned char buf[BUFSIZ];

	/* copy the important variables */
	fake._flags = fp->_flags & ~__SNBF;
 4000468:	80c0030b 	ldhu	r3,12(r16)
 400046c:	00bfff44 	movi	r2,-3
 4000470:	1884703a 	and	r2,r3,r2
 4000474:	e0bfe70d 	sth	r2,-100(fp)
	fake._flags2 = fp->_flags2;
 4000478:	80801917 	ldw	r2,100(r16)
 400047c:	e0bffd15 	stw	r2,-12(fp)
	fake._file = fp->_file;
 4000480:	8080038b 	ldhu	r2,14(r16)
 4000484:	e0bfe78d 	sth	r2,-98(fp)
	fake._cookie = fp->_cookie;
 4000488:	80800717 	ldw	r2,28(r16)
 400048c:	e0bfeb15 	stw	r2,-84(fp)
	fake._write = fp->_write;
 4000490:	80800917 	ldw	r2,36(r16)
 4000494:	e0bfed15 	stw	r2,-76(fp)

	/* set up the buffer */
	fake._bf._base = fake._p = buf;
 4000498:	e0bee404 	addi	r2,fp,-1136
 400049c:	e0bfe415 	stw	r2,-112(fp)
 40004a0:	e0bfe417 	ldw	r2,-112(fp)
 40004a4:	e0bfe815 	stw	r2,-96(fp)
	fake._bf._size = fake._w = sizeof (buf);
 40004a8:	00810004 	movi	r2,1024
 40004ac:	e0bfe615 	stw	r2,-104(fp)
 40004b0:	e0bfe617 	ldw	r2,-104(fp)
 40004b4:	e0bfe915 	stw	r2,-92(fp)
	fake._lbfsize = 0;	/* not actually used, but Just In Case */
 40004b8:	e03fea15 	stw	zero,-88(fp)
#ifndef __SINGLE_THREAD__
	__lock_init_recursive (fake._lock);
#endif

	/* do the work, then copy any error status */
	ret = _VFPRINTF_R (rptr, &fake, fmt, ap);
 40004bc:	e0bfe404 	addi	r2,fp,-112
 40004c0:	e1fee117 	ldw	r7,-1148(fp)
 40004c4:	e1bee217 	ldw	r6,-1144(fp)
 40004c8:	100b883a 	mov	r5,r2
 40004cc:	e13ee317 	ldw	r4,-1140(fp)
 40004d0:	40005840 	call	4000584 <___vfprintf_internal_r>
 40004d4:	e0bffe15 	stw	r2,-8(fp)
	if (ret >= 0 && _fflush_r (rptr, &fake))
 40004d8:	e0bffe17 	ldw	r2,-8(fp)
 40004dc:	10000716 	blt	r2,zero,40004fc <__sbprintf+0xb8>
 40004e0:	e0bfe404 	addi	r2,fp,-112
 40004e4:	100b883a 	mov	r5,r2
 40004e8:	e13ee317 	ldw	r4,-1140(fp)
 40004ec:	4004e800 	call	4004e80 <_fflush_r>
 40004f0:	10000226 	beq	r2,zero,40004fc <__sbprintf+0xb8>
		ret = EOF;
 40004f4:	00bfffc4 	movi	r2,-1
 40004f8:	e0bffe15 	stw	r2,-8(fp)
	if (fake._flags & __SERR)
 40004fc:	e0bfe70b 	ldhu	r2,-100(fp)
 4000500:	10bfffcc 	andi	r2,r2,65535
 4000504:	1080100c 	andi	r2,r2,64
 4000508:	10000326 	beq	r2,zero,4000518 <__sbprintf+0xd4>
		fp->_flags |= __SERR;
 400050c:	8080030b 	ldhu	r2,12(r16)
 4000510:	10801014 	ori	r2,r2,64
 4000514:	8080030d 	sth	r2,12(r16)

#ifndef __SINGLE_THREAD__
	__lock_close_recursive (fake._lock);
#endif
	return (ret);
 4000518:	e0bffe17 	ldw	r2,-8(fp)
}
 400051c:	e6ffff04 	addi	sp,fp,-4
 4000520:	dfc00217 	ldw	ra,8(sp)
 4000524:	df000117 	ldw	fp,4(sp)
 4000528:	dc000017 	ldw	r16,0(sp)
 400052c:	dec00304 	addi	sp,sp,12
 4000530:	f800283a 	ret

04000534 <__vfprintf_internal>:
#ifndef STRING_ONLY
int
VFPRINTF (FILE * fp,
       const char *fmt0,
       va_list ap)
{
 4000534:	defffa04 	addi	sp,sp,-24
 4000538:	dfc00515 	stw	ra,20(sp)
 400053c:	df000415 	stw	fp,16(sp)
 4000540:	df000404 	addi	fp,sp,16
 4000544:	e13ffe15 	stw	r4,-8(fp)
 4000548:	e17ffd15 	stw	r5,-12(fp)
 400054c:	e1bffc15 	stw	r6,-16(fp)
  int result;
  result = _VFPRINTF_R (_REENT, fp, fmt0, ap);
 4000550:	d0a00017 	ldw	r2,-32768(gp)
 4000554:	e1fffc17 	ldw	r7,-16(fp)
 4000558:	e1bffd17 	ldw	r6,-12(fp)
 400055c:	e17ffe17 	ldw	r5,-8(fp)
 4000560:	1009883a 	mov	r4,r2
 4000564:	40005840 	call	4000584 <___vfprintf_internal_r>
 4000568:	e0bfff15 	stw	r2,-4(fp)
  return result;
 400056c:	e0bfff17 	ldw	r2,-4(fp)
}
 4000570:	e037883a 	mov	sp,fp
 4000574:	dfc00117 	ldw	ra,4(sp)
 4000578:	df000017 	ldw	fp,0(sp)
 400057c:	dec00204 	addi	sp,sp,8
 4000580:	f800283a 	ret

04000584 <___vfprintf_internal_r>:
int
_VFPRINTF_R (struct _reent *data,
       FILE * fp,
       const char *fmt0,
       va_list ap)
{
 4000584:	deffa804 	addi	sp,sp,-352
 4000588:	dfc05715 	stw	ra,348(sp)
 400058c:	df005615 	stw	fp,344(sp)
 4000590:	ddc05515 	stw	r23,340(sp)
 4000594:	dd805415 	stw	r22,336(sp)
 4000598:	dd405315 	stw	r21,332(sp)
 400059c:	dd005215 	stw	r20,328(sp)
 40005a0:	dcc05115 	stw	r19,324(sp)
 40005a4:	dc805015 	stw	r18,320(sp)
 40005a8:	dc404f15 	stw	r17,316(sp)
 40005ac:	dc004e15 	stw	r16,312(sp)
 40005b0:	df005604 	addi	fp,sp,344
 40005b4:	e13fbd15 	stw	r4,-268(fp)
 40005b8:	e17fbc15 	stw	r5,-272(fp)
 40005bc:	e1bfbb15 	stw	r6,-276(fp)
 40005c0:	e1ffba15 	stw	r7,-280(fp)
	char *thousands_sep = NULL;
	size_t thsnd_len = 0;
	const char *grouping = NULL;
#endif
#ifdef FLOATING_POINT
	char *decimal_point = _localeconv_r (data)->decimal_point;
 40005c4:	e13fbd17 	ldw	r4,-268(fp)
 40005c8:	4005f3c0 	call	4005f3c <_localeconv_r>
 40005cc:	10800017 	ldw	r2,0(r2)
 40005d0:	e0bfe815 	stw	r2,-96(fp)
	size_t decp_len = strlen (decimal_point);
 40005d4:	e13fe817 	ldw	r4,-96(fp)
 40005d8:	40098340 	call	4009834 <strlen>
 40005dc:	e0bfe715 	stw	r2,-100(fp)
	char softsign;		/* temporary negative sign for floats */
	union { int i; _PRINTF_FLOAT_TYPE fp; } _double_ = {0};
 40005e0:	e03fe015 	stw	zero,-128(fp)
 40005e4:	e03fe115 	stw	zero,-124(fp)
# define _fpvalue (_double_.fp)
	int expt;		/* integer value of exponent */
	int expsize = 0;	/* character count for expstr */
 40005e8:	e03ff415 	stw	zero,-48(fp)
	char expstr[MAXEXPLEN];	/* buffer for exponent string */
	int lead;		/* sig figs before decimal or group sep */
#endif /* FLOATING_POINT */
#if defined (FLOATING_POINT) || defined (_WANT_IO_C99_FORMATS)
	int ndig = 0;		/* actual number of digits returned by cvt */
 40005ec:	e03fdc15 	stw	zero,-144(fp)
	u_quad_t _uquad;	/* integer arguments %[diouxX] */
	enum { OCT, DEC, HEX } base;/* base for [diouxX] conversion */
	int dprec;		/* a copy of prec if [diouxX], 0 otherwise */
	int realsz;		/* field size expanded by dprec */
	int size;		/* size of converted field or string */
	char *xdigs = NULL;	/* digits for [xX] conversion */
 40005f0:	e03fec15 	stw	zero,-80(fp)
	char ox[2];		/* space for 0x hex-prefix */
#ifdef _MB_CAPABLE
	wchar_t wc;
	mbstate_t state;        /* mbtowc calls from library must not change state */
#endif
	char *malloc_buf = NULL;/* handy pointer for malloced buffers */
 40005f4:	e03feb15 	stw	zero,-84(fp)
	    (u_long)GET_ARG (N, ap, u_int))
#endif

#ifndef STRING_ONLY
	/* Initialize std streams if not dealing with sprintf family.  */
	CHECK_INIT (data, fp);
 40005f8:	e0bfbd17 	ldw	r2,-268(fp)
 40005fc:	e0bfe615 	stw	r2,-104(fp)
 4000600:	e0bfe617 	ldw	r2,-104(fp)
 4000604:	10000526 	beq	r2,zero,400061c <___vfprintf_internal_r+0x98>
 4000608:	e0bfe617 	ldw	r2,-104(fp)
 400060c:	10800e17 	ldw	r2,56(r2)
 4000610:	1000021e 	bne	r2,zero,400061c <___vfprintf_internal_r+0x98>
 4000614:	e13fe617 	ldw	r4,-104(fp)
 4000618:	40053b00 	call	40053b0 <__sinit>
	_newlib_flockfile_start (fp);

	ORIENT(fp, -1);
 400061c:	e0bfbc17 	ldw	r2,-272(fp)
 4000620:	1080030b 	ldhu	r2,12(r2)
 4000624:	10bfffcc 	andi	r2,r2,65535
 4000628:	1088000c 	andi	r2,r2,8192
 400062c:	10000c1e 	bne	r2,zero,4000660 <___vfprintf_internal_r+0xdc>
 4000630:	e0bfbc17 	ldw	r2,-272(fp)
 4000634:	1080030b 	ldhu	r2,12(r2)
 4000638:	10880014 	ori	r2,r2,8192
 400063c:	1007883a 	mov	r3,r2
 4000640:	e0bfbc17 	ldw	r2,-272(fp)
 4000644:	10c0030d 	sth	r3,12(r2)
 4000648:	e0bfbc17 	ldw	r2,-272(fp)
 400064c:	10c01917 	ldw	r3,100(r2)
 4000650:	00b7ffc4 	movi	r2,-8193
 4000654:	1886703a 	and	r3,r3,r2
 4000658:	e0bfbc17 	ldw	r2,-272(fp)
 400065c:	10c01915 	stw	r3,100(r2)

	/* sorry, fprintf(read_only_file, "") returns EOF, not 0 */
	if (cantwrite (data, fp)) {
 4000660:	e0bfbc17 	ldw	r2,-272(fp)
 4000664:	1080030b 	ldhu	r2,12(r2)
 4000668:	10bfffcc 	andi	r2,r2,65535
 400066c:	1080020c 	andi	r2,r2,8
 4000670:	10000326 	beq	r2,zero,4000680 <___vfprintf_internal_r+0xfc>
 4000674:	e0bfbc17 	ldw	r2,-272(fp)
 4000678:	10800417 	ldw	r2,16(r2)
 400067c:	1000061e 	bne	r2,zero,4000698 <___vfprintf_internal_r+0x114>
 4000680:	e17fbc17 	ldw	r5,-272(fp)
 4000684:	e13fbd17 	ldw	r4,-268(fp)
 4000688:	4002a140 	call	4002a14 <__swsetup_r>
 400068c:	10000226 	beq	r2,zero,4000698 <___vfprintf_internal_r+0x114>
		_newlib_flockfile_exit (fp);
		return (EOF);
 4000690:	00bfffc4 	movi	r2,-1
 4000694:	0007fe06 	br	4002690 <___vfprintf_internal_r+0x210c>
	}

#ifdef _UNBUF_STREAM_OPT
	/* optimise fprintf(stderr) (and other unbuffered Unix files) */
	if ((fp->_flags & (__SNBF|__SWR|__SRW)) == (__SNBF|__SWR) &&
 4000698:	e0bfbc17 	ldw	r2,-272(fp)
 400069c:	1080030b 	ldhu	r2,12(r2)
 40006a0:	10bfffcc 	andi	r2,r2,65535
 40006a4:	1080068c 	andi	r2,r2,26
 40006a8:	10800298 	cmpnei	r2,r2,10
 40006ac:	10000d1e 	bne	r2,zero,40006e4 <___vfprintf_internal_r+0x160>
	    fp->_file >= 0) {
 40006b0:	e0bfbc17 	ldw	r2,-272(fp)
 40006b4:	1080038b 	ldhu	r2,14(r2)
	if ((fp->_flags & (__SNBF|__SWR|__SRW)) == (__SNBF|__SWR) &&
 40006b8:	10bfffcc 	andi	r2,r2,65535
 40006bc:	10a0001c 	xori	r2,r2,32768
 40006c0:	10a00004 	addi	r2,r2,-32768
 40006c4:	10000716 	blt	r2,zero,40006e4 <___vfprintf_internal_r+0x160>
		_newlib_flockfile_exit (fp);
		return (__sbprintf (data, fp, fmt0, ap));
 40006c8:	e0bfba17 	ldw	r2,-280(fp)
 40006cc:	100f883a 	mov	r7,r2
 40006d0:	e1bfbb17 	ldw	r6,-276(fp)
 40006d4:	e17fbc17 	ldw	r5,-272(fp)
 40006d8:	e13fbd17 	ldw	r4,-268(fp)
 40006dc:	40004440 	call	4000444 <__sbprintf>
 40006e0:	0007eb06 	br	4002690 <___vfprintf_internal_r+0x210c>
		}
		fp->_bf._size = 64;
        }
#endif /* STRING_ONLY */

	fmt = (char *)fmt0;
 40006e4:	e57fbb17 	ldw	r21,-276(fp)
#ifdef _FVWRITE_IN_STREAMIO
	uio.uio_iov = iovp = iov;
 40006e8:	e43fc904 	addi	r16,fp,-220
 40006ec:	e43fd915 	stw	r16,-156(fp)
	uio.uio_resid = 0;
 40006f0:	e03fdb15 	stw	zero,-148(fp)
	uio.uio_iovcnt = 0;
 40006f4:	e03fda15 	stw	zero,-152(fp)
#endif
	ret = 0;
 40006f8:	e03ff715 	stw	zero,-36(fp)

	/*
	 * Scan the format for conversions (`%' character).
	 */
	for (;;) {
	        cp = fmt;
 40006fc:	a825883a 	mov	r18,r21
                    else if (wc == '%')
                        break;
                    fmt += n;
		}
#else
                while (*fmt != '\0' && *fmt != '%')
 4000700:	00000106 	br	4000708 <___vfprintf_internal_r+0x184>
                    fmt += 1;
 4000704:	ad400044 	addi	r21,r21,1
                while (*fmt != '\0' && *fmt != '%')
 4000708:	a8800003 	ldbu	r2,0(r21)
 400070c:	10803fcc 	andi	r2,r2,255
 4000710:	1080201c 	xori	r2,r2,128
 4000714:	10bfe004 	addi	r2,r2,-128
 4000718:	10000626 	beq	r2,zero,4000734 <___vfprintf_internal_r+0x1b0>
 400071c:	a8800003 	ldbu	r2,0(r21)
 4000720:	10803fcc 	andi	r2,r2,255
 4000724:	1080201c 	xori	r2,r2,128
 4000728:	10bfe004 	addi	r2,r2,-128
 400072c:	10800958 	cmpnei	r2,r2,37
 4000730:	103ff41e 	bne	r2,zero,4000704 <___vfprintf_internal_r+0x180>
#endif
		if ((m = fmt - cp) != 0) {
 4000734:	aca3c83a 	sub	r17,r21,r18
 4000738:	88001826 	beq	r17,zero,400079c <___vfprintf_internal_r+0x218>
			PRINT (cp, m);
 400073c:	84800015 	stw	r18,0(r16)
 4000740:	8805883a 	mov	r2,r17
 4000744:	80800115 	stw	r2,4(r16)
 4000748:	e0bfdb17 	ldw	r2,-148(fp)
 400074c:	8807883a 	mov	r3,r17
 4000750:	10c5883a 	add	r2,r2,r3
 4000754:	e0bfdb15 	stw	r2,-148(fp)
 4000758:	84000204 	addi	r16,r16,8
 400075c:	e0bfda17 	ldw	r2,-152(fp)
 4000760:	10800044 	addi	r2,r2,1
 4000764:	e0bfda15 	stw	r2,-152(fp)
 4000768:	e0bfda17 	ldw	r2,-152(fp)
 400076c:	10800210 	cmplti	r2,r2,8
 4000770:	1000071e 	bne	r2,zero,4000790 <___vfprintf_internal_r+0x20c>
 4000774:	e0bfd904 	addi	r2,fp,-156
 4000778:	100d883a 	mov	r6,r2
 400077c:	e17fbc17 	ldw	r5,-272(fp)
 4000780:	e13fbd17 	ldw	r4,-268(fp)
 4000784:	40099280 	call	4009928 <__sprint_r>
 4000788:	10076b1e 	bne	r2,zero,4002538 <___vfprintf_internal_r+0x1fb4>
 400078c:	e43fc904 	addi	r16,fp,-220
			ret += m;
 4000790:	e0bff717 	ldw	r2,-36(fp)
 4000794:	1445883a 	add	r2,r2,r17
 4000798:	e0bff715 	stw	r2,-36(fp)
		}
#ifdef _MB_CAPABLE
		if (n <= 0)
                    goto done;
#else
                if (*fmt == '\0')
 400079c:	a8800003 	ldbu	r2,0(r21)
 40007a0:	10803fcc 	andi	r2,r2,255
 40007a4:	1080201c 	xori	r2,r2,128
 40007a8:	10bfe004 	addi	r2,r2,-128
 40007ac:	10075426 	beq	r2,zero,4002500 <___vfprintf_internal_r+0x1f7c>
                    goto done;
#endif
		fmt_anchor = fmt;
 40007b0:	e57fe515 	stw	r21,-108(fp)
		fmt++;		/* skip over '%' */
 40007b4:	ad400044 	addi	r21,r21,1

		flags = 0;
 40007b8:	0023883a 	mov	r17,zero
		dprec = 0;
 40007bc:	e03fef15 	stw	zero,-68(fp)
		width = 0;
 40007c0:	e03ff615 	stw	zero,-40(fp)
		prec = -1;
 40007c4:	00bfffc4 	movi	r2,-1
 40007c8:	e0bff515 	stw	r2,-44(fp)
		sign = '\0';
 40007cc:	e03fe2c5 	stb	zero,-117(fp)
#ifdef FLOATING_POINT
		lead = 0;
 40007d0:	e03ff315 	stw	zero,-52(fp)
#ifndef _NO_POS_ARGS
		N = arg_index;
		is_pos_arg = 0;
#endif

rflag:		ch = *fmt++;
 40007d4:	a805883a 	mov	r2,r21
 40007d8:	15400044 	addi	r21,r2,1
 40007dc:	10800003 	ldbu	r2,0(r2)
 40007e0:	15003fcc 	andi	r20,r2,255
 40007e4:	a500201c 	xori	r20,r20,128
 40007e8:	a53fe004 	addi	r20,r20,-128
 40007ec:	a0bff804 	addi	r2,r20,-32
 40007f0:	10c01668 	cmpgeui	r3,r2,89
 40007f4:	18036b1e 	bne	r3,zero,40015a4 <___vfprintf_internal_r+0x1020>
 40007f8:	100690ba 	slli	r3,r2,2
 40007fc:	00810034 	movhi	r2,1024
 4000800:	1885883a 	add	r2,r3,r2
 4000804:	10820317 	ldw	r2,2060(r2)
 4000808:	1000683a 	jmp	r2
 400080c:	04000970 	cmpltui	r16,zero,37
 4000810:	040015a4 	muli	r16,zero,86
 4000814:	040015a4 	muli	r16,zero,86
 4000818:	04000990 	cmplti	r16,zero,38
 400081c:	040015a4 	muli	r16,zero,86
 4000820:	040015a4 	muli	r16,zero,86
 4000824:	040015a4 	muli	r16,zero,86
 4000828:	040015a4 	muli	r16,zero,86
 400082c:	040015a4 	muli	r16,zero,86
 4000830:	040015a4 	muli	r16,zero,86
 4000834:	04000998 	cmpnei	r16,zero,38
 4000838:	040009cc 	andi	r16,zero,39
 400083c:	040015a4 	muli	r16,zero,86
 4000840:	040009c4 	movi	r16,39
 4000844:	040009d8 	cmpnei	r16,zero,39
 4000848:	040015a4 	muli	r16,zero,86
 400084c:	04000a6c 	andhi	r16,zero,41
 4000850:	04000a74 	movhi	r16,41
 4000854:	04000a74 	movhi	r16,41
 4000858:	04000a74 	movhi	r16,41
 400085c:	04000a74 	movhi	r16,41
 4000860:	04000a74 	movhi	r16,41
 4000864:	04000a74 	movhi	r16,41
 4000868:	04000a74 	movhi	r16,41
 400086c:	04000a74 	movhi	r16,41
 4000870:	04000a74 	movhi	r16,41
 4000874:	040015a4 	muli	r16,zero,86
 4000878:	040015a4 	muli	r16,zero,86
 400087c:	040015a4 	muli	r16,zero,86
 4000880:	040015a4 	muli	r16,zero,86
 4000884:	040015a4 	muli	r16,zero,86
 4000888:	040015a4 	muli	r16,zero,86
 400088c:	040015a4 	muli	r16,zero,86
 4000890:	040015a4 	muli	r16,zero,86
 4000894:	040015a4 	muli	r16,zero,86
 4000898:	040015a4 	muli	r16,zero,86
 400089c:	04000b1c 	xori	r16,zero,44
 40008a0:	04000c1c 	xori	r16,zero,48
 40008a4:	040015a4 	muli	r16,zero,86
 40008a8:	04000c1c 	xori	r16,zero,48
 40008ac:	040015a4 	muli	r16,zero,86
 40008b0:	040015a4 	muli	r16,zero,86
 40008b4:	040015a4 	muli	r16,zero,86
 40008b8:	040015a4 	muli	r16,zero,86
 40008bc:	04000ab0 	cmpltui	r16,zero,42
 40008c0:	040015a4 	muli	r16,zero,86
 40008c4:	040015a4 	muli	r16,zero,86
 40008c8:	0400105c 	xori	r16,zero,65
 40008cc:	040015a4 	muli	r16,zero,86
 40008d0:	040015a4 	muli	r16,zero,86
 40008d4:	040015a4 	muli	r16,zero,86
 40008d8:	040015a4 	muli	r16,zero,86
 40008dc:	040015a4 	muli	r16,zero,86
 40008e0:	040011c8 	cmpgei	r16,zero,71
 40008e4:	040015a4 	muli	r16,zero,86
 40008e8:	040015a4 	muli	r16,zero,86
 40008ec:	04001274 	movhi	r16,73
 40008f0:	040015a4 	muli	r16,zero,86
 40008f4:	040015a4 	muli	r16,zero,86
 40008f8:	040015a4 	muli	r16,zero,86
 40008fc:	040015a4 	muli	r16,zero,86
 4000900:	040015a4 	muli	r16,zero,86
 4000904:	040015a4 	muli	r16,zero,86
 4000908:	040015a4 	muli	r16,zero,86
 400090c:	040015a4 	muli	r16,zero,86
 4000910:	040015a4 	muli	r16,zero,86
 4000914:	040015a4 	muli	r16,zero,86
 4000918:	04000af4 	movhi	r16,43
 400091c:	04000b20 	cmpeqi	r16,zero,44
 4000920:	04000c1c 	xori	r16,zero,48
 4000924:	04000c1c 	xori	r16,zero,48
 4000928:	04000c1c 	xori	r16,zero,48
 400092c:	04000ab8 	rdprs	r16,zero,42
 4000930:	04000b20 	cmpeqi	r16,zero,44
 4000934:	040015a4 	muli	r16,zero,86
 4000938:	040015a4 	muli	r16,zero,86
 400093c:	04000ac0 	call	4000ac <__alt_mem_dram_controller-0x3bfff54>
 4000940:	040015a4 	muli	r16,zero,86
 4000944:	04000fbc 	xorhi	r16,zero,62
 4000948:	04001060 	cmpeqi	r16,zero,65
 400094c:	040010f4 	movhi	r16,67
 4000950:	04000aec 	andhi	r16,zero,43
 4000954:	040015a4 	muli	r16,zero,86
 4000958:	0400113c 	xorhi	r16,zero,68
 400095c:	040015a4 	muli	r16,zero,86
 4000960:	040011cc 	andi	r16,zero,71
 4000964:	040015a4 	muli	r16,zero,86
 4000968:	040015a4 	muli	r16,zero,86
 400096c:	04001284 	movi	r16,74
			/*
			 * ``If the space and + flags both appear, the space
			 * flag will be ignored.''
			 *	-- ANSI X3J11
			 */
			if (!sign)
 4000970:	e0bfe2c3 	ldbu	r2,-117(fp)
 4000974:	10803fcc 	andi	r2,r2,255
 4000978:	1080201c 	xori	r2,r2,128
 400097c:	10bfe004 	addi	r2,r2,-128
 4000980:	103f941e 	bne	r2,zero,40007d4 <___vfprintf_internal_r+0x250>
				sign = ' ';
 4000984:	00800804 	movi	r2,32
 4000988:	e0bfe2c5 	stb	r2,-117(fp)
			goto rflag;
 400098c:	003f9106 	br	40007d4 <___vfprintf_internal_r+0x250>
		case '#':
			flags |= ALT;
 4000990:	8c400054 	ori	r17,r17,1
			goto rflag;
 4000994:	003f8f06 	br	40007d4 <___vfprintf_internal_r+0x250>
			 * ``A negative field width argument is taken as a
			 * - flag followed by a positive field width.''
			 *	-- ANSI X3J11
			 * They don't exclude field widths read from args.
			 */
			width = GET_ARG (n, ap, int);
 4000998:	e0bfba17 	ldw	r2,-280(fp)
 400099c:	10c00104 	addi	r3,r2,4
 40009a0:	e0ffba15 	stw	r3,-280(fp)
 40009a4:	10800017 	ldw	r2,0(r2)
 40009a8:	e0bff615 	stw	r2,-40(fp)
#ifndef _NO_POS_ARGS
			is_pos_arg = old_is_pos_arg;
#endif
			if (width >= 0)
 40009ac:	e0bff617 	ldw	r2,-40(fp)
 40009b0:	10000116 	blt	r2,zero,40009b8 <___vfprintf_internal_r+0x434>
				goto rflag;
 40009b4:	003f8706 	br	40007d4 <___vfprintf_internal_r+0x250>
			width = -width;
 40009b8:	e0bff617 	ldw	r2,-40(fp)
 40009bc:	0085c83a 	sub	r2,zero,r2
 40009c0:	e0bff615 	stw	r2,-40(fp)
			/* FALLTHROUGH */
		case '-':
			flags |= LADJUST;
 40009c4:	8c400114 	ori	r17,r17,4
			goto rflag;
 40009c8:	003f8206 	br	40007d4 <___vfprintf_internal_r+0x250>
		case '+':
			sign = '+';
 40009cc:	00800ac4 	movi	r2,43
 40009d0:	e0bfe2c5 	stb	r2,-117(fp)
			goto rflag;
 40009d4:	003f7f06 	br	40007d4 <___vfprintf_internal_r+0x250>
		case '.':
			if ((ch = *fmt++) == '*') {
 40009d8:	a805883a 	mov	r2,r21
 40009dc:	15400044 	addi	r21,r2,1
 40009e0:	10800003 	ldbu	r2,0(r2)
 40009e4:	15003fcc 	andi	r20,r2,255
 40009e8:	a500201c 	xori	r20,r20,128
 40009ec:	a53fe004 	addi	r20,r20,-128
 40009f0:	a0800a98 	cmpnei	r2,r20,42
 40009f4:	10000a1e 	bne	r2,zero,4000a20 <___vfprintf_internal_r+0x49c>
						fmt = old_fmt;
						goto rflag;
					}
				}
#endif /* !_NO_POS_ARGS */
				prec = GET_ARG (n, ap, int);
 40009f8:	e0bfba17 	ldw	r2,-280(fp)
 40009fc:	10c00104 	addi	r3,r2,4
 4000a00:	e0ffba15 	stw	r3,-280(fp)
 4000a04:	10800017 	ldw	r2,0(r2)
 4000a08:	e0bff515 	stw	r2,-44(fp)
#ifndef _NO_POS_ARGS
				is_pos_arg = old_is_pos_arg;
#endif
				if (prec < 0)
 4000a0c:	e0bff517 	ldw	r2,-44(fp)
 4000a10:	103f700e 	bge	r2,zero,40007d4 <___vfprintf_internal_r+0x250>
					prec = -1;
 4000a14:	00bfffc4 	movi	r2,-1
 4000a18:	e0bff515 	stw	r2,-44(fp)
				goto rflag;
 4000a1c:	003f6d06 	br	40007d4 <___vfprintf_internal_r+0x250>
			}
			n = 0;
 4000a20:	0027883a 	mov	r19,zero
			while (is_digit (ch)) {
 4000a24:	00000906 	br	4000a4c <___vfprintf_internal_r+0x4c8>
				n = 10 * n + to_digit (ch);
 4000a28:	98c002a4 	muli	r3,r19,10
 4000a2c:	a0bff404 	addi	r2,r20,-48
 4000a30:	18a7883a 	add	r19,r3,r2
				ch = *fmt++;
 4000a34:	a805883a 	mov	r2,r21
 4000a38:	15400044 	addi	r21,r2,1
 4000a3c:	10800003 	ldbu	r2,0(r2)
 4000a40:	15003fcc 	andi	r20,r2,255
 4000a44:	a500201c 	xori	r20,r20,128
 4000a48:	a53fe004 	addi	r20,r20,-128
			while (is_digit (ch)) {
 4000a4c:	a0bff404 	addi	r2,r20,-48
 4000a50:	108002b0 	cmpltui	r2,r2,10
 4000a54:	103ff41e 	bne	r2,zero,4000a28 <___vfprintf_internal_r+0x4a4>
			}
			prec = n < 0 ? -1 : n;
 4000a58:	9805883a 	mov	r2,r19
 4000a5c:	1000010e 	bge	r2,zero,4000a64 <___vfprintf_internal_r+0x4e0>
 4000a60:	00bfffc4 	movi	r2,-1
 4000a64:	e0bff515 	stw	r2,-44(fp)
			goto reswitch;
 4000a68:	003f6006 	br	40007ec <___vfprintf_internal_r+0x268>
			/*
			 * ``Note that 0 is taken as a flag, not as the
			 * beginning of a field width.''
			 *	-- ANSI X3J11
			 */
			flags |= ZEROPAD;
 4000a6c:	8c402014 	ori	r17,r17,128
			goto rflag;
 4000a70:	003f5806 	br	40007d4 <___vfprintf_internal_r+0x250>
		case '1': case '2': case '3': case '4':
		case '5': case '6': case '7': case '8': case '9':
			n = 0;
 4000a74:	0027883a 	mov	r19,zero
			do {
				n = 10 * n + to_digit (ch);
 4000a78:	98c002a4 	muli	r3,r19,10
 4000a7c:	a0bff404 	addi	r2,r20,-48
 4000a80:	18a7883a 	add	r19,r3,r2
				ch = *fmt++;
 4000a84:	a805883a 	mov	r2,r21
 4000a88:	15400044 	addi	r21,r2,1
 4000a8c:	10800003 	ldbu	r2,0(r2)
 4000a90:	15003fcc 	andi	r20,r2,255
 4000a94:	a500201c 	xori	r20,r20,128
 4000a98:	a53fe004 	addi	r20,r20,-128
			} while (is_digit (ch));
 4000a9c:	a0bff404 	addi	r2,r20,-48
 4000aa0:	108002b0 	cmpltui	r2,r2,10
 4000aa4:	103ff41e 	bne	r2,zero,4000a78 <___vfprintf_internal_r+0x4f4>
				}
				else
					goto error;
			}
#endif /* !_NO_POS_ARGS */
			width = n;
 4000aa8:	e4fff615 	stw	r19,-40(fp)
			goto reswitch;
 4000aac:	003f4f06 	br	40007ec <___vfprintf_internal_r+0x268>
#ifdef FLOATING_POINT
		case 'L':
			flags |= LONGDBL;
 4000ab0:	8c400214 	ori	r17,r17,8
			goto rflag;
 4000ab4:	003f4706 	br	40007d4 <___vfprintf_internal_r+0x250>
			if (*fmt == 'h') {
				fmt++;
				flags |= CHARINT;
			} else
#endif
				flags |= SHORTINT;
 4000ab8:	8c401014 	ori	r17,r17,64
			goto rflag;
 4000abc:	003f4506 	br	40007d4 <___vfprintf_internal_r+0x250>
		case 'l':
#if defined _WANT_IO_C99_FORMATS || !defined _NO_LONGLONG
			if (*fmt == 'l') {
 4000ac0:	a8800003 	ldbu	r2,0(r21)
 4000ac4:	10803fcc 	andi	r2,r2,255
 4000ac8:	1080201c 	xori	r2,r2,128
 4000acc:	10bfe004 	addi	r2,r2,-128
 4000ad0:	10801b18 	cmpnei	r2,r2,108
 4000ad4:	1000031e 	bne	r2,zero,4000ae4 <___vfprintf_internal_r+0x560>
				fmt++;
 4000ad8:	ad400044 	addi	r21,r21,1
				flags |= QUADINT;
 4000adc:	8c400814 	ori	r17,r17,32
 4000ae0:	003f3c06 	br	40007d4 <___vfprintf_internal_r+0x250>
			} else
#endif
				flags |= LONGINT;
 4000ae4:	8c400414 	ori	r17,r17,16
			goto rflag;
 4000ae8:	003f3a06 	br	40007d4 <___vfprintf_internal_r+0x250>
		case 'q': /* extension */
			flags |= QUADINT;
 4000aec:	8c400814 	ori	r17,r17,32
			goto rflag;
 4000af0:	003f3806 	br	40007d4 <___vfprintf_internal_r+0x250>
		    flags |= QUADINT;
		  goto rflag;
		case 'C':
#endif /* _WANT_IO_C99_FORMATS */
		case 'c':
			cp = buf;
 4000af4:	e4bfbf04 	addi	r18,fp,-260
				}
			}
			else
#endif /* _MB_CAPABLE */
			{
				*cp = GET_ARG (N, ap, int);
 4000af8:	e0bfba17 	ldw	r2,-280(fp)
 4000afc:	10c00104 	addi	r3,r2,4
 4000b00:	e0ffba15 	stw	r3,-280(fp)
 4000b04:	10800017 	ldw	r2,0(r2)
 4000b08:	90800005 	stb	r2,0(r18)
				size = 1;
 4000b0c:	00800044 	movi	r2,1
 4000b10:	e0bfed15 	stw	r2,-76(fp)
			}
			sign = '\0';
 4000b14:	e03fe2c5 	stb	zero,-117(fp)
			break;
 4000b18:	0002ab06 	br	40015c8 <___vfprintf_internal_r+0x1044>
		case 'D':  /* extension */
			flags |= LONGINT;
 4000b1c:	8c400414 	ori	r17,r17,16
			/*FALLTHROUGH*/
		case 'd':
		case 'i':
			_uquad = SARG ();
 4000b20:	8880080c 	andi	r2,r17,32
 4000b24:	10000826 	beq	r2,zero,4000b48 <___vfprintf_internal_r+0x5c4>
 4000b28:	e13fba17 	ldw	r4,-280(fp)
 4000b2c:	20800204 	addi	r2,r4,8
 4000b30:	e0bfba15 	stw	r2,-280(fp)
 4000b34:	20800017 	ldw	r2,0(r4)
 4000b38:	20c00117 	ldw	r3,4(r4)
 4000b3c:	e0bfb815 	stw	r2,-288(fp)
 4000b40:	e0ffb915 	stw	r3,-284(fp)
 4000b44:	00001e06 	br	4000bc0 <___vfprintf_internal_r+0x63c>
 4000b48:	8880040c 	andi	r2,r17,16
 4000b4c:	10000826 	beq	r2,zero,4000b70 <___vfprintf_internal_r+0x5ec>
 4000b50:	e0bfba17 	ldw	r2,-280(fp)
 4000b54:	10c00104 	addi	r3,r2,4
 4000b58:	e0ffba15 	stw	r3,-280(fp)
 4000b5c:	10800017 	ldw	r2,0(r2)
 4000b60:	e0bfb815 	stw	r2,-288(fp)
 4000b64:	1005d7fa 	srai	r2,r2,31
 4000b68:	e0bfb915 	stw	r2,-284(fp)
 4000b6c:	00001406 	br	4000bc0 <___vfprintf_internal_r+0x63c>
 4000b70:	8880100c 	andi	r2,r17,64
 4000b74:	10000b26 	beq	r2,zero,4000ba4 <___vfprintf_internal_r+0x620>
 4000b78:	e0bfba17 	ldw	r2,-280(fp)
 4000b7c:	10c00104 	addi	r3,r2,4
 4000b80:	e0ffba15 	stw	r3,-280(fp)
 4000b84:	10800017 	ldw	r2,0(r2)
 4000b88:	10bfffcc 	andi	r2,r2,65535
 4000b8c:	10a0001c 	xori	r2,r2,32768
 4000b90:	10a00004 	addi	r2,r2,-32768
 4000b94:	e0bfb815 	stw	r2,-288(fp)
 4000b98:	1005d7fa 	srai	r2,r2,31
 4000b9c:	e0bfb915 	stw	r2,-284(fp)
 4000ba0:	00000706 	br	4000bc0 <___vfprintf_internal_r+0x63c>
 4000ba4:	e0bfba17 	ldw	r2,-280(fp)
 4000ba8:	10c00104 	addi	r3,r2,4
 4000bac:	e0ffba15 	stw	r3,-280(fp)
 4000bb0:	10800017 	ldw	r2,0(r2)
 4000bb4:	e0bfb815 	stw	r2,-288(fp)
 4000bb8:	1005d7fa 	srai	r2,r2,31
 4000bbc:	e0bfb915 	stw	r2,-284(fp)
 4000bc0:	e0bfb817 	ldw	r2,-288(fp)
 4000bc4:	e0bff115 	stw	r2,-60(fp)
 4000bc8:	e0bfb917 	ldw	r2,-284(fp)
 4000bcc:	e0bff215 	stw	r2,-56(fp)
#ifndef _NO_LONGLONG
			if ((quad_t)_uquad < 0)
 4000bd0:	e0bff117 	ldw	r2,-60(fp)
 4000bd4:	e0fff217 	ldw	r3,-56(fp)
 4000bd8:	18000d0e 	bge	r3,zero,4000c10 <___vfprintf_internal_r+0x68c>
#else
			if ((long) _uquad < 0)
#endif
			{

				_uquad = -_uquad;
 4000bdc:	000d883a 	mov	r6,zero
 4000be0:	000f883a 	mov	r7,zero
 4000be4:	e13ff117 	ldw	r4,-60(fp)
 4000be8:	e17ff217 	ldw	r5,-56(fp)
 4000bec:	3105c83a 	sub	r2,r6,r4
 4000bf0:	3091803a 	cmpltu	r8,r6,r2
 4000bf4:	3947c83a 	sub	r3,r7,r5
 4000bf8:	1a09c83a 	sub	r4,r3,r8
 4000bfc:	2007883a 	mov	r3,r4
 4000c00:	e0bff115 	stw	r2,-60(fp)
 4000c04:	e0fff215 	stw	r3,-56(fp)
				sign = '-';
 4000c08:	00800b44 	movi	r2,45
 4000c0c:	e0bfe2c5 	stb	r2,-117(fp)
			}
			base = DEC;
 4000c10:	00800044 	movi	r2,1
 4000c14:	e0bff015 	stw	r2,-64(fp)
			goto number;
 4000c18:	0001d406 	br	400136c <___vfprintf_internal_r+0xde8>
		case 'E':
		case 'f':
		case 'g':
		case 'G':
# ifdef _NO_LONGDBL
			if (flags & LONGDBL) {
 4000c1c:	8880020c 	andi	r2,r17,8
 4000c20:	10000826 	beq	r2,zero,4000c44 <___vfprintf_internal_r+0x6c0>
				_fpvalue = (double) GET_ARG (N, ap, _LONG_DOUBLE);
 4000c24:	e13fba17 	ldw	r4,-280(fp)
 4000c28:	20800204 	addi	r2,r4,8
 4000c2c:	e0bfba15 	stw	r2,-280(fp)
 4000c30:	20800017 	ldw	r2,0(r4)
 4000c34:	20c00117 	ldw	r3,4(r4)
 4000c38:	e0bfe015 	stw	r2,-128(fp)
 4000c3c:	e0ffe115 	stw	r3,-124(fp)
 4000c40:	00000706 	br	4000c60 <___vfprintf_internal_r+0x6dc>
			} else {
				_fpvalue = GET_ARG (N, ap, double);
 4000c44:	e13fba17 	ldw	r4,-280(fp)
 4000c48:	20800204 	addi	r2,r4,8
 4000c4c:	e0bfba15 	stw	r2,-280(fp)
 4000c50:	20800017 	ldw	r2,0(r4)
 4000c54:	20c00117 	ldw	r3,4(r4)
 4000c58:	e0bfe015 	stw	r2,-128(fp)
 4000c5c:	e0ffe115 	stw	r3,-124(fp)

			   If the output is infinite or NaN, leading
			   zeros are not permitted.  Otherwise, scanf
			   could not read what printf wrote.
			 */
			if (isinf (_fpvalue)) {
 4000c60:	e0bfe017 	ldw	r2,-128(fp)
 4000c64:	e0ffe117 	ldw	r3,-124(fp)
 4000c68:	e0bfb215 	stw	r2,-312(fp)
 4000c6c:	01200034 	movhi	r4,32768
 4000c70:	213fffc4 	addi	r4,r4,-1
 4000c74:	1904703a 	and	r2,r3,r4
 4000c78:	e0bfb315 	stw	r2,-308(fp)
 4000c7c:	04c00044 	movi	r19,1
 4000c80:	01bfffc4 	movi	r6,-1
 4000c84:	01dffc34 	movhi	r7,32752
 4000c88:	39ffffc4 	addi	r7,r7,-1
 4000c8c:	e13fb217 	ldw	r4,-312(fp)
 4000c90:	e17fb317 	ldw	r5,-308(fp)
 4000c94:	40105700 	call	4010570 <__unorddf2>
 4000c98:	1000081e 	bne	r2,zero,4000cbc <___vfprintf_internal_r+0x738>
 4000c9c:	01bfffc4 	movi	r6,-1
 4000ca0:	01dffc34 	movhi	r7,32752
 4000ca4:	39ffffc4 	addi	r7,r7,-1
 4000ca8:	e13fb217 	ldw	r4,-312(fp)
 4000cac:	e17fb317 	ldw	r5,-308(fp)
 4000cb0:	400f4dc0 	call	400f4dc <__ledf2>
 4000cb4:	0080010e 	bge	zero,r2,4000cbc <___vfprintf_internal_r+0x738>
 4000cb8:	0027883a 	mov	r19,zero
 4000cbc:	9880005c 	xori	r2,r19,1
 4000cc0:	10803fcc 	andi	r2,r2,255
 4000cc4:	10000226 	beq	r2,zero,4000cd0 <___vfprintf_internal_r+0x74c>
 4000cc8:	00800044 	movi	r2,1
 4000ccc:	00000106 	br	4000cd4 <___vfprintf_internal_r+0x750>
 4000cd0:	0005883a 	mov	r2,zero
 4000cd4:	10803fcc 	andi	r2,r2,255
 4000cd8:	10001626 	beq	r2,zero,4000d34 <___vfprintf_internal_r+0x7b0>
				if (_fpvalue < 0)
 4000cdc:	e0bfe017 	ldw	r2,-128(fp)
 4000ce0:	e0ffe117 	ldw	r3,-124(fp)
 4000ce4:	000d883a 	mov	r6,zero
 4000ce8:	000f883a 	mov	r7,zero
 4000cec:	1009883a 	mov	r4,r2
 4000cf0:	180b883a 	mov	r5,r3
 4000cf4:	400f4dc0 	call	400f4dc <__ledf2>
 4000cf8:	1000020e 	bge	r2,zero,4000d04 <___vfprintf_internal_r+0x780>
					sign = '-';
 4000cfc:	00800b44 	movi	r2,45
 4000d00:	e0bfe2c5 	stb	r2,-117(fp)
				if (ch <= 'G') /* 'A', 'E', 'F', or 'G' */
 4000d04:	a0801208 	cmpgei	r2,r20,72
 4000d08:	1000031e 	bne	r2,zero,4000d18 <___vfprintf_internal_r+0x794>
					cp = "INF";
 4000d0c:	04810074 	movhi	r18,1025
 4000d10:	948da104 	addi	r18,r18,13956
 4000d14:	00000206 	br	4000d20 <___vfprintf_internal_r+0x79c>
				else
					cp = "inf";
 4000d18:	04810074 	movhi	r18,1025
 4000d1c:	948da204 	addi	r18,r18,13960
				size = 3;
 4000d20:	008000c4 	movi	r2,3
 4000d24:	e0bfed15 	stw	r2,-76(fp)
				flags &= ~ZEROPAD;
 4000d28:	00bfdfc4 	movi	r2,-129
 4000d2c:	88a2703a 	and	r17,r17,r2
				break;
 4000d30:	00022506 	br	40015c8 <___vfprintf_internal_r+0x1044>
			}
			if (isnan (_fpvalue)) {
 4000d34:	e0bfe017 	ldw	r2,-128(fp)
 4000d38:	e0ffe117 	ldw	r3,-124(fp)
 4000d3c:	100d883a 	mov	r6,r2
 4000d40:	180f883a 	mov	r7,r3
 4000d44:	1009883a 	mov	r4,r2
 4000d48:	180b883a 	mov	r5,r3
 4000d4c:	40105700 	call	4010570 <__unorddf2>
 4000d50:	10001326 	beq	r2,zero,4000da0 <___vfprintf_internal_r+0x81c>
				if (signbit (_fpvalue))
 4000d54:	e0bfe017 	ldw	r2,-128(fp)
 4000d58:	e0ffe117 	ldw	r3,-124(fp)
 4000d5c:	1805883a 	mov	r2,r3
 4000d60:	10a0002c 	andhi	r2,r2,32768
 4000d64:	10000226 	beq	r2,zero,4000d70 <___vfprintf_internal_r+0x7ec>
					sign = '-';
 4000d68:	00800b44 	movi	r2,45
 4000d6c:	e0bfe2c5 	stb	r2,-117(fp)
				if (ch <= 'G') /* 'A', 'E', 'F', or 'G' */
 4000d70:	a0801208 	cmpgei	r2,r20,72
 4000d74:	1000031e 	bne	r2,zero,4000d84 <___vfprintf_internal_r+0x800>
					cp = "NAN";
 4000d78:	04810074 	movhi	r18,1025
 4000d7c:	948da304 	addi	r18,r18,13964
 4000d80:	00000206 	br	4000d8c <___vfprintf_internal_r+0x808>
				else
					cp = "nan";
 4000d84:	04810074 	movhi	r18,1025
 4000d88:	948da404 	addi	r18,r18,13968
				size = 3;
 4000d8c:	008000c4 	movi	r2,3
 4000d90:	e0bfed15 	stw	r2,-76(fp)
				flags &= ~ZEROPAD;
 4000d94:	00bfdfc4 	movi	r2,-129
 4000d98:	88a2703a 	and	r17,r17,r2
				break;
 4000d9c:	00020a06 	br	40015c8 <___vfprintf_internal_r+0x1044>
				  }
				else
				  cp = buf;
			} else
# endif /* _WANT_IO_C99_FORMATS */
			if (prec == -1) {
 4000da0:	e0bff517 	ldw	r2,-44(fp)
 4000da4:	10bfffd8 	cmpnei	r2,r2,-1
 4000da8:	1000031e 	bne	r2,zero,4000db8 <___vfprintf_internal_r+0x834>
				prec = DEFPREC;
 4000dac:	00800184 	movi	r2,6
 4000db0:	e0bff515 	stw	r2,-44(fp)
 4000db4:	00000806 	br	4000dd8 <___vfprintf_internal_r+0x854>
			} else if ((ch == 'g' || ch == 'G') && prec == 0) {
 4000db8:	a08019e0 	cmpeqi	r2,r20,103
 4000dbc:	1000021e 	bne	r2,zero,4000dc8 <___vfprintf_internal_r+0x844>
 4000dc0:	a08011d8 	cmpnei	r2,r20,71
 4000dc4:	1000041e 	bne	r2,zero,4000dd8 <___vfprintf_internal_r+0x854>
 4000dc8:	e0bff517 	ldw	r2,-44(fp)
 4000dcc:	1000021e 	bne	r2,zero,4000dd8 <___vfprintf_internal_r+0x854>
				prec = 1;
 4000dd0:	00800044 	movi	r2,1
 4000dd4:	e0bff515 	stw	r2,-44(fp)
			}

			flags |= FPT;
 4000dd8:	8c404014 	ori	r17,r17,256

			cp = cvt (data, _fpvalue, prec, flags, &softsign,
 4000ddc:	e0bfe017 	ldw	r2,-128(fp)
 4000de0:	e0ffe117 	ldw	r3,-124(fp)
 4000de4:	dc800515 	stw	r18,20(sp)
 4000de8:	e13fdc04 	addi	r4,fp,-144
 4000dec:	d9000415 	stw	r4,16(sp)
 4000df0:	dd000315 	stw	r20,12(sp)
 4000df4:	e13fdf04 	addi	r4,fp,-132
 4000df8:	d9000215 	stw	r4,8(sp)
 4000dfc:	e13fe284 	addi	r4,fp,-118
 4000e00:	d9000115 	stw	r4,4(sp)
 4000e04:	dc400015 	stw	r17,0(sp)
 4000e08:	e1fff517 	ldw	r7,-44(fp)
 4000e0c:	100b883a 	mov	r5,r2
 4000e10:	180d883a 	mov	r6,r3
 4000e14:	e13fbd17 	ldw	r4,-268(fp)
 4000e18:	40026c40 	call	40026c4 <cvt>
 4000e1c:	1025883a 	mov	r18,r2
				  &expt, ch, &ndig, cp);

			if (ch == 'g' || ch == 'G') {
 4000e20:	a08019e0 	cmpeqi	r2,r20,103
 4000e24:	1000021e 	bne	r2,zero,4000e30 <___vfprintf_internal_r+0x8ac>
 4000e28:	a08011d8 	cmpnei	r2,r20,71
 4000e2c:	1000091e 	bne	r2,zero,4000e54 <___vfprintf_internal_r+0x8d0>
				if (expt <= -4 || expt > prec)
 4000e30:	e0bfdf17 	ldw	r2,-132(fp)
 4000e34:	10bfff50 	cmplti	r2,r2,-3
 4000e38:	1000031e 	bne	r2,zero,4000e48 <___vfprintf_internal_r+0x8c4>
 4000e3c:	e0bfdf17 	ldw	r2,-132(fp)
 4000e40:	e0fff517 	ldw	r3,-44(fp)
 4000e44:	1880020e 	bge	r3,r2,4000e50 <___vfprintf_internal_r+0x8cc>
					ch -= 2; /* 'e' or 'E' */
 4000e48:	a53fff84 	addi	r20,r20,-2
 4000e4c:	00000106 	br	4000e54 <___vfprintf_internal_r+0x8d0>
				else
					ch = 'g';
 4000e50:	050019c4 	movi	r20,103
			}
# ifdef _WANT_IO_C99_FORMATS
			else if (ch == 'F')
				ch = 'f';
# endif
			if (ch <= 'e') {	/* 'a', 'A', 'e', or 'E' fmt */
 4000e54:	a0801988 	cmpgei	r2,r20,102
 4000e58:	1000181e 	bne	r2,zero,4000ebc <___vfprintf_internal_r+0x938>
				--expt;
 4000e5c:	e0bfdf17 	ldw	r2,-132(fp)
 4000e60:	10bfffc4 	addi	r2,r2,-1
 4000e64:	e0bfdf15 	stw	r2,-132(fp)
				expsize = exponent (expstr, expt, ch);
 4000e68:	e0ffdf17 	ldw	r3,-132(fp)
 4000e6c:	e0bfdd44 	addi	r2,fp,-139
 4000e70:	a00d883a 	mov	r6,r20
 4000e74:	180b883a 	mov	r5,r3
 4000e78:	1009883a 	mov	r4,r2
 4000e7c:	40028cc0 	call	40028cc <exponent>
 4000e80:	e0bff415 	stw	r2,-48(fp)
				size = expsize + ndig;
 4000e84:	e0bfdc17 	ldw	r2,-144(fp)
 4000e88:	e0fff417 	ldw	r3,-48(fp)
 4000e8c:	1885883a 	add	r2,r3,r2
 4000e90:	e0bfed15 	stw	r2,-76(fp)
				if (ndig > 1 || flags & ALT)
 4000e94:	e0bfdc17 	ldw	r2,-144(fp)
 4000e98:	10800088 	cmpgei	r2,r2,2
 4000e9c:	1000021e 	bne	r2,zero,4000ea8 <___vfprintf_internal_r+0x924>
 4000ea0:	8880004c 	andi	r2,r17,1
 4000ea4:	10003d26 	beq	r2,zero,4000f9c <___vfprintf_internal_r+0xa18>
					size += decp_len;
 4000ea8:	e0ffed17 	ldw	r3,-76(fp)
 4000eac:	e0bfe717 	ldw	r2,-100(fp)
 4000eb0:	1885883a 	add	r2,r3,r2
 4000eb4:	e0bfed15 	stw	r2,-76(fp)
 4000eb8:	00003806 	br	4000f9c <___vfprintf_internal_r+0xa18>
# ifdef _WANT_IO_C99_FORMATS
				flags &= ~GROUPING;
# endif
			} else {
				if (ch == 'f') {		/* f fmt */
 4000ebc:	a0801998 	cmpnei	r2,r20,102
 4000ec0:	10001b1e 	bne	r2,zero,4000f30 <___vfprintf_internal_r+0x9ac>
					if (expt > 0) {
 4000ec4:	e0bfdf17 	ldw	r2,-132(fp)
 4000ec8:	00800d0e 	bge	zero,r2,4000f00 <___vfprintf_internal_r+0x97c>
						size = expt;
 4000ecc:	e0bfdf17 	ldw	r2,-132(fp)
 4000ed0:	e0bfed15 	stw	r2,-76(fp)
						if (prec || flags & ALT)
 4000ed4:	e0bff517 	ldw	r2,-44(fp)
 4000ed8:	1000021e 	bne	r2,zero,4000ee4 <___vfprintf_internal_r+0x960>
 4000edc:	8880004c 	andi	r2,r17,1
 4000ee0:	10002c26 	beq	r2,zero,4000f94 <___vfprintf_internal_r+0xa10>
							size += prec + decp_len;
 4000ee4:	e0fff517 	ldw	r3,-44(fp)
 4000ee8:	e0bfe717 	ldw	r2,-100(fp)
 4000eec:	1887883a 	add	r3,r3,r2
 4000ef0:	e0bfed17 	ldw	r2,-76(fp)
 4000ef4:	1885883a 	add	r2,r3,r2
 4000ef8:	e0bfed15 	stw	r2,-76(fp)
 4000efc:	00002506 	br	4000f94 <___vfprintf_internal_r+0xa10>
					} else	/* "0.X" */
						size = (prec || flags & ALT)
							  ? prec + 1 + decp_len
							  : 1;
 4000f00:	e0bff517 	ldw	r2,-44(fp)
 4000f04:	1000021e 	bne	r2,zero,4000f10 <___vfprintf_internal_r+0x98c>
						size = (prec || flags & ALT)
 4000f08:	8880004c 	andi	r2,r17,1
 4000f0c:	10000526 	beq	r2,zero,4000f24 <___vfprintf_internal_r+0x9a0>
							  ? prec + 1 + decp_len
 4000f10:	e0fff517 	ldw	r3,-44(fp)
 4000f14:	e0bfe717 	ldw	r2,-100(fp)
 4000f18:	1885883a 	add	r2,r3,r2
 4000f1c:	10800044 	addi	r2,r2,1
							  : 1;
 4000f20:	00000106 	br	4000f28 <___vfprintf_internal_r+0x9a4>
 4000f24:	00800044 	movi	r2,1
						size = (prec || flags & ALT)
 4000f28:	e0bfed15 	stw	r2,-76(fp)
 4000f2c:	00001906 	br	4000f94 <___vfprintf_internal_r+0xa10>
				} else if (expt >= ndig) { /* fixed g fmt */
 4000f30:	e0ffdf17 	ldw	r3,-132(fp)
 4000f34:	e0bfdc17 	ldw	r2,-144(fp)
 4000f38:	18800916 	blt	r3,r2,4000f60 <___vfprintf_internal_r+0x9dc>
					size = expt;
 4000f3c:	e0bfdf17 	ldw	r2,-132(fp)
 4000f40:	e0bfed15 	stw	r2,-76(fp)
					if (flags & ALT)
 4000f44:	8880004c 	andi	r2,r17,1
 4000f48:	10001226 	beq	r2,zero,4000f94 <___vfprintf_internal_r+0xa10>
						size += decp_len;
 4000f4c:	e0ffed17 	ldw	r3,-76(fp)
 4000f50:	e0bfe717 	ldw	r2,-100(fp)
 4000f54:	1885883a 	add	r2,r3,r2
 4000f58:	e0bfed15 	stw	r2,-76(fp)
 4000f5c:	00000d06 	br	4000f94 <___vfprintf_internal_r+0xa10>
				} else {
					size = ndig + decp_len;
 4000f60:	e0bfdc17 	ldw	r2,-144(fp)
 4000f64:	1007883a 	mov	r3,r2
 4000f68:	e0bfe717 	ldw	r2,-100(fp)
 4000f6c:	1885883a 	add	r2,r3,r2
 4000f70:	e0bfed15 	stw	r2,-76(fp)
					if (expt <= 0)
 4000f74:	e0bfdf17 	ldw	r2,-132(fp)
 4000f78:	00800616 	blt	zero,r2,4000f94 <___vfprintf_internal_r+0xa10>
						size += 1 - expt;
 4000f7c:	e0bfdf17 	ldw	r2,-132(fp)
 4000f80:	00c00044 	movi	r3,1
 4000f84:	1885c83a 	sub	r2,r3,r2
 4000f88:	e0ffed17 	ldw	r3,-76(fp)
 4000f8c:	1885883a 	add	r2,r3,r2
 4000f90:	e0bfed15 	stw	r2,-76(fp)
							nrepeats++;
					}
					size += (nseps + nrepeats) * thsnd_len;
				} else
# endif
					lead = expt;
 4000f94:	e0bfdf17 	ldw	r2,-132(fp)
 4000f98:	e0bff315 	stw	r2,-52(fp)
			}

			if (softsign)
 4000f9c:	e0bfe283 	ldbu	r2,-118(fp)
 4000fa0:	10803fcc 	andi	r2,r2,255
 4000fa4:	1080201c 	xori	r2,r2,128
 4000fa8:	10bfe004 	addi	r2,r2,-128
 4000fac:	10018526 	beq	r2,zero,40015c4 <___vfprintf_internal_r+0x1040>
				sign = '-';
 4000fb0:	00800b44 	movi	r2,45
 4000fb4:	e0bfe2c5 	stb	r2,-117(fp)
			break;
 4000fb8:	00018206 	br	40015c4 <___vfprintf_internal_r+0x1040>
			flags &= ~LONGINT;
			goto string;
#endif
		case 'n':
#ifndef _NO_LONGLONG
			if (flags & QUADINT)
 4000fbc:	8880080c 	andi	r2,r17,32
 4000fc0:	10000d26 	beq	r2,zero,4000ff8 <___vfprintf_internal_r+0xa74>
				*GET_ARG (N, ap, quad_ptr_t) = ret;
 4000fc4:	e0bfba17 	ldw	r2,-280(fp)
 4000fc8:	10c00104 	addi	r3,r2,4
 4000fcc:	e0ffba15 	stw	r3,-280(fp)
 4000fd0:	10800017 	ldw	r2,0(r2)
 4000fd4:	e0fff717 	ldw	r3,-36(fp)
 4000fd8:	e0ffb015 	stw	r3,-320(fp)
 4000fdc:	1807d7fa 	srai	r3,r3,31
 4000fe0:	e0ffb115 	stw	r3,-316(fp)
 4000fe4:	e0ffb017 	ldw	r3,-320(fp)
 4000fe8:	10c00015 	stw	r3,0(r2)
 4000fec:	e0ffb117 	ldw	r3,-316(fp)
 4000ff0:	10c00115 	stw	r3,4(r2)
			else if (flags & CHARINT)
				*GET_ARG (N, ap, char_ptr_t) = ret;
#endif
			else
				*GET_ARG (N, ap, int_ptr_t) = ret;
			continue;	/* no output */
 4000ff4:	00054106 	br	40024fc <___vfprintf_internal_r+0x1f78>
			if (flags & LONGINT)
 4000ff8:	8880040c 	andi	r2,r17,16
 4000ffc:	10000726 	beq	r2,zero,400101c <___vfprintf_internal_r+0xa98>
				*GET_ARG (N, ap, long_ptr_t) = ret;
 4001000:	e0bfba17 	ldw	r2,-280(fp)
 4001004:	10c00104 	addi	r3,r2,4
 4001008:	e0ffba15 	stw	r3,-280(fp)
 400100c:	10800017 	ldw	r2,0(r2)
 4001010:	e0fff717 	ldw	r3,-36(fp)
 4001014:	10c00015 	stw	r3,0(r2)
			continue;	/* no output */
 4001018:	00053806 	br	40024fc <___vfprintf_internal_r+0x1f78>
			else if (flags & SHORTINT)
 400101c:	8880100c 	andi	r2,r17,64
 4001020:	10000726 	beq	r2,zero,4001040 <___vfprintf_internal_r+0xabc>
				*GET_ARG (N, ap, short_ptr_t) = ret;
 4001024:	e0bfba17 	ldw	r2,-280(fp)
 4001028:	10c00104 	addi	r3,r2,4
 400102c:	e0ffba15 	stw	r3,-280(fp)
 4001030:	10800017 	ldw	r2,0(r2)
 4001034:	e0fff717 	ldw	r3,-36(fp)
 4001038:	10c0000d 	sth	r3,0(r2)
			continue;	/* no output */
 400103c:	00052f06 	br	40024fc <___vfprintf_internal_r+0x1f78>
				*GET_ARG (N, ap, int_ptr_t) = ret;
 4001040:	e0bfba17 	ldw	r2,-280(fp)
 4001044:	10c00104 	addi	r3,r2,4
 4001048:	e0ffba15 	stw	r3,-280(fp)
 400104c:	10800017 	ldw	r2,0(r2)
 4001050:	e0fff717 	ldw	r3,-36(fp)
 4001054:	10c00015 	stw	r3,0(r2)
			continue;	/* no output */
 4001058:	00052806 	br	40024fc <___vfprintf_internal_r+0x1f78>
		case 'O': /* extension */
			flags |= LONGINT;
 400105c:	8c400414 	ori	r17,r17,16
			/*FALLTHROUGH*/
		case 'o':
			_uquad = UARG ();
 4001060:	8880080c 	andi	r2,r17,32
 4001064:	10000626 	beq	r2,zero,4001080 <___vfprintf_internal_r+0xafc>
 4001068:	e0bfba17 	ldw	r2,-280(fp)
 400106c:	10c00204 	addi	r3,r2,8
 4001070:	e0ffba15 	stw	r3,-280(fp)
 4001074:	15800017 	ldw	r22,0(r2)
 4001078:	15c00117 	ldw	r23,4(r2)
 400107c:	00001906 	br	40010e4 <___vfprintf_internal_r+0xb60>
 4001080:	8880040c 	andi	r2,r17,16
 4001084:	10000726 	beq	r2,zero,40010a4 <___vfprintf_internal_r+0xb20>
 4001088:	e0bfba17 	ldw	r2,-280(fp)
 400108c:	10c00104 	addi	r3,r2,4
 4001090:	e0ffba15 	stw	r3,-280(fp)
 4001094:	10800017 	ldw	r2,0(r2)
 4001098:	102d883a 	mov	r22,r2
 400109c:	002f883a 	mov	r23,zero
 40010a0:	00001006 	br	40010e4 <___vfprintf_internal_r+0xb60>
 40010a4:	8880100c 	andi	r2,r17,64
 40010a8:	10000826 	beq	r2,zero,40010cc <___vfprintf_internal_r+0xb48>
 40010ac:	e0bfba17 	ldw	r2,-280(fp)
 40010b0:	10c00104 	addi	r3,r2,4
 40010b4:	e0ffba15 	stw	r3,-280(fp)
 40010b8:	10800017 	ldw	r2,0(r2)
 40010bc:	10bfffcc 	andi	r2,r2,65535
 40010c0:	102d883a 	mov	r22,r2
 40010c4:	002f883a 	mov	r23,zero
 40010c8:	00000606 	br	40010e4 <___vfprintf_internal_r+0xb60>
 40010cc:	e0bfba17 	ldw	r2,-280(fp)
 40010d0:	10c00104 	addi	r3,r2,4
 40010d4:	e0ffba15 	stw	r3,-280(fp)
 40010d8:	10800017 	ldw	r2,0(r2)
 40010dc:	102d883a 	mov	r22,r2
 40010e0:	002f883a 	mov	r23,zero
 40010e4:	e5bff115 	stw	r22,-60(fp)
 40010e8:	e5fff215 	stw	r23,-56(fp)
			base = OCT;
 40010ec:	e03ff015 	stw	zero,-64(fp)
#ifdef _WANT_IO_C99_FORMATS
			flags &= ~GROUPING;
#endif
			goto nosign;
 40010f0:	00009d06 	br	4001368 <___vfprintf_internal_r+0xde4>
			 * of printable characters, in an implementation-
			 * defined manner.''
			 *	-- ANSI X3J11
			 */
			/* NOSTRICT */
			_uquad = (uintptr_t) GET_ARG (N, ap, void_ptr_t);
 40010f4:	e0bfba17 	ldw	r2,-280(fp)
 40010f8:	10c00104 	addi	r3,r2,4
 40010fc:	e0ffba15 	stw	r3,-280(fp)
 4001100:	10800017 	ldw	r2,0(r2)
 4001104:	e0bff115 	stw	r2,-60(fp)
 4001108:	e03ff215 	stw	zero,-56(fp)
			base = HEX;
 400110c:	00800084 	movi	r2,2
 4001110:	e0bff015 	stw	r2,-64(fp)
			xdigs = "0123456789abcdef";
 4001114:	00810074 	movhi	r2,1025
 4001118:	108da504 	addi	r2,r2,13972
 400111c:	e0bfec15 	stw	r2,-80(fp)
			flags |= HEXPREFIX;
 4001120:	8c400094 	ori	r17,r17,2
			ox[0] = '0';
 4001124:	00800c04 	movi	r2,48
 4001128:	e0bfbe85 	stb	r2,-262(fp)
			ox[1] = ch = 'x';
 400112c:	05001e04 	movi	r20,120
 4001130:	00801e04 	movi	r2,120
 4001134:	e0bfbec5 	stb	r2,-261(fp)
			goto nosign;
 4001138:	00008b06 	br	4001368 <___vfprintf_internal_r+0xde4>
		case 's':
#ifdef _WANT_IO_C99_FORMATS
		case 'S':
#endif
			cp = GET_ARG (N, ap, char_ptr_t);
 400113c:	e0bfba17 	ldw	r2,-280(fp)
 4001140:	10c00104 	addi	r3,r2,4
 4001144:	e0ffba15 	stw	r3,-280(fp)
 4001148:	14800017 	ldw	r18,0(r2)
#ifdef _GLIBC_EXTENSION
string:
#endif
			sign = '\0';
 400114c:	e03fe2c5 	stb	zero,-117(fp)
#ifndef __OPTIMIZE_SIZE__
			/* Behavior is undefined if the user passed a
			   NULL string when precision is not 0.
			   However, if we are not optimizing for size,
			   we might as well mirror glibc behavior.  */
			if (cp == NULL) {
 4001150:	9000081e 	bne	r18,zero,4001174 <___vfprintf_internal_r+0xbf0>
				cp = "(null)";
 4001154:	04810074 	movhi	r18,1025
 4001158:	948daa04 	addi	r18,r18,13992
				size = ((unsigned) prec > 6U) ? 6 : prec;
 400115c:	e0bff517 	ldw	r2,-44(fp)
 4001160:	10c001f0 	cmpltui	r3,r2,7
 4001164:	1800011e 	bne	r3,zero,400116c <___vfprintf_internal_r+0xbe8>
 4001168:	00800184 	movi	r2,6
 400116c:	e0bfed15 	stw	r2,-76(fp)
				else
					size = prec;
			} else
				size = strlen (cp);

			break;
 4001170:	00011506 	br	40015c8 <___vfprintf_internal_r+0x1044>
			if (prec >= 0) {
 4001174:	e0bff517 	ldw	r2,-44(fp)
 4001178:	10000f16 	blt	r2,zero,40011b8 <___vfprintf_internal_r+0xc34>
				char *p = memchr (cp, 0, prec);
 400117c:	e0bff517 	ldw	r2,-44(fp)
 4001180:	100d883a 	mov	r6,r2
 4001184:	000b883a 	mov	r5,zero
 4001188:	9009883a 	mov	r4,r18
 400118c:	40073d80 	call	40073d8 <memchr>
 4001190:	e0bfe415 	stw	r2,-112(fp)
				if (p != NULL)
 4001194:	e0bfe417 	ldw	r2,-112(fp)
 4001198:	10000426 	beq	r2,zero,40011ac <___vfprintf_internal_r+0xc28>
					size = p - cp;
 400119c:	e0bfe417 	ldw	r2,-112(fp)
 40011a0:	1485c83a 	sub	r2,r2,r18
 40011a4:	e0bfed15 	stw	r2,-76(fp)
			break;
 40011a8:	00010706 	br	40015c8 <___vfprintf_internal_r+0x1044>
					size = prec;
 40011ac:	e0bff517 	ldw	r2,-44(fp)
 40011b0:	e0bfed15 	stw	r2,-76(fp)
			break;
 40011b4:	00010406 	br	40015c8 <___vfprintf_internal_r+0x1044>
				size = strlen (cp);
 40011b8:	9009883a 	mov	r4,r18
 40011bc:	40098340 	call	4009834 <strlen>
 40011c0:	e0bfed15 	stw	r2,-76(fp)
			break;
 40011c4:	00010006 	br	40015c8 <___vfprintf_internal_r+0x1044>
		case 'U': /* extension */
			flags |= LONGINT;
 40011c8:	8c400414 	ori	r17,r17,16
			/*FALLTHROUGH*/
		case 'u':
			_uquad = UARG ();
 40011cc:	8880080c 	andi	r2,r17,32
 40011d0:	10000826 	beq	r2,zero,40011f4 <___vfprintf_internal_r+0xc70>
 40011d4:	e0bfba17 	ldw	r2,-280(fp)
 40011d8:	10c00204 	addi	r3,r2,8
 40011dc:	e0ffba15 	stw	r3,-280(fp)
 40011e0:	10c00017 	ldw	r3,0(r2)
 40011e4:	e0ffb615 	stw	r3,-296(fp)
 40011e8:	10800117 	ldw	r2,4(r2)
 40011ec:	e0bfb715 	stw	r2,-292(fp)
 40011f0:	00001906 	br	4001258 <___vfprintf_internal_r+0xcd4>
 40011f4:	8880040c 	andi	r2,r17,16
 40011f8:	10000726 	beq	r2,zero,4001218 <___vfprintf_internal_r+0xc94>
 40011fc:	e0bfba17 	ldw	r2,-280(fp)
 4001200:	10c00104 	addi	r3,r2,4
 4001204:	e0ffba15 	stw	r3,-280(fp)
 4001208:	10800017 	ldw	r2,0(r2)
 400120c:	e0bfb615 	stw	r2,-296(fp)
 4001210:	e03fb715 	stw	zero,-292(fp)
 4001214:	00001006 	br	4001258 <___vfprintf_internal_r+0xcd4>
 4001218:	8880100c 	andi	r2,r17,64
 400121c:	10000826 	beq	r2,zero,4001240 <___vfprintf_internal_r+0xcbc>
 4001220:	e0bfba17 	ldw	r2,-280(fp)
 4001224:	10c00104 	addi	r3,r2,4
 4001228:	e0ffba15 	stw	r3,-280(fp)
 400122c:	10800017 	ldw	r2,0(r2)
 4001230:	10bfffcc 	andi	r2,r2,65535
 4001234:	e0bfb615 	stw	r2,-296(fp)
 4001238:	e03fb715 	stw	zero,-292(fp)
 400123c:	00000606 	br	4001258 <___vfprintf_internal_r+0xcd4>
 4001240:	e0bfba17 	ldw	r2,-280(fp)
 4001244:	10c00104 	addi	r3,r2,4
 4001248:	e0ffba15 	stw	r3,-280(fp)
 400124c:	10800017 	ldw	r2,0(r2)
 4001250:	e0bfb615 	stw	r2,-296(fp)
 4001254:	e03fb715 	stw	zero,-292(fp)
 4001258:	e0bfb617 	ldw	r2,-296(fp)
 400125c:	e0bff115 	stw	r2,-60(fp)
 4001260:	e0bfb717 	ldw	r2,-292(fp)
 4001264:	e0bff215 	stw	r2,-56(fp)
			base = DEC;
 4001268:	00800044 	movi	r2,1
 400126c:	e0bff015 	stw	r2,-64(fp)
			goto nosign;
 4001270:	00003d06 	br	4001368 <___vfprintf_internal_r+0xde4>
		case 'X':
			xdigs = "0123456789ABCDEF";
 4001274:	00810074 	movhi	r2,1025
 4001278:	108dac04 	addi	r2,r2,14000
 400127c:	e0bfec15 	stw	r2,-80(fp)
			goto hex;
 4001280:	00000306 	br	4001290 <___vfprintf_internal_r+0xd0c>
		case 'x':
			xdigs = "0123456789abcdef";
 4001284:	00810074 	movhi	r2,1025
 4001288:	108da504 	addi	r2,r2,13972
 400128c:	e0bfec15 	stw	r2,-80(fp)
hex:			_uquad = UARG ();
 4001290:	8880080c 	andi	r2,r17,32
 4001294:	10000826 	beq	r2,zero,40012b8 <___vfprintf_internal_r+0xd34>
 4001298:	e0bfba17 	ldw	r2,-280(fp)
 400129c:	10c00204 	addi	r3,r2,8
 40012a0:	e0ffba15 	stw	r3,-280(fp)
 40012a4:	10c00017 	ldw	r3,0(r2)
 40012a8:	e0ffb415 	stw	r3,-304(fp)
 40012ac:	10800117 	ldw	r2,4(r2)
 40012b0:	e0bfb515 	stw	r2,-300(fp)
 40012b4:	00001906 	br	400131c <___vfprintf_internal_r+0xd98>
 40012b8:	8880040c 	andi	r2,r17,16
 40012bc:	10000726 	beq	r2,zero,40012dc <___vfprintf_internal_r+0xd58>
 40012c0:	e0bfba17 	ldw	r2,-280(fp)
 40012c4:	10c00104 	addi	r3,r2,4
 40012c8:	e0ffba15 	stw	r3,-280(fp)
 40012cc:	10800017 	ldw	r2,0(r2)
 40012d0:	e0bfb415 	stw	r2,-304(fp)
 40012d4:	e03fb515 	stw	zero,-300(fp)
 40012d8:	00001006 	br	400131c <___vfprintf_internal_r+0xd98>
 40012dc:	8880100c 	andi	r2,r17,64
 40012e0:	10000826 	beq	r2,zero,4001304 <___vfprintf_internal_r+0xd80>
 40012e4:	e0bfba17 	ldw	r2,-280(fp)
 40012e8:	10c00104 	addi	r3,r2,4
 40012ec:	e0ffba15 	stw	r3,-280(fp)
 40012f0:	10800017 	ldw	r2,0(r2)
 40012f4:	10bfffcc 	andi	r2,r2,65535
 40012f8:	e0bfb415 	stw	r2,-304(fp)
 40012fc:	e03fb515 	stw	zero,-300(fp)
 4001300:	00000606 	br	400131c <___vfprintf_internal_r+0xd98>
 4001304:	e0bfba17 	ldw	r2,-280(fp)
 4001308:	10c00104 	addi	r3,r2,4
 400130c:	e0ffba15 	stw	r3,-280(fp)
 4001310:	10800017 	ldw	r2,0(r2)
 4001314:	e0bfb415 	stw	r2,-304(fp)
 4001318:	e03fb515 	stw	zero,-300(fp)
 400131c:	e0bfb417 	ldw	r2,-304(fp)
 4001320:	e0bff115 	stw	r2,-60(fp)
 4001324:	e0bfb517 	ldw	r2,-300(fp)
 4001328:	e0bff215 	stw	r2,-56(fp)
			base = HEX;
 400132c:	00800084 	movi	r2,2
 4001330:	e0bff015 	stw	r2,-64(fp)
			/* leading 0x/X only if non-zero */
			if (flags & ALT && _uquad != 0) {
 4001334:	8880004c 	andi	r2,r17,1
 4001338:	10000a26 	beq	r2,zero,4001364 <___vfprintf_internal_r+0xde0>
 400133c:	e0bff117 	ldw	r2,-60(fp)
 4001340:	e0fff217 	ldw	r3,-56(fp)
 4001344:	10c4b03a 	or	r2,r2,r3
 4001348:	10000726 	beq	r2,zero,4001368 <___vfprintf_internal_r+0xde4>
				ox[0] = '0';
 400134c:	00800c04 	movi	r2,48
 4001350:	e0bfbe85 	stb	r2,-262(fp)
				ox[1] = ch;
 4001354:	a005883a 	mov	r2,r20
 4001358:	e0bfbec5 	stb	r2,-261(fp)
				flags |= HEXPREFIX;
 400135c:	8c400094 	ori	r17,r17,2
 4001360:	00000106 	br	4001368 <___vfprintf_internal_r+0xde4>

#ifdef _WANT_IO_C99_FORMATS
			flags &= ~GROUPING;
#endif
			/* unsigned conversions */
nosign:			sign = '\0';
 4001364:	0001883a 	nop
 4001368:	e03fe2c5 	stb	zero,-117(fp)
			/*
			 * ``... diouXx conversions ... if a precision is
			 * specified, the 0 flag will be ignored.''
			 *	-- ANSI X3J11
			 */
number:			if ((dprec = prec) >= 0)
 400136c:	e0bff517 	ldw	r2,-44(fp)
 4001370:	e0bfef15 	stw	r2,-68(fp)
 4001374:	e0bfef17 	ldw	r2,-68(fp)
 4001378:	10000216 	blt	r2,zero,4001384 <___vfprintf_internal_r+0xe00>
				flags &= ~ZEROPAD;
 400137c:	00bfdfc4 	movi	r2,-129
 4001380:	88a2703a 	and	r17,r17,r2
			/*
			 * ``The result of converting a zero value with an
			 * explicit precision of zero is no characters.''
			 *	-- ANSI X3J11
			 */
			cp = buf + BUF;
 4001384:	e4bfbf04 	addi	r18,fp,-260
 4001388:	94800a04 	addi	r18,r18,40
			if (_uquad != 0 || prec != 0) {
 400138c:	e0bff117 	ldw	r2,-60(fp)
 4001390:	e0fff217 	ldw	r3,-56(fp)
 4001394:	10c4b03a 	or	r2,r2,r3
 4001398:	1000021e 	bne	r2,zero,40013a4 <___vfprintf_internal_r+0xe20>
 400139c:	e0bff517 	ldw	r2,-44(fp)
 40013a0:	10007426 	beq	r2,zero,4001574 <___vfprintf_internal_r+0xff0>
 40013a4:	e0bff017 	ldw	r2,-64(fp)
 40013a8:	108000a0 	cmpeqi	r2,r2,2
 40013ac:	1000531e 	bne	r2,zero,40014fc <___vfprintf_internal_r+0xf78>
 40013b0:	e0bff017 	ldw	r2,-64(fp)
 40013b4:	108000e8 	cmpgeui	r2,r2,3
 40013b8:	1000651e 	bne	r2,zero,4001550 <___vfprintf_internal_r+0xfcc>
 40013bc:	e0bff017 	ldw	r2,-64(fp)
 40013c0:	10000526 	beq	r2,zero,40013d8 <___vfprintf_internal_r+0xe54>
 40013c4:	e0bff017 	ldw	r2,-64(fp)
 40013c8:	10800060 	cmpeqi	r2,r2,1
 40013cc:	1000201e 	bne	r2,zero,4001450 <___vfprintf_internal_r+0xecc>
 40013d0:	00005f06 	br	4001550 <___vfprintf_internal_r+0xfcc>
				 * Unsigned mod is hard, and unsigned mod
				 * by a constant is easier than that by
				 * a variable; hence this switch.
				 */
				switch (base) {
				case OCT:
 40013d4:	0001883a 	nop
					do {
						*--cp = to_char (_uquad & 7);
 40013d8:	e0bff117 	ldw	r2,-60(fp)
 40013dc:	108001cc 	andi	r2,r2,7
 40013e0:	10800c04 	addi	r2,r2,48
 40013e4:	94bfffc4 	addi	r18,r18,-1
 40013e8:	90800005 	stb	r2,0(r18)
						_uquad >>= 3;
 40013ec:	e0bff217 	ldw	r2,-56(fp)
 40013f0:	1004977a 	slli	r2,r2,29
 40013f4:	e0fff117 	ldw	r3,-60(fp)
 40013f8:	1806d0fa 	srli	r3,r3,3
 40013fc:	1884b03a 	or	r2,r3,r2
 4001400:	e0bff115 	stw	r2,-60(fp)
 4001404:	e0bff217 	ldw	r2,-56(fp)
 4001408:	1004d0fa 	srli	r2,r2,3
 400140c:	e0bff215 	stw	r2,-56(fp)
					} while (_uquad);
 4001410:	e0bff117 	ldw	r2,-60(fp)
 4001414:	e0fff217 	ldw	r3,-56(fp)
 4001418:	10c4b03a 	or	r2,r2,r3
 400141c:	103fed1e 	bne	r2,zero,40013d4 <___vfprintf_internal_r+0xe50>
					/* handle octal leading 0 */
					if (flags & ALT && *cp != '0')
 4001420:	8880004c 	andi	r2,r17,1
 4001424:	10005126 	beq	r2,zero,400156c <___vfprintf_internal_r+0xfe8>
 4001428:	90800003 	ldbu	r2,0(r18)
 400142c:	10803fcc 	andi	r2,r2,255
 4001430:	1080201c 	xori	r2,r2,128
 4001434:	10bfe004 	addi	r2,r2,-128
 4001438:	10800c20 	cmpeqi	r2,r2,48
 400143c:	10004b1e 	bne	r2,zero,400156c <___vfprintf_internal_r+0xfe8>
						*--cp = '0';
 4001440:	94bfffc4 	addi	r18,r18,-1
 4001444:	00800c04 	movi	r2,48
 4001448:	90800005 	stb	r2,0(r18)
					break;
 400144c:	00004706 	br	400156c <___vfprintf_internal_r+0xfe8>

				case DEC:
					/* many numbers are 1 digit */
					if (_uquad < 10) {
 4001450:	e0bff217 	ldw	r2,-56(fp)
 4001454:	10000a1e 	bne	r2,zero,4001480 <___vfprintf_internal_r+0xefc>
 4001458:	e0bff217 	ldw	r2,-56(fp)
 400145c:	1000031e 	bne	r2,zero,400146c <___vfprintf_internal_r+0xee8>
 4001460:	e0bff117 	ldw	r2,-60(fp)
 4001464:	108002a8 	cmpgeui	r2,r2,10
 4001468:	1000051e 	bne	r2,zero,4001480 <___vfprintf_internal_r+0xefc>
						*--cp = to_char(_uquad);
 400146c:	e0bff117 	ldw	r2,-60(fp)
 4001470:	10800c04 	addi	r2,r2,48
 4001474:	94bfffc4 	addi	r18,r18,-1
 4001478:	90800005 	stb	r2,0(r18)
						break;
 400147c:	00003c06 	br	4001570 <___vfprintf_internal_r+0xfec>
					}
#ifdef _WANT_IO_C99_FORMATS
					ndig = 0;
#endif
					do {
					  *--cp = to_char (_uquad % 10);
 4001480:	e0bff117 	ldw	r2,-60(fp)
 4001484:	e0fff217 	ldw	r3,-56(fp)
 4001488:	01800284 	movi	r6,10
 400148c:	000f883a 	mov	r7,zero
 4001490:	1009883a 	mov	r4,r2
 4001494:	180b883a 	mov	r5,r3
 4001498:	400daac0 	call	400daac <__umoddi3>
 400149c:	1009883a 	mov	r4,r2
 40014a0:	180b883a 	mov	r5,r3
 40014a4:	2005883a 	mov	r2,r4
 40014a8:	2807883a 	mov	r3,r5
 40014ac:	10800c04 	addi	r2,r2,48
 40014b0:	94bfffc4 	addi	r18,r18,-1
 40014b4:	90800005 	stb	r2,0(r18)
					       next cases. */
					    if (grouping[1] != '\0')
					      grouping++;
					  }
#endif
					  _uquad /= 10;
 40014b8:	e0bff117 	ldw	r2,-60(fp)
 40014bc:	e0fff217 	ldw	r3,-56(fp)
 40014c0:	01800284 	movi	r6,10
 40014c4:	000f883a 	mov	r7,zero
 40014c8:	1009883a 	mov	r4,r2
 40014cc:	180b883a 	mov	r5,r3
 40014d0:	400d51c0 	call	400d51c <__udivdi3>
 40014d4:	1009883a 	mov	r4,r2
 40014d8:	180b883a 	mov	r5,r3
 40014dc:	e13ff115 	stw	r4,-60(fp)
 40014e0:	e17ff215 	stw	r5,-56(fp)
					} while (_uquad != 0);
 40014e4:	e0bff117 	ldw	r2,-60(fp)
 40014e8:	e0fff217 	ldw	r3,-56(fp)
 40014ec:	10c4b03a 	or	r2,r2,r3
 40014f0:	103fe31e 	bne	r2,zero,4001480 <___vfprintf_internal_r+0xefc>
					break;
 40014f4:	00001e06 	br	4001570 <___vfprintf_internal_r+0xfec>

				case HEX:
 40014f8:	0001883a 	nop
					do {
						*--cp = xdigs[_uquad & 15];
 40014fc:	e0bff117 	ldw	r2,-60(fp)
 4001500:	108003cc 	andi	r2,r2,15
 4001504:	e0ffec17 	ldw	r3,-80(fp)
 4001508:	1885883a 	add	r2,r3,r2
 400150c:	94bfffc4 	addi	r18,r18,-1
 4001510:	10800003 	ldbu	r2,0(r2)
 4001514:	90800005 	stb	r2,0(r18)
						_uquad >>= 4;
 4001518:	e0bff217 	ldw	r2,-56(fp)
 400151c:	1004973a 	slli	r2,r2,28
 4001520:	e0fff117 	ldw	r3,-60(fp)
 4001524:	1806d13a 	srli	r3,r3,4
 4001528:	1884b03a 	or	r2,r3,r2
 400152c:	e0bff115 	stw	r2,-60(fp)
 4001530:	e0bff217 	ldw	r2,-56(fp)
 4001534:	1004d13a 	srli	r2,r2,4
 4001538:	e0bff215 	stw	r2,-56(fp)
					} while (_uquad);
 400153c:	e0bff117 	ldw	r2,-60(fp)
 4001540:	e0fff217 	ldw	r3,-56(fp)
 4001544:	10c4b03a 	or	r2,r2,r3
 4001548:	103feb1e 	bne	r2,zero,40014f8 <___vfprintf_internal_r+0xf74>
					break;
 400154c:	00000806 	br	4001570 <___vfprintf_internal_r+0xfec>

				default:
					cp = "bug in vfprintf: bad base";
 4001550:	04810074 	movhi	r18,1025
 4001554:	948db104 	addi	r18,r18,14020
					size = strlen (cp);
 4001558:	9009883a 	mov	r4,r18
 400155c:	40098340 	call	4009834 <strlen>
 4001560:	e0bfed15 	stw	r2,-76(fp)
					goto skipsize;
 4001564:	0001883a 	nop
                       else if (base == OCT && (flags & ALT))
                         *--cp = '0';

			size = buf + BUF - cp;
		skipsize:
			break;
 4001568:	00001706 	br	40015c8 <___vfprintf_internal_r+0x1044>
					break;
 400156c:	0001883a 	nop
				switch (base) {
 4001570:	00000706 	br	4001590 <___vfprintf_internal_r+0x100c>
                       else if (base == OCT && (flags & ALT))
 4001574:	e0bff017 	ldw	r2,-64(fp)
 4001578:	1000051e 	bne	r2,zero,4001590 <___vfprintf_internal_r+0x100c>
 400157c:	8880004c 	andi	r2,r17,1
 4001580:	10000326 	beq	r2,zero,4001590 <___vfprintf_internal_r+0x100c>
                         *--cp = '0';
 4001584:	94bfffc4 	addi	r18,r18,-1
 4001588:	00800c04 	movi	r2,48
 400158c:	90800005 	stb	r2,0(r18)
			size = buf + BUF - cp;
 4001590:	e0bfbf04 	addi	r2,fp,-260
 4001594:	10800a04 	addi	r2,r2,40
 4001598:	1485c83a 	sub	r2,r2,r18
 400159c:	e0bfed15 	stw	r2,-76(fp)
			break;
 40015a0:	00000906 	br	40015c8 <___vfprintf_internal_r+0x1044>
		default:	/* "%?" prints ?, unless ? is NUL */
			if (ch == '\0')
 40015a4:	a003d826 	beq	r20,zero,4002508 <___vfprintf_internal_r+0x1f84>
				goto done;
			/* pretend it was %c with argument ch */
			cp = buf;
 40015a8:	e4bfbf04 	addi	r18,fp,-260
			*cp = ch;
 40015ac:	a005883a 	mov	r2,r20
 40015b0:	90800005 	stb	r2,0(r18)
			size = 1;
 40015b4:	00800044 	movi	r2,1
 40015b8:	e0bfed15 	stw	r2,-76(fp)
			sign = '\0';
 40015bc:	e03fe2c5 	stb	zero,-117(fp)
			break;
 40015c0:	00000106 	br	40015c8 <___vfprintf_internal_r+0x1044>
			break;
 40015c4:	0001883a 	nop
		 * If flags&FPT, ch must be in [aAeEfg].
		 *
		 * Compute actual size, so we know how much to pad.
		 * size excludes decimal prec; realsz includes it.
		 */
		realsz = dprec > size ? dprec : size;
 40015c8:	e0ffef17 	ldw	r3,-68(fp)
 40015cc:	e0bfed17 	ldw	r2,-76(fp)
 40015d0:	10c0010e 	bge	r2,r3,40015d8 <___vfprintf_internal_r+0x1054>
 40015d4:	1805883a 	mov	r2,r3
 40015d8:	e0bfee15 	stw	r2,-72(fp)
		if (sign)
 40015dc:	e0bfe2c3 	ldbu	r2,-117(fp)
 40015e0:	10803fcc 	andi	r2,r2,255
 40015e4:	1080201c 	xori	r2,r2,128
 40015e8:	10bfe004 	addi	r2,r2,-128
 40015ec:	10000326 	beq	r2,zero,40015fc <___vfprintf_internal_r+0x1078>
			realsz++;
 40015f0:	e0bfee17 	ldw	r2,-72(fp)
 40015f4:	10800044 	addi	r2,r2,1
 40015f8:	e0bfee15 	stw	r2,-72(fp)
		if (flags & HEXPREFIX)
 40015fc:	8880008c 	andi	r2,r17,2
 4001600:	10000326 	beq	r2,zero,4001610 <___vfprintf_internal_r+0x108c>
			realsz+= 2;
 4001604:	e0bfee17 	ldw	r2,-72(fp)
 4001608:	10800084 	addi	r2,r2,2
 400160c:	e0bfee15 	stw	r2,-72(fp)

		/* right-adjusting blank padding */
		if ((flags & (LADJUST|ZEROPAD)) == 0)
 4001610:	8880210c 	andi	r2,r17,132
 4001614:	1000351e 	bne	r2,zero,40016ec <___vfprintf_internal_r+0x1168>
			PAD (width - realsz, blanks);
 4001618:	e0fff617 	ldw	r3,-40(fp)
 400161c:	e0bfee17 	ldw	r2,-72(fp)
 4001620:	18a7c83a 	sub	r19,r3,r2
 4001624:	04c0310e 	bge	zero,r19,40016ec <___vfprintf_internal_r+0x1168>
 4001628:	00001706 	br	4001688 <___vfprintf_internal_r+0x1104>
 400162c:	00810074 	movhi	r2,1025
 4001630:	108db904 	addi	r2,r2,14052
 4001634:	80800015 	stw	r2,0(r16)
 4001638:	00800404 	movi	r2,16
 400163c:	80800115 	stw	r2,4(r16)
 4001640:	e0bfdb17 	ldw	r2,-148(fp)
 4001644:	10800404 	addi	r2,r2,16
 4001648:	e0bfdb15 	stw	r2,-148(fp)
 400164c:	84000204 	addi	r16,r16,8
 4001650:	e0bfda17 	ldw	r2,-152(fp)
 4001654:	10800044 	addi	r2,r2,1
 4001658:	e0bfda15 	stw	r2,-152(fp)
 400165c:	e0bfda17 	ldw	r2,-152(fp)
 4001660:	10800210 	cmplti	r2,r2,8
 4001664:	1000071e 	bne	r2,zero,4001684 <___vfprintf_internal_r+0x1100>
 4001668:	e0bfd904 	addi	r2,fp,-156
 400166c:	100d883a 	mov	r6,r2
 4001670:	e17fbc17 	ldw	r5,-272(fp)
 4001674:	e13fbd17 	ldw	r4,-268(fp)
 4001678:	40099280 	call	4009928 <__sprint_r>
 400167c:	1003b01e 	bne	r2,zero,4002540 <___vfprintf_internal_r+0x1fbc>
 4001680:	e43fc904 	addi	r16,fp,-220
 4001684:	9cfffc04 	addi	r19,r19,-16
 4001688:	98800448 	cmpgei	r2,r19,17
 400168c:	103fe71e 	bne	r2,zero,400162c <___vfprintf_internal_r+0x10a8>
 4001690:	00810074 	movhi	r2,1025
 4001694:	108db904 	addi	r2,r2,14052
 4001698:	80800015 	stw	r2,0(r16)
 400169c:	9805883a 	mov	r2,r19
 40016a0:	80800115 	stw	r2,4(r16)
 40016a4:	e0bfdb17 	ldw	r2,-148(fp)
 40016a8:	9807883a 	mov	r3,r19
 40016ac:	10c5883a 	add	r2,r2,r3
 40016b0:	e0bfdb15 	stw	r2,-148(fp)
 40016b4:	84000204 	addi	r16,r16,8
 40016b8:	e0bfda17 	ldw	r2,-152(fp)
 40016bc:	10800044 	addi	r2,r2,1
 40016c0:	e0bfda15 	stw	r2,-152(fp)
 40016c4:	e0bfda17 	ldw	r2,-152(fp)
 40016c8:	10800210 	cmplti	r2,r2,8
 40016cc:	1000071e 	bne	r2,zero,40016ec <___vfprintf_internal_r+0x1168>
 40016d0:	e0bfd904 	addi	r2,fp,-156
 40016d4:	100d883a 	mov	r6,r2
 40016d8:	e17fbc17 	ldw	r5,-272(fp)
 40016dc:	e13fbd17 	ldw	r4,-268(fp)
 40016e0:	40099280 	call	4009928 <__sprint_r>
 40016e4:	1003981e 	bne	r2,zero,4002548 <___vfprintf_internal_r+0x1fc4>
 40016e8:	e43fc904 	addi	r16,fp,-220

		/* prefix */
		if (sign)
 40016ec:	e0bfe2c3 	ldbu	r2,-117(fp)
 40016f0:	10803fcc 	andi	r2,r2,255
 40016f4:	1080201c 	xori	r2,r2,128
 40016f8:	10bfe004 	addi	r2,r2,-128
 40016fc:	10001526 	beq	r2,zero,4001754 <___vfprintf_internal_r+0x11d0>
			PRINT (&sign, 1);
 4001700:	e0bfe2c4 	addi	r2,fp,-117
 4001704:	80800015 	stw	r2,0(r16)
 4001708:	00800044 	movi	r2,1
 400170c:	80800115 	stw	r2,4(r16)
 4001710:	e0bfdb17 	ldw	r2,-148(fp)
 4001714:	10800044 	addi	r2,r2,1
 4001718:	e0bfdb15 	stw	r2,-148(fp)
 400171c:	84000204 	addi	r16,r16,8
 4001720:	e0bfda17 	ldw	r2,-152(fp)
 4001724:	10800044 	addi	r2,r2,1
 4001728:	e0bfda15 	stw	r2,-152(fp)
 400172c:	e0bfda17 	ldw	r2,-152(fp)
 4001730:	10800210 	cmplti	r2,r2,8
 4001734:	1000071e 	bne	r2,zero,4001754 <___vfprintf_internal_r+0x11d0>
 4001738:	e0bfd904 	addi	r2,fp,-156
 400173c:	100d883a 	mov	r6,r2
 4001740:	e17fbc17 	ldw	r5,-272(fp)
 4001744:	e13fbd17 	ldw	r4,-268(fp)
 4001748:	40099280 	call	4009928 <__sprint_r>
 400174c:	1003801e 	bne	r2,zero,4002550 <___vfprintf_internal_r+0x1fcc>
 4001750:	e43fc904 	addi	r16,fp,-220
		if (flags & HEXPREFIX)
 4001754:	8880008c 	andi	r2,r17,2
 4001758:	10001526 	beq	r2,zero,40017b0 <___vfprintf_internal_r+0x122c>
			PRINT (ox, 2);
 400175c:	e0bfbe84 	addi	r2,fp,-262
 4001760:	80800015 	stw	r2,0(r16)
 4001764:	00800084 	movi	r2,2
 4001768:	80800115 	stw	r2,4(r16)
 400176c:	e0bfdb17 	ldw	r2,-148(fp)
 4001770:	10800084 	addi	r2,r2,2
 4001774:	e0bfdb15 	stw	r2,-148(fp)
 4001778:	84000204 	addi	r16,r16,8
 400177c:	e0bfda17 	ldw	r2,-152(fp)
 4001780:	10800044 	addi	r2,r2,1
 4001784:	e0bfda15 	stw	r2,-152(fp)
 4001788:	e0bfda17 	ldw	r2,-152(fp)
 400178c:	10800210 	cmplti	r2,r2,8
 4001790:	1000071e 	bne	r2,zero,40017b0 <___vfprintf_internal_r+0x122c>
 4001794:	e0bfd904 	addi	r2,fp,-156
 4001798:	100d883a 	mov	r6,r2
 400179c:	e17fbc17 	ldw	r5,-272(fp)
 40017a0:	e13fbd17 	ldw	r4,-268(fp)
 40017a4:	40099280 	call	4009928 <__sprint_r>
 40017a8:	10036b1e 	bne	r2,zero,4002558 <___vfprintf_internal_r+0x1fd4>
 40017ac:	e43fc904 	addi	r16,fp,-220

		/* right-adjusting zero padding */
		if ((flags & (LADJUST|ZEROPAD)) == ZEROPAD)
 40017b0:	8880210c 	andi	r2,r17,132
 40017b4:	10802018 	cmpnei	r2,r2,128
 40017b8:	1000351e 	bne	r2,zero,4001890 <___vfprintf_internal_r+0x130c>
			PAD (width - realsz, zeroes);
 40017bc:	e0fff617 	ldw	r3,-40(fp)
 40017c0:	e0bfee17 	ldw	r2,-72(fp)
 40017c4:	18a7c83a 	sub	r19,r3,r2
 40017c8:	04c0310e 	bge	zero,r19,4001890 <___vfprintf_internal_r+0x130c>
 40017cc:	00001706 	br	400182c <___vfprintf_internal_r+0x12a8>
 40017d0:	00810074 	movhi	r2,1025
 40017d4:	108dbd04 	addi	r2,r2,14068
 40017d8:	80800015 	stw	r2,0(r16)
 40017dc:	00800404 	movi	r2,16
 40017e0:	80800115 	stw	r2,4(r16)
 40017e4:	e0bfdb17 	ldw	r2,-148(fp)
 40017e8:	10800404 	addi	r2,r2,16
 40017ec:	e0bfdb15 	stw	r2,-148(fp)
 40017f0:	84000204 	addi	r16,r16,8
 40017f4:	e0bfda17 	ldw	r2,-152(fp)
 40017f8:	10800044 	addi	r2,r2,1
 40017fc:	e0bfda15 	stw	r2,-152(fp)
 4001800:	e0bfda17 	ldw	r2,-152(fp)
 4001804:	10800210 	cmplti	r2,r2,8
 4001808:	1000071e 	bne	r2,zero,4001828 <___vfprintf_internal_r+0x12a4>
 400180c:	e0bfd904 	addi	r2,fp,-156
 4001810:	100d883a 	mov	r6,r2
 4001814:	e17fbc17 	ldw	r5,-272(fp)
 4001818:	e13fbd17 	ldw	r4,-268(fp)
 400181c:	40099280 	call	4009928 <__sprint_r>
 4001820:	10034f1e 	bne	r2,zero,4002560 <___vfprintf_internal_r+0x1fdc>
 4001824:	e43fc904 	addi	r16,fp,-220
 4001828:	9cfffc04 	addi	r19,r19,-16
 400182c:	98800448 	cmpgei	r2,r19,17
 4001830:	103fe71e 	bne	r2,zero,40017d0 <___vfprintf_internal_r+0x124c>
 4001834:	00810074 	movhi	r2,1025
 4001838:	108dbd04 	addi	r2,r2,14068
 400183c:	80800015 	stw	r2,0(r16)
 4001840:	9805883a 	mov	r2,r19
 4001844:	80800115 	stw	r2,4(r16)
 4001848:	e0bfdb17 	ldw	r2,-148(fp)
 400184c:	9807883a 	mov	r3,r19
 4001850:	10c5883a 	add	r2,r2,r3
 4001854:	e0bfdb15 	stw	r2,-148(fp)
 4001858:	84000204 	addi	r16,r16,8
 400185c:	e0bfda17 	ldw	r2,-152(fp)
 4001860:	10800044 	addi	r2,r2,1
 4001864:	e0bfda15 	stw	r2,-152(fp)
 4001868:	e0bfda17 	ldw	r2,-152(fp)
 400186c:	10800210 	cmplti	r2,r2,8
 4001870:	1000071e 	bne	r2,zero,4001890 <___vfprintf_internal_r+0x130c>
 4001874:	e0bfd904 	addi	r2,fp,-156
 4001878:	100d883a 	mov	r6,r2
 400187c:	e17fbc17 	ldw	r5,-272(fp)
 4001880:	e13fbd17 	ldw	r4,-268(fp)
 4001884:	40099280 	call	4009928 <__sprint_r>
 4001888:	1003371e 	bne	r2,zero,4002568 <___vfprintf_internal_r+0x1fe4>
 400188c:	e43fc904 	addi	r16,fp,-220

		/* leading zeroes from decimal precision */
		PAD (dprec - size, zeroes);
 4001890:	e0ffef17 	ldw	r3,-68(fp)
 4001894:	e0bfed17 	ldw	r2,-76(fp)
 4001898:	18a7c83a 	sub	r19,r3,r2
 400189c:	04c0310e 	bge	zero,r19,4001964 <___vfprintf_internal_r+0x13e0>
 40018a0:	00001706 	br	4001900 <___vfprintf_internal_r+0x137c>
 40018a4:	00810074 	movhi	r2,1025
 40018a8:	108dbd04 	addi	r2,r2,14068
 40018ac:	80800015 	stw	r2,0(r16)
 40018b0:	00800404 	movi	r2,16
 40018b4:	80800115 	stw	r2,4(r16)
 40018b8:	e0bfdb17 	ldw	r2,-148(fp)
 40018bc:	10800404 	addi	r2,r2,16
 40018c0:	e0bfdb15 	stw	r2,-148(fp)
 40018c4:	84000204 	addi	r16,r16,8
 40018c8:	e0bfda17 	ldw	r2,-152(fp)
 40018cc:	10800044 	addi	r2,r2,1
 40018d0:	e0bfda15 	stw	r2,-152(fp)
 40018d4:	e0bfda17 	ldw	r2,-152(fp)
 40018d8:	10800210 	cmplti	r2,r2,8
 40018dc:	1000071e 	bne	r2,zero,40018fc <___vfprintf_internal_r+0x1378>
 40018e0:	e0bfd904 	addi	r2,fp,-156
 40018e4:	100d883a 	mov	r6,r2
 40018e8:	e17fbc17 	ldw	r5,-272(fp)
 40018ec:	e13fbd17 	ldw	r4,-268(fp)
 40018f0:	40099280 	call	4009928 <__sprint_r>
 40018f4:	10031e1e 	bne	r2,zero,4002570 <___vfprintf_internal_r+0x1fec>
 40018f8:	e43fc904 	addi	r16,fp,-220
 40018fc:	9cfffc04 	addi	r19,r19,-16
 4001900:	98800448 	cmpgei	r2,r19,17
 4001904:	103fe71e 	bne	r2,zero,40018a4 <___vfprintf_internal_r+0x1320>
 4001908:	00810074 	movhi	r2,1025
 400190c:	108dbd04 	addi	r2,r2,14068
 4001910:	80800015 	stw	r2,0(r16)
 4001914:	9805883a 	mov	r2,r19
 4001918:	80800115 	stw	r2,4(r16)
 400191c:	e0bfdb17 	ldw	r2,-148(fp)
 4001920:	9807883a 	mov	r3,r19
 4001924:	10c5883a 	add	r2,r2,r3
 4001928:	e0bfdb15 	stw	r2,-148(fp)
 400192c:	84000204 	addi	r16,r16,8
 4001930:	e0bfda17 	ldw	r2,-152(fp)
 4001934:	10800044 	addi	r2,r2,1
 4001938:	e0bfda15 	stw	r2,-152(fp)
 400193c:	e0bfda17 	ldw	r2,-152(fp)
 4001940:	10800210 	cmplti	r2,r2,8
 4001944:	1000071e 	bne	r2,zero,4001964 <___vfprintf_internal_r+0x13e0>
 4001948:	e0bfd904 	addi	r2,fp,-156
 400194c:	100d883a 	mov	r6,r2
 4001950:	e17fbc17 	ldw	r5,-272(fp)
 4001954:	e13fbd17 	ldw	r4,-268(fp)
 4001958:	40099280 	call	4009928 <__sprint_r>
 400195c:	1003061e 	bne	r2,zero,4002578 <___vfprintf_internal_r+0x1ff4>
 4001960:	e43fc904 	addi	r16,fp,-220

		/* the string or number proper */
#ifdef FLOATING_POINT
		if ((flags & FPT) == 0) {
 4001964:	8880400c 	andi	r2,r17,256
 4001968:	1000161e 	bne	r2,zero,40019c4 <___vfprintf_internal_r+0x1440>
			PRINT (cp, size);
 400196c:	84800015 	stw	r18,0(r16)
 4001970:	e0bfed17 	ldw	r2,-76(fp)
 4001974:	80800115 	stw	r2,4(r16)
 4001978:	e0ffdb17 	ldw	r3,-148(fp)
 400197c:	e0bfed17 	ldw	r2,-76(fp)
 4001980:	1885883a 	add	r2,r3,r2
 4001984:	e0bfdb15 	stw	r2,-148(fp)
 4001988:	84000204 	addi	r16,r16,8
 400198c:	e0bfda17 	ldw	r2,-152(fp)
 4001990:	10800044 	addi	r2,r2,1
 4001994:	e0bfda15 	stw	r2,-152(fp)
 4001998:	e0bfda17 	ldw	r2,-152(fp)
 400199c:	10800210 	cmplti	r2,r2,8
 40019a0:	1002881e 	bne	r2,zero,40023c4 <___vfprintf_internal_r+0x1e40>
 40019a4:	e0bfd904 	addi	r2,fp,-156
 40019a8:	100d883a 	mov	r6,r2
 40019ac:	e17fbc17 	ldw	r5,-272(fp)
 40019b0:	e13fbd17 	ldw	r4,-268(fp)
 40019b4:	40099280 	call	4009928 <__sprint_r>
 40019b8:	1002f11e 	bne	r2,zero,4002580 <___vfprintf_internal_r+0x1ffc>
 40019bc:	e43fc904 	addi	r16,fp,-220
 40019c0:	00028006 	br	40023c4 <___vfprintf_internal_r+0x1e40>
		} else {	/* glue together f_p fragments */
			if (ch >= 'f') {	/* 'f' or 'g' */
 40019c4:	a0801990 	cmplti	r2,r20,102
 40019c8:	1001cd1e 	bne	r2,zero,4002100 <___vfprintf_internal_r+0x1b7c>
				if (_fpvalue == 0) {
 40019cc:	e0bfe017 	ldw	r2,-128(fp)
 40019d0:	e0ffe117 	ldw	r3,-124(fp)
 40019d4:	000d883a 	mov	r6,zero
 40019d8:	000f883a 	mov	r7,zero
 40019dc:	1009883a 	mov	r4,r2
 40019e0:	180b883a 	mov	r5,r3
 40019e4:	400f36c0 	call	400f36c <__eqdf2>
 40019e8:	1000661e 	bne	r2,zero,4001b84 <___vfprintf_internal_r+0x1600>
					/* kludge for __dtoa irregularity */
					PRINT ("0", 1);
 40019ec:	00810074 	movhi	r2,1025
 40019f0:	108db804 	addi	r2,r2,14048
 40019f4:	80800015 	stw	r2,0(r16)
 40019f8:	00800044 	movi	r2,1
 40019fc:	80800115 	stw	r2,4(r16)
 4001a00:	e0bfdb17 	ldw	r2,-148(fp)
 4001a04:	10800044 	addi	r2,r2,1
 4001a08:	e0bfdb15 	stw	r2,-148(fp)
 4001a0c:	84000204 	addi	r16,r16,8
 4001a10:	e0bfda17 	ldw	r2,-152(fp)
 4001a14:	10800044 	addi	r2,r2,1
 4001a18:	e0bfda15 	stw	r2,-152(fp)
 4001a1c:	e0bfda17 	ldw	r2,-152(fp)
 4001a20:	10800210 	cmplti	r2,r2,8
 4001a24:	1000071e 	bne	r2,zero,4001a44 <___vfprintf_internal_r+0x14c0>
 4001a28:	e0bfd904 	addi	r2,fp,-156
 4001a2c:	100d883a 	mov	r6,r2
 4001a30:	e17fbc17 	ldw	r5,-272(fp)
 4001a34:	e13fbd17 	ldw	r4,-268(fp)
 4001a38:	40099280 	call	4009928 <__sprint_r>
 4001a3c:	1002d21e 	bne	r2,zero,4002588 <___vfprintf_internal_r+0x2004>
 4001a40:	e43fc904 	addi	r16,fp,-220
					if (expt < ndig || flags & ALT) {
 4001a44:	e0ffdf17 	ldw	r3,-132(fp)
 4001a48:	e0bfdc17 	ldw	r2,-144(fp)
 4001a4c:	18800216 	blt	r3,r2,4001a58 <___vfprintf_internal_r+0x14d4>
 4001a50:	8880004c 	andi	r2,r17,1
 4001a54:	10025b26 	beq	r2,zero,40023c4 <___vfprintf_internal_r+0x1e40>
						PRINT (decimal_point, decp_len);
 4001a58:	e0bfe817 	ldw	r2,-96(fp)
 4001a5c:	80800015 	stw	r2,0(r16)
 4001a60:	e0bfe717 	ldw	r2,-100(fp)
 4001a64:	80800115 	stw	r2,4(r16)
 4001a68:	e0ffdb17 	ldw	r3,-148(fp)
 4001a6c:	e0bfe717 	ldw	r2,-100(fp)
 4001a70:	1885883a 	add	r2,r3,r2
 4001a74:	e0bfdb15 	stw	r2,-148(fp)
 4001a78:	84000204 	addi	r16,r16,8
 4001a7c:	e0bfda17 	ldw	r2,-152(fp)
 4001a80:	10800044 	addi	r2,r2,1
 4001a84:	e0bfda15 	stw	r2,-152(fp)
 4001a88:	e0bfda17 	ldw	r2,-152(fp)
 4001a8c:	10800210 	cmplti	r2,r2,8
 4001a90:	1000071e 	bne	r2,zero,4001ab0 <___vfprintf_internal_r+0x152c>
 4001a94:	e0bfd904 	addi	r2,fp,-156
 4001a98:	100d883a 	mov	r6,r2
 4001a9c:	e17fbc17 	ldw	r5,-272(fp)
 4001aa0:	e13fbd17 	ldw	r4,-268(fp)
 4001aa4:	40099280 	call	4009928 <__sprint_r>
 4001aa8:	1002b91e 	bne	r2,zero,4002590 <___vfprintf_internal_r+0x200c>
 4001aac:	e43fc904 	addi	r16,fp,-220
						PAD (ndig - 1, zeroes);
 4001ab0:	e0bfdc17 	ldw	r2,-144(fp)
 4001ab4:	14ffffc4 	addi	r19,r2,-1
 4001ab8:	04c2420e 	bge	zero,r19,40023c4 <___vfprintf_internal_r+0x1e40>
 4001abc:	00001706 	br	4001b1c <___vfprintf_internal_r+0x1598>
 4001ac0:	00810074 	movhi	r2,1025
 4001ac4:	108dbd04 	addi	r2,r2,14068
 4001ac8:	80800015 	stw	r2,0(r16)
 4001acc:	00800404 	movi	r2,16
 4001ad0:	80800115 	stw	r2,4(r16)
 4001ad4:	e0bfdb17 	ldw	r2,-148(fp)
 4001ad8:	10800404 	addi	r2,r2,16
 4001adc:	e0bfdb15 	stw	r2,-148(fp)
 4001ae0:	84000204 	addi	r16,r16,8
 4001ae4:	e0bfda17 	ldw	r2,-152(fp)
 4001ae8:	10800044 	addi	r2,r2,1
 4001aec:	e0bfda15 	stw	r2,-152(fp)
 4001af0:	e0bfda17 	ldw	r2,-152(fp)
 4001af4:	10800210 	cmplti	r2,r2,8
 4001af8:	1000071e 	bne	r2,zero,4001b18 <___vfprintf_internal_r+0x1594>
 4001afc:	e0bfd904 	addi	r2,fp,-156
 4001b00:	100d883a 	mov	r6,r2
 4001b04:	e17fbc17 	ldw	r5,-272(fp)
 4001b08:	e13fbd17 	ldw	r4,-268(fp)
 4001b0c:	40099280 	call	4009928 <__sprint_r>
 4001b10:	1002a11e 	bne	r2,zero,4002598 <___vfprintf_internal_r+0x2014>
 4001b14:	e43fc904 	addi	r16,fp,-220
 4001b18:	9cfffc04 	addi	r19,r19,-16
 4001b1c:	98800448 	cmpgei	r2,r19,17
 4001b20:	103fe71e 	bne	r2,zero,4001ac0 <___vfprintf_internal_r+0x153c>
 4001b24:	00810074 	movhi	r2,1025
 4001b28:	108dbd04 	addi	r2,r2,14068
 4001b2c:	80800015 	stw	r2,0(r16)
 4001b30:	9805883a 	mov	r2,r19
 4001b34:	80800115 	stw	r2,4(r16)
 4001b38:	e0bfdb17 	ldw	r2,-148(fp)
 4001b3c:	9807883a 	mov	r3,r19
 4001b40:	10c5883a 	add	r2,r2,r3
 4001b44:	e0bfdb15 	stw	r2,-148(fp)
 4001b48:	84000204 	addi	r16,r16,8
 4001b4c:	e0bfda17 	ldw	r2,-152(fp)
 4001b50:	10800044 	addi	r2,r2,1
 4001b54:	e0bfda15 	stw	r2,-152(fp)
 4001b58:	e0bfda17 	ldw	r2,-152(fp)
 4001b5c:	10800210 	cmplti	r2,r2,8
 4001b60:	1002181e 	bne	r2,zero,40023c4 <___vfprintf_internal_r+0x1e40>
 4001b64:	e0bfd904 	addi	r2,fp,-156
 4001b68:	100d883a 	mov	r6,r2
 4001b6c:	e17fbc17 	ldw	r5,-272(fp)
 4001b70:	e13fbd17 	ldw	r4,-268(fp)
 4001b74:	40099280 	call	4009928 <__sprint_r>
 4001b78:	1002891e 	bne	r2,zero,40025a0 <___vfprintf_internal_r+0x201c>
 4001b7c:	e43fc904 	addi	r16,fp,-220
 4001b80:	00021006 	br	40023c4 <___vfprintf_internal_r+0x1e40>
					}
				} else if (expt <= 0) {
 4001b84:	e0bfdf17 	ldw	r2,-132(fp)
 4001b88:	00807c16 	blt	zero,r2,4001d7c <___vfprintf_internal_r+0x17f8>
					PRINT ("0", 1);
 4001b8c:	00810074 	movhi	r2,1025
 4001b90:	108db804 	addi	r2,r2,14048
 4001b94:	80800015 	stw	r2,0(r16)
 4001b98:	00800044 	movi	r2,1
 4001b9c:	80800115 	stw	r2,4(r16)
 4001ba0:	e0bfdb17 	ldw	r2,-148(fp)
 4001ba4:	10800044 	addi	r2,r2,1
 4001ba8:	e0bfdb15 	stw	r2,-148(fp)
 4001bac:	84000204 	addi	r16,r16,8
 4001bb0:	e0bfda17 	ldw	r2,-152(fp)
 4001bb4:	10800044 	addi	r2,r2,1
 4001bb8:	e0bfda15 	stw	r2,-152(fp)
 4001bbc:	e0bfda17 	ldw	r2,-152(fp)
 4001bc0:	10800210 	cmplti	r2,r2,8
 4001bc4:	1000071e 	bne	r2,zero,4001be4 <___vfprintf_internal_r+0x1660>
 4001bc8:	e0bfd904 	addi	r2,fp,-156
 4001bcc:	100d883a 	mov	r6,r2
 4001bd0:	e17fbc17 	ldw	r5,-272(fp)
 4001bd4:	e13fbd17 	ldw	r4,-268(fp)
 4001bd8:	40099280 	call	4009928 <__sprint_r>
 4001bdc:	1002721e 	bne	r2,zero,40025a8 <___vfprintf_internal_r+0x2024>
 4001be0:	e43fc904 	addi	r16,fp,-220
					if (expt || ndig || flags & ALT) {
 4001be4:	e0bfdf17 	ldw	r2,-132(fp)
 4001be8:	1000041e 	bne	r2,zero,4001bfc <___vfprintf_internal_r+0x1678>
 4001bec:	e0bfdc17 	ldw	r2,-144(fp)
 4001bf0:	1000021e 	bne	r2,zero,4001bfc <___vfprintf_internal_r+0x1678>
 4001bf4:	8880004c 	andi	r2,r17,1
 4001bf8:	1001f226 	beq	r2,zero,40023c4 <___vfprintf_internal_r+0x1e40>
						PRINT (decimal_point, decp_len);
 4001bfc:	e0bfe817 	ldw	r2,-96(fp)
 4001c00:	80800015 	stw	r2,0(r16)
 4001c04:	e0bfe717 	ldw	r2,-100(fp)
 4001c08:	80800115 	stw	r2,4(r16)
 4001c0c:	e0ffdb17 	ldw	r3,-148(fp)
 4001c10:	e0bfe717 	ldw	r2,-100(fp)
 4001c14:	1885883a 	add	r2,r3,r2
 4001c18:	e0bfdb15 	stw	r2,-148(fp)
 4001c1c:	84000204 	addi	r16,r16,8
 4001c20:	e0bfda17 	ldw	r2,-152(fp)
 4001c24:	10800044 	addi	r2,r2,1
 4001c28:	e0bfda15 	stw	r2,-152(fp)
 4001c2c:	e0bfda17 	ldw	r2,-152(fp)
 4001c30:	10800210 	cmplti	r2,r2,8
 4001c34:	1000071e 	bne	r2,zero,4001c54 <___vfprintf_internal_r+0x16d0>
 4001c38:	e0bfd904 	addi	r2,fp,-156
 4001c3c:	100d883a 	mov	r6,r2
 4001c40:	e17fbc17 	ldw	r5,-272(fp)
 4001c44:	e13fbd17 	ldw	r4,-268(fp)
 4001c48:	40099280 	call	4009928 <__sprint_r>
 4001c4c:	1002581e 	bne	r2,zero,40025b0 <___vfprintf_internal_r+0x202c>
 4001c50:	e43fc904 	addi	r16,fp,-220
						PAD (-expt, zeroes);
 4001c54:	e0bfdf17 	ldw	r2,-132(fp)
 4001c58:	00a7c83a 	sub	r19,zero,r2
 4001c5c:	04c0310e 	bge	zero,r19,4001d24 <___vfprintf_internal_r+0x17a0>
 4001c60:	00001706 	br	4001cc0 <___vfprintf_internal_r+0x173c>
 4001c64:	00810074 	movhi	r2,1025
 4001c68:	108dbd04 	addi	r2,r2,14068
 4001c6c:	80800015 	stw	r2,0(r16)
 4001c70:	00800404 	movi	r2,16
 4001c74:	80800115 	stw	r2,4(r16)
 4001c78:	e0bfdb17 	ldw	r2,-148(fp)
 4001c7c:	10800404 	addi	r2,r2,16
 4001c80:	e0bfdb15 	stw	r2,-148(fp)
 4001c84:	84000204 	addi	r16,r16,8
 4001c88:	e0bfda17 	ldw	r2,-152(fp)
 4001c8c:	10800044 	addi	r2,r2,1
 4001c90:	e0bfda15 	stw	r2,-152(fp)
 4001c94:	e0bfda17 	ldw	r2,-152(fp)
 4001c98:	10800210 	cmplti	r2,r2,8
 4001c9c:	1000071e 	bne	r2,zero,4001cbc <___vfprintf_internal_r+0x1738>
 4001ca0:	e0bfd904 	addi	r2,fp,-156
 4001ca4:	100d883a 	mov	r6,r2
 4001ca8:	e17fbc17 	ldw	r5,-272(fp)
 4001cac:	e13fbd17 	ldw	r4,-268(fp)
 4001cb0:	40099280 	call	4009928 <__sprint_r>
 4001cb4:	1002401e 	bne	r2,zero,40025b8 <___vfprintf_internal_r+0x2034>
 4001cb8:	e43fc904 	addi	r16,fp,-220
 4001cbc:	9cfffc04 	addi	r19,r19,-16
 4001cc0:	98800448 	cmpgei	r2,r19,17
 4001cc4:	103fe71e 	bne	r2,zero,4001c64 <___vfprintf_internal_r+0x16e0>
 4001cc8:	00810074 	movhi	r2,1025
 4001ccc:	108dbd04 	addi	r2,r2,14068
 4001cd0:	80800015 	stw	r2,0(r16)
 4001cd4:	9805883a 	mov	r2,r19
 4001cd8:	80800115 	stw	r2,4(r16)
 4001cdc:	e0bfdb17 	ldw	r2,-148(fp)
 4001ce0:	9807883a 	mov	r3,r19
 4001ce4:	10c5883a 	add	r2,r2,r3
 4001ce8:	e0bfdb15 	stw	r2,-148(fp)
 4001cec:	84000204 	addi	r16,r16,8
 4001cf0:	e0bfda17 	ldw	r2,-152(fp)
 4001cf4:	10800044 	addi	r2,r2,1
 4001cf8:	e0bfda15 	stw	r2,-152(fp)
 4001cfc:	e0bfda17 	ldw	r2,-152(fp)
 4001d00:	10800210 	cmplti	r2,r2,8
 4001d04:	1000071e 	bne	r2,zero,4001d24 <___vfprintf_internal_r+0x17a0>
 4001d08:	e0bfd904 	addi	r2,fp,-156
 4001d0c:	100d883a 	mov	r6,r2
 4001d10:	e17fbc17 	ldw	r5,-272(fp)
 4001d14:	e13fbd17 	ldw	r4,-268(fp)
 4001d18:	40099280 	call	4009928 <__sprint_r>
 4001d1c:	1002281e 	bne	r2,zero,40025c0 <___vfprintf_internal_r+0x203c>
 4001d20:	e43fc904 	addi	r16,fp,-220
						PRINT (cp, ndig);
 4001d24:	84800015 	stw	r18,0(r16)
 4001d28:	e0bfdc17 	ldw	r2,-144(fp)
 4001d2c:	80800115 	stw	r2,4(r16)
 4001d30:	e0bfdb17 	ldw	r2,-148(fp)
 4001d34:	e0ffdc17 	ldw	r3,-144(fp)
 4001d38:	10c5883a 	add	r2,r2,r3
 4001d3c:	e0bfdb15 	stw	r2,-148(fp)
 4001d40:	84000204 	addi	r16,r16,8
 4001d44:	e0bfda17 	ldw	r2,-152(fp)
 4001d48:	10800044 	addi	r2,r2,1
 4001d4c:	e0bfda15 	stw	r2,-152(fp)
 4001d50:	e0bfda17 	ldw	r2,-152(fp)
 4001d54:	10800210 	cmplti	r2,r2,8
 4001d58:	10019a1e 	bne	r2,zero,40023c4 <___vfprintf_internal_r+0x1e40>
 4001d5c:	e0bfd904 	addi	r2,fp,-156
 4001d60:	100d883a 	mov	r6,r2
 4001d64:	e17fbc17 	ldw	r5,-272(fp)
 4001d68:	e13fbd17 	ldw	r4,-268(fp)
 4001d6c:	40099280 	call	4009928 <__sprint_r>
 4001d70:	1002151e 	bne	r2,zero,40025c8 <___vfprintf_internal_r+0x2044>
 4001d74:	e43fc904 	addi	r16,fp,-220
 4001d78:	00019206 	br	40023c4 <___vfprintf_internal_r+0x1e40>
					}
				} else {
					char *convbuf = cp;
 4001d7c:	e4bfe315 	stw	r18,-116(fp)
					PRINTANDPAD(cp, convbuf + ndig,
 4001d80:	e0bfdc17 	ldw	r2,-144(fp)
 4001d84:	1007883a 	mov	r3,r2
 4001d88:	e0bfe317 	ldw	r2,-116(fp)
 4001d8c:	10c5883a 	add	r2,r2,r3
 4001d90:	1485c83a 	sub	r2,r2,r18
 4001d94:	e0bfea15 	stw	r2,-88(fp)
 4001d98:	e0bfea17 	ldw	r2,-88(fp)
 4001d9c:	e0fff317 	ldw	r3,-52(fp)
 4001da0:	1880020e 	bge	r3,r2,4001dac <___vfprintf_internal_r+0x1828>
 4001da4:	e0bff317 	ldw	r2,-52(fp)
 4001da8:	e0bfea15 	stw	r2,-88(fp)
 4001dac:	e0bfea17 	ldw	r2,-88(fp)
 4001db0:	0080150e 	bge	zero,r2,4001e08 <___vfprintf_internal_r+0x1884>
 4001db4:	84800015 	stw	r18,0(r16)
 4001db8:	e0bfea17 	ldw	r2,-88(fp)
 4001dbc:	80800115 	stw	r2,4(r16)
 4001dc0:	e0ffdb17 	ldw	r3,-148(fp)
 4001dc4:	e0bfea17 	ldw	r2,-88(fp)
 4001dc8:	1885883a 	add	r2,r3,r2
 4001dcc:	e0bfdb15 	stw	r2,-148(fp)
 4001dd0:	84000204 	addi	r16,r16,8
 4001dd4:	e0bfda17 	ldw	r2,-152(fp)
 4001dd8:	10800044 	addi	r2,r2,1
 4001ddc:	e0bfda15 	stw	r2,-152(fp)
 4001de0:	e0bfda17 	ldw	r2,-152(fp)
 4001de4:	10800210 	cmplti	r2,r2,8
 4001de8:	1000071e 	bne	r2,zero,4001e08 <___vfprintf_internal_r+0x1884>
 4001dec:	e0bfd904 	addi	r2,fp,-156
 4001df0:	100d883a 	mov	r6,r2
 4001df4:	e17fbc17 	ldw	r5,-272(fp)
 4001df8:	e13fbd17 	ldw	r4,-268(fp)
 4001dfc:	40099280 	call	4009928 <__sprint_r>
 4001e00:	1001f31e 	bne	r2,zero,40025d0 <___vfprintf_internal_r+0x204c>
 4001e04:	e43fc904 	addi	r16,fp,-220
 4001e08:	e0bfea17 	ldw	r2,-88(fp)
 4001e0c:	1000010e 	bge	r2,zero,4001e14 <___vfprintf_internal_r+0x1890>
 4001e10:	0005883a 	mov	r2,zero
 4001e14:	e0fff317 	ldw	r3,-52(fp)
 4001e18:	1885c83a 	sub	r2,r3,r2
 4001e1c:	e0bfea15 	stw	r2,-88(fp)
 4001e20:	e0bfea17 	ldw	r2,-88(fp)
 4001e24:	0080340e 	bge	zero,r2,4001ef8 <___vfprintf_internal_r+0x1974>
 4001e28:	00001906 	br	4001e90 <___vfprintf_internal_r+0x190c>
 4001e2c:	00810074 	movhi	r2,1025
 4001e30:	108dbd04 	addi	r2,r2,14068
 4001e34:	80800015 	stw	r2,0(r16)
 4001e38:	00800404 	movi	r2,16
 4001e3c:	80800115 	stw	r2,4(r16)
 4001e40:	e0bfdb17 	ldw	r2,-148(fp)
 4001e44:	10800404 	addi	r2,r2,16
 4001e48:	e0bfdb15 	stw	r2,-148(fp)
 4001e4c:	84000204 	addi	r16,r16,8
 4001e50:	e0bfda17 	ldw	r2,-152(fp)
 4001e54:	10800044 	addi	r2,r2,1
 4001e58:	e0bfda15 	stw	r2,-152(fp)
 4001e5c:	e0bfda17 	ldw	r2,-152(fp)
 4001e60:	10800210 	cmplti	r2,r2,8
 4001e64:	1000071e 	bne	r2,zero,4001e84 <___vfprintf_internal_r+0x1900>
 4001e68:	e0bfd904 	addi	r2,fp,-156
 4001e6c:	100d883a 	mov	r6,r2
 4001e70:	e17fbc17 	ldw	r5,-272(fp)
 4001e74:	e13fbd17 	ldw	r4,-268(fp)
 4001e78:	40099280 	call	4009928 <__sprint_r>
 4001e7c:	1001d61e 	bne	r2,zero,40025d8 <___vfprintf_internal_r+0x2054>
 4001e80:	e43fc904 	addi	r16,fp,-220
 4001e84:	e0bfea17 	ldw	r2,-88(fp)
 4001e88:	10bffc04 	addi	r2,r2,-16
 4001e8c:	e0bfea15 	stw	r2,-88(fp)
 4001e90:	e0bfea17 	ldw	r2,-88(fp)
 4001e94:	10800448 	cmpgei	r2,r2,17
 4001e98:	103fe41e 	bne	r2,zero,4001e2c <___vfprintf_internal_r+0x18a8>
 4001e9c:	00810074 	movhi	r2,1025
 4001ea0:	108dbd04 	addi	r2,r2,14068
 4001ea4:	80800015 	stw	r2,0(r16)
 4001ea8:	e0bfea17 	ldw	r2,-88(fp)
 4001eac:	80800115 	stw	r2,4(r16)
 4001eb0:	e0ffdb17 	ldw	r3,-148(fp)
 4001eb4:	e0bfea17 	ldw	r2,-88(fp)
 4001eb8:	1885883a 	add	r2,r3,r2
 4001ebc:	e0bfdb15 	stw	r2,-148(fp)
 4001ec0:	84000204 	addi	r16,r16,8
 4001ec4:	e0bfda17 	ldw	r2,-152(fp)
 4001ec8:	10800044 	addi	r2,r2,1
 4001ecc:	e0bfda15 	stw	r2,-152(fp)
 4001ed0:	e0bfda17 	ldw	r2,-152(fp)
 4001ed4:	10800210 	cmplti	r2,r2,8
 4001ed8:	1000071e 	bne	r2,zero,4001ef8 <___vfprintf_internal_r+0x1974>
 4001edc:	e0bfd904 	addi	r2,fp,-156
 4001ee0:	100d883a 	mov	r6,r2
 4001ee4:	e17fbc17 	ldw	r5,-272(fp)
 4001ee8:	e13fbd17 	ldw	r4,-268(fp)
 4001eec:	40099280 	call	4009928 <__sprint_r>
 4001ef0:	1001bb1e 	bne	r2,zero,40025e0 <___vfprintf_internal_r+0x205c>
 4001ef4:	e43fc904 	addi	r16,fp,-220
						    lead, zeroes);
					cp += lead;
 4001ef8:	e0bff317 	ldw	r2,-52(fp)
 4001efc:	90a5883a 	add	r18,r18,r2
					    }
					    if (cp > convbuf + ndig)
						cp = convbuf + ndig;
					}
#endif
					if (expt < ndig || flags & ALT)
 4001f00:	e0ffdf17 	ldw	r3,-132(fp)
 4001f04:	e0bfdc17 	ldw	r2,-144(fp)
 4001f08:	18800216 	blt	r3,r2,4001f14 <___vfprintf_internal_r+0x1990>
 4001f0c:	8880004c 	andi	r2,r17,1
 4001f10:	10001626 	beq	r2,zero,4001f6c <___vfprintf_internal_r+0x19e8>
					    PRINT (decimal_point, decp_len);
 4001f14:	e0bfe817 	ldw	r2,-96(fp)
 4001f18:	80800015 	stw	r2,0(r16)
 4001f1c:	e0bfe717 	ldw	r2,-100(fp)
 4001f20:	80800115 	stw	r2,4(r16)
 4001f24:	e0ffdb17 	ldw	r3,-148(fp)
 4001f28:	e0bfe717 	ldw	r2,-100(fp)
 4001f2c:	1885883a 	add	r2,r3,r2
 4001f30:	e0bfdb15 	stw	r2,-148(fp)
 4001f34:	84000204 	addi	r16,r16,8
 4001f38:	e0bfda17 	ldw	r2,-152(fp)
 4001f3c:	10800044 	addi	r2,r2,1
 4001f40:	e0bfda15 	stw	r2,-152(fp)
 4001f44:	e0bfda17 	ldw	r2,-152(fp)
 4001f48:	10800210 	cmplti	r2,r2,8
 4001f4c:	1000071e 	bne	r2,zero,4001f6c <___vfprintf_internal_r+0x19e8>
 4001f50:	e0bfd904 	addi	r2,fp,-156
 4001f54:	100d883a 	mov	r6,r2
 4001f58:	e17fbc17 	ldw	r5,-272(fp)
 4001f5c:	e13fbd17 	ldw	r4,-268(fp)
 4001f60:	40099280 	call	4009928 <__sprint_r>
 4001f64:	1001a01e 	bne	r2,zero,40025e8 <___vfprintf_internal_r+0x2064>
 4001f68:	e43fc904 	addi	r16,fp,-220
					PRINTANDPAD (cp, convbuf + ndig,
 4001f6c:	e0bfdc17 	ldw	r2,-144(fp)
 4001f70:	1007883a 	mov	r3,r2
 4001f74:	e0bfe317 	ldw	r2,-116(fp)
 4001f78:	10c5883a 	add	r2,r2,r3
 4001f7c:	1485c83a 	sub	r2,r2,r18
 4001f80:	e0bfe915 	stw	r2,-92(fp)
 4001f84:	e0ffdc17 	ldw	r3,-144(fp)
 4001f88:	e0bfdf17 	ldw	r2,-132(fp)
 4001f8c:	1887c83a 	sub	r3,r3,r2
 4001f90:	e0bfe917 	ldw	r2,-92(fp)
 4001f94:	1880040e 	bge	r3,r2,4001fa8 <___vfprintf_internal_r+0x1a24>
 4001f98:	e0ffdc17 	ldw	r3,-144(fp)
 4001f9c:	e0bfdf17 	ldw	r2,-132(fp)
 4001fa0:	1885c83a 	sub	r2,r3,r2
 4001fa4:	e0bfe915 	stw	r2,-92(fp)
 4001fa8:	e0bfe917 	ldw	r2,-92(fp)
 4001fac:	0080150e 	bge	zero,r2,4002004 <___vfprintf_internal_r+0x1a80>
 4001fb0:	84800015 	stw	r18,0(r16)
 4001fb4:	e0bfe917 	ldw	r2,-92(fp)
 4001fb8:	80800115 	stw	r2,4(r16)
 4001fbc:	e0ffdb17 	ldw	r3,-148(fp)
 4001fc0:	e0bfe917 	ldw	r2,-92(fp)
 4001fc4:	1885883a 	add	r2,r3,r2
 4001fc8:	e0bfdb15 	stw	r2,-148(fp)
 4001fcc:	84000204 	addi	r16,r16,8
 4001fd0:	e0bfda17 	ldw	r2,-152(fp)
 4001fd4:	10800044 	addi	r2,r2,1
 4001fd8:	e0bfda15 	stw	r2,-152(fp)
 4001fdc:	e0bfda17 	ldw	r2,-152(fp)
 4001fe0:	10800210 	cmplti	r2,r2,8
 4001fe4:	1000071e 	bne	r2,zero,4002004 <___vfprintf_internal_r+0x1a80>
 4001fe8:	e0bfd904 	addi	r2,fp,-156
 4001fec:	100d883a 	mov	r6,r2
 4001ff0:	e17fbc17 	ldw	r5,-272(fp)
 4001ff4:	e13fbd17 	ldw	r4,-268(fp)
 4001ff8:	40099280 	call	4009928 <__sprint_r>
 4001ffc:	10017c1e 	bne	r2,zero,40025f0 <___vfprintf_internal_r+0x206c>
 4002000:	e43fc904 	addi	r16,fp,-220
 4002004:	e0ffdc17 	ldw	r3,-144(fp)
 4002008:	e0bfdf17 	ldw	r2,-132(fp)
 400200c:	1887c83a 	sub	r3,r3,r2
 4002010:	e0bfe917 	ldw	r2,-92(fp)
 4002014:	1000010e 	bge	r2,zero,400201c <___vfprintf_internal_r+0x1a98>
 4002018:	0005883a 	mov	r2,zero
 400201c:	1885c83a 	sub	r2,r3,r2
 4002020:	e0bfe915 	stw	r2,-92(fp)
 4002024:	e0bfe917 	ldw	r2,-92(fp)
 4002028:	0080e60e 	bge	zero,r2,40023c4 <___vfprintf_internal_r+0x1e40>
 400202c:	00001906 	br	4002094 <___vfprintf_internal_r+0x1b10>
 4002030:	00810074 	movhi	r2,1025
 4002034:	108dbd04 	addi	r2,r2,14068
 4002038:	80800015 	stw	r2,0(r16)
 400203c:	00800404 	movi	r2,16
 4002040:	80800115 	stw	r2,4(r16)
 4002044:	e0bfdb17 	ldw	r2,-148(fp)
 4002048:	10800404 	addi	r2,r2,16
 400204c:	e0bfdb15 	stw	r2,-148(fp)
 4002050:	84000204 	addi	r16,r16,8
 4002054:	e0bfda17 	ldw	r2,-152(fp)
 4002058:	10800044 	addi	r2,r2,1
 400205c:	e0bfda15 	stw	r2,-152(fp)
 4002060:	e0bfda17 	ldw	r2,-152(fp)
 4002064:	10800210 	cmplti	r2,r2,8
 4002068:	1000071e 	bne	r2,zero,4002088 <___vfprintf_internal_r+0x1b04>
 400206c:	e0bfd904 	addi	r2,fp,-156
 4002070:	100d883a 	mov	r6,r2
 4002074:	e17fbc17 	ldw	r5,-272(fp)
 4002078:	e13fbd17 	ldw	r4,-268(fp)
 400207c:	40099280 	call	4009928 <__sprint_r>
 4002080:	10015d1e 	bne	r2,zero,40025f8 <___vfprintf_internal_r+0x2074>
 4002084:	e43fc904 	addi	r16,fp,-220
 4002088:	e0bfe917 	ldw	r2,-92(fp)
 400208c:	10bffc04 	addi	r2,r2,-16
 4002090:	e0bfe915 	stw	r2,-92(fp)
 4002094:	e0bfe917 	ldw	r2,-92(fp)
 4002098:	10800448 	cmpgei	r2,r2,17
 400209c:	103fe41e 	bne	r2,zero,4002030 <___vfprintf_internal_r+0x1aac>
 40020a0:	00810074 	movhi	r2,1025
 40020a4:	108dbd04 	addi	r2,r2,14068
 40020a8:	80800015 	stw	r2,0(r16)
 40020ac:	e0bfe917 	ldw	r2,-92(fp)
 40020b0:	80800115 	stw	r2,4(r16)
 40020b4:	e0ffdb17 	ldw	r3,-148(fp)
 40020b8:	e0bfe917 	ldw	r2,-92(fp)
 40020bc:	1885883a 	add	r2,r3,r2
 40020c0:	e0bfdb15 	stw	r2,-148(fp)
 40020c4:	84000204 	addi	r16,r16,8
 40020c8:	e0bfda17 	ldw	r2,-152(fp)
 40020cc:	10800044 	addi	r2,r2,1
 40020d0:	e0bfda15 	stw	r2,-152(fp)
 40020d4:	e0bfda17 	ldw	r2,-152(fp)
 40020d8:	10800210 	cmplti	r2,r2,8
 40020dc:	1000b91e 	bne	r2,zero,40023c4 <___vfprintf_internal_r+0x1e40>
 40020e0:	e0bfd904 	addi	r2,fp,-156
 40020e4:	100d883a 	mov	r6,r2
 40020e8:	e17fbc17 	ldw	r5,-272(fp)
 40020ec:	e13fbd17 	ldw	r4,-268(fp)
 40020f0:	40099280 	call	4009928 <__sprint_r>
 40020f4:	1001421e 	bne	r2,zero,4002600 <___vfprintf_internal_r+0x207c>
 40020f8:	e43fc904 	addi	r16,fp,-220
 40020fc:	0000b106 	br	40023c4 <___vfprintf_internal_r+0x1e40>
						     ndig - expt, zeroes);
				}
			} else {	/* 'a', 'A', 'e', or 'E' */
				if (ndig > 1 || flags & ALT) {
 4002100:	e0bfdc17 	ldw	r2,-144(fp)
 4002104:	10800088 	cmpgei	r2,r2,2
 4002108:	1000021e 	bne	r2,zero,4002114 <___vfprintf_internal_r+0x1b90>
 400210c:	8880004c 	andi	r2,r17,1
 4002110:	10008026 	beq	r2,zero,4002314 <___vfprintf_internal_r+0x1d90>
					PRINT (cp, 1);
 4002114:	84800015 	stw	r18,0(r16)
 4002118:	00800044 	movi	r2,1
 400211c:	80800115 	stw	r2,4(r16)
 4002120:	e0bfdb17 	ldw	r2,-148(fp)
 4002124:	10800044 	addi	r2,r2,1
 4002128:	e0bfdb15 	stw	r2,-148(fp)
 400212c:	84000204 	addi	r16,r16,8
 4002130:	e0bfda17 	ldw	r2,-152(fp)
 4002134:	10800044 	addi	r2,r2,1
 4002138:	e0bfda15 	stw	r2,-152(fp)
 400213c:	e0bfda17 	ldw	r2,-152(fp)
 4002140:	10800210 	cmplti	r2,r2,8
 4002144:	1000071e 	bne	r2,zero,4002164 <___vfprintf_internal_r+0x1be0>
 4002148:	e0bfd904 	addi	r2,fp,-156
 400214c:	100d883a 	mov	r6,r2
 4002150:	e17fbc17 	ldw	r5,-272(fp)
 4002154:	e13fbd17 	ldw	r4,-268(fp)
 4002158:	40099280 	call	4009928 <__sprint_r>
 400215c:	10012a1e 	bne	r2,zero,4002608 <___vfprintf_internal_r+0x2084>
 4002160:	e43fc904 	addi	r16,fp,-220
					cp++;
 4002164:	94800044 	addi	r18,r18,1
					PRINT (decimal_point, decp_len);
 4002168:	e0bfe817 	ldw	r2,-96(fp)
 400216c:	80800015 	stw	r2,0(r16)
 4002170:	e0bfe717 	ldw	r2,-100(fp)
 4002174:	80800115 	stw	r2,4(r16)
 4002178:	e0ffdb17 	ldw	r3,-148(fp)
 400217c:	e0bfe717 	ldw	r2,-100(fp)
 4002180:	1885883a 	add	r2,r3,r2
 4002184:	e0bfdb15 	stw	r2,-148(fp)
 4002188:	84000204 	addi	r16,r16,8
 400218c:	e0bfda17 	ldw	r2,-152(fp)
 4002190:	10800044 	addi	r2,r2,1
 4002194:	e0bfda15 	stw	r2,-152(fp)
 4002198:	e0bfda17 	ldw	r2,-152(fp)
 400219c:	10800210 	cmplti	r2,r2,8
 40021a0:	1000071e 	bne	r2,zero,40021c0 <___vfprintf_internal_r+0x1c3c>
 40021a4:	e0bfd904 	addi	r2,fp,-156
 40021a8:	100d883a 	mov	r6,r2
 40021ac:	e17fbc17 	ldw	r5,-272(fp)
 40021b0:	e13fbd17 	ldw	r4,-268(fp)
 40021b4:	40099280 	call	4009928 <__sprint_r>
 40021b8:	1001151e 	bne	r2,zero,4002610 <___vfprintf_internal_r+0x208c>
 40021bc:	e43fc904 	addi	r16,fp,-220
					if (_fpvalue) {
 40021c0:	e0bfe017 	ldw	r2,-128(fp)
 40021c4:	e0ffe117 	ldw	r3,-124(fp)
 40021c8:	000d883a 	mov	r6,zero
 40021cc:	000f883a 	mov	r7,zero
 40021d0:	1009883a 	mov	r4,r2
 40021d4:	180b883a 	mov	r5,r3
 40021d8:	400f36c0 	call	400f36c <__eqdf2>
 40021dc:	10001826 	beq	r2,zero,4002240 <___vfprintf_internal_r+0x1cbc>
						PRINT (cp, ndig - 1);
 40021e0:	84800015 	stw	r18,0(r16)
 40021e4:	e0bfdc17 	ldw	r2,-144(fp)
 40021e8:	10bfffc4 	addi	r2,r2,-1
 40021ec:	80800115 	stw	r2,4(r16)
 40021f0:	e0bfdb17 	ldw	r2,-148(fp)
 40021f4:	e0ffdc17 	ldw	r3,-144(fp)
 40021f8:	10c5883a 	add	r2,r2,r3
 40021fc:	10bfffc4 	addi	r2,r2,-1
 4002200:	e0bfdb15 	stw	r2,-148(fp)
 4002204:	84000204 	addi	r16,r16,8
 4002208:	e0bfda17 	ldw	r2,-152(fp)
 400220c:	10800044 	addi	r2,r2,1
 4002210:	e0bfda15 	stw	r2,-152(fp)
 4002214:	e0bfda17 	ldw	r2,-152(fp)
 4002218:	10800210 	cmplti	r2,r2,8
 400221c:	1000521e 	bne	r2,zero,4002368 <___vfprintf_internal_r+0x1de4>
 4002220:	e0bfd904 	addi	r2,fp,-156
 4002224:	100d883a 	mov	r6,r2
 4002228:	e17fbc17 	ldw	r5,-272(fp)
 400222c:	e13fbd17 	ldw	r4,-268(fp)
 4002230:	40099280 	call	4009928 <__sprint_r>
 4002234:	1000f81e 	bne	r2,zero,4002618 <___vfprintf_internal_r+0x2094>
 4002238:	e43fc904 	addi	r16,fp,-220
					if (_fpvalue) {
 400223c:	00004a06 	br	4002368 <___vfprintf_internal_r+0x1de4>
					} else	/* 0.[0..] */
						/* __dtoa irregularity */
						PAD (ndig - 1, zeroes);
 4002240:	e0bfdc17 	ldw	r2,-144(fp)
 4002244:	14ffffc4 	addi	r19,r2,-1
 4002248:	04c0470e 	bge	zero,r19,4002368 <___vfprintf_internal_r+0x1de4>
 400224c:	00001706 	br	40022ac <___vfprintf_internal_r+0x1d28>
 4002250:	00810074 	movhi	r2,1025
 4002254:	108dbd04 	addi	r2,r2,14068
 4002258:	80800015 	stw	r2,0(r16)
 400225c:	00800404 	movi	r2,16
 4002260:	80800115 	stw	r2,4(r16)
 4002264:	e0bfdb17 	ldw	r2,-148(fp)
 4002268:	10800404 	addi	r2,r2,16
 400226c:	e0bfdb15 	stw	r2,-148(fp)
 4002270:	84000204 	addi	r16,r16,8
 4002274:	e0bfda17 	ldw	r2,-152(fp)
 4002278:	10800044 	addi	r2,r2,1
 400227c:	e0bfda15 	stw	r2,-152(fp)
 4002280:	e0bfda17 	ldw	r2,-152(fp)
 4002284:	10800210 	cmplti	r2,r2,8
 4002288:	1000071e 	bne	r2,zero,40022a8 <___vfprintf_internal_r+0x1d24>
 400228c:	e0bfd904 	addi	r2,fp,-156
 4002290:	100d883a 	mov	r6,r2
 4002294:	e17fbc17 	ldw	r5,-272(fp)
 4002298:	e13fbd17 	ldw	r4,-268(fp)
 400229c:	40099280 	call	4009928 <__sprint_r>
 40022a0:	1000df1e 	bne	r2,zero,4002620 <___vfprintf_internal_r+0x209c>
 40022a4:	e43fc904 	addi	r16,fp,-220
 40022a8:	9cfffc04 	addi	r19,r19,-16
 40022ac:	98800448 	cmpgei	r2,r19,17
 40022b0:	103fe71e 	bne	r2,zero,4002250 <___vfprintf_internal_r+0x1ccc>
 40022b4:	00810074 	movhi	r2,1025
 40022b8:	108dbd04 	addi	r2,r2,14068
 40022bc:	80800015 	stw	r2,0(r16)
 40022c0:	9805883a 	mov	r2,r19
 40022c4:	80800115 	stw	r2,4(r16)
 40022c8:	e0bfdb17 	ldw	r2,-148(fp)
 40022cc:	9807883a 	mov	r3,r19
 40022d0:	10c5883a 	add	r2,r2,r3
 40022d4:	e0bfdb15 	stw	r2,-148(fp)
 40022d8:	84000204 	addi	r16,r16,8
 40022dc:	e0bfda17 	ldw	r2,-152(fp)
 40022e0:	10800044 	addi	r2,r2,1
 40022e4:	e0bfda15 	stw	r2,-152(fp)
 40022e8:	e0bfda17 	ldw	r2,-152(fp)
 40022ec:	10800210 	cmplti	r2,r2,8
 40022f0:	10001d1e 	bne	r2,zero,4002368 <___vfprintf_internal_r+0x1de4>
 40022f4:	e0bfd904 	addi	r2,fp,-156
 40022f8:	100d883a 	mov	r6,r2
 40022fc:	e17fbc17 	ldw	r5,-272(fp)
 4002300:	e13fbd17 	ldw	r4,-268(fp)
 4002304:	40099280 	call	4009928 <__sprint_r>
 4002308:	1000c71e 	bne	r2,zero,4002628 <___vfprintf_internal_r+0x20a4>
 400230c:	e43fc904 	addi	r16,fp,-220
					if (_fpvalue) {
 4002310:	00001506 	br	4002368 <___vfprintf_internal_r+0x1de4>
				} else	/* XeYYY */
					PRINT (cp, 1);
 4002314:	84800015 	stw	r18,0(r16)
 4002318:	00800044 	movi	r2,1
 400231c:	80800115 	stw	r2,4(r16)
 4002320:	e0bfdb17 	ldw	r2,-148(fp)
 4002324:	10800044 	addi	r2,r2,1
 4002328:	e0bfdb15 	stw	r2,-148(fp)
 400232c:	84000204 	addi	r16,r16,8
 4002330:	e0bfda17 	ldw	r2,-152(fp)
 4002334:	10800044 	addi	r2,r2,1
 4002338:	e0bfda15 	stw	r2,-152(fp)
 400233c:	e0bfda17 	ldw	r2,-152(fp)
 4002340:	10800210 	cmplti	r2,r2,8
 4002344:	1000091e 	bne	r2,zero,400236c <___vfprintf_internal_r+0x1de8>
 4002348:	e0bfd904 	addi	r2,fp,-156
 400234c:	100d883a 	mov	r6,r2
 4002350:	e17fbc17 	ldw	r5,-272(fp)
 4002354:	e13fbd17 	ldw	r4,-268(fp)
 4002358:	40099280 	call	4009928 <__sprint_r>
 400235c:	1000b41e 	bne	r2,zero,4002630 <___vfprintf_internal_r+0x20ac>
 4002360:	e43fc904 	addi	r16,fp,-220
 4002364:	00000106 	br	400236c <___vfprintf_internal_r+0x1de8>
					if (_fpvalue) {
 4002368:	0001883a 	nop
				PRINT (expstr, expsize);
 400236c:	e0bfdd44 	addi	r2,fp,-139
 4002370:	80800015 	stw	r2,0(r16)
 4002374:	e0bff417 	ldw	r2,-48(fp)
 4002378:	80800115 	stw	r2,4(r16)
 400237c:	e0ffdb17 	ldw	r3,-148(fp)
 4002380:	e0bff417 	ldw	r2,-48(fp)
 4002384:	1885883a 	add	r2,r3,r2
 4002388:	e0bfdb15 	stw	r2,-148(fp)
 400238c:	84000204 	addi	r16,r16,8
 4002390:	e0bfda17 	ldw	r2,-152(fp)
 4002394:	10800044 	addi	r2,r2,1
 4002398:	e0bfda15 	stw	r2,-152(fp)
 400239c:	e0bfda17 	ldw	r2,-152(fp)
 40023a0:	10800210 	cmplti	r2,r2,8
 40023a4:	1000071e 	bne	r2,zero,40023c4 <___vfprintf_internal_r+0x1e40>
 40023a8:	e0bfd904 	addi	r2,fp,-156
 40023ac:	100d883a 	mov	r6,r2
 40023b0:	e17fbc17 	ldw	r5,-272(fp)
 40023b4:	e13fbd17 	ldw	r4,-268(fp)
 40023b8:	40099280 	call	4009928 <__sprint_r>
 40023bc:	10009e1e 	bne	r2,zero,4002638 <___vfprintf_internal_r+0x20b4>
 40023c0:	e43fc904 	addi	r16,fp,-220
		}
#else /* !FLOATING_POINT */
		PRINT (cp, size);
#endif
		/* left-adjusting padding (always blank) */
		if (flags & LADJUST)
 40023c4:	8880010c 	andi	r2,r17,4
 40023c8:	10003526 	beq	r2,zero,40024a0 <___vfprintf_internal_r+0x1f1c>
			PAD (width - realsz, blanks);
 40023cc:	e0fff617 	ldw	r3,-40(fp)
 40023d0:	e0bfee17 	ldw	r2,-72(fp)
 40023d4:	18a7c83a 	sub	r19,r3,r2
 40023d8:	04c0310e 	bge	zero,r19,40024a0 <___vfprintf_internal_r+0x1f1c>
 40023dc:	00001706 	br	400243c <___vfprintf_internal_r+0x1eb8>
 40023e0:	00810074 	movhi	r2,1025
 40023e4:	108db904 	addi	r2,r2,14052
 40023e8:	80800015 	stw	r2,0(r16)
 40023ec:	00800404 	movi	r2,16
 40023f0:	80800115 	stw	r2,4(r16)
 40023f4:	e0bfdb17 	ldw	r2,-148(fp)
 40023f8:	10800404 	addi	r2,r2,16
 40023fc:	e0bfdb15 	stw	r2,-148(fp)
 4002400:	84000204 	addi	r16,r16,8
 4002404:	e0bfda17 	ldw	r2,-152(fp)
 4002408:	10800044 	addi	r2,r2,1
 400240c:	e0bfda15 	stw	r2,-152(fp)
 4002410:	e0bfda17 	ldw	r2,-152(fp)
 4002414:	10800210 	cmplti	r2,r2,8
 4002418:	1000071e 	bne	r2,zero,4002438 <___vfprintf_internal_r+0x1eb4>
 400241c:	e0bfd904 	addi	r2,fp,-156
 4002420:	100d883a 	mov	r6,r2
 4002424:	e17fbc17 	ldw	r5,-272(fp)
 4002428:	e13fbd17 	ldw	r4,-268(fp)
 400242c:	40099280 	call	4009928 <__sprint_r>
 4002430:	1000831e 	bne	r2,zero,4002640 <___vfprintf_internal_r+0x20bc>
 4002434:	e43fc904 	addi	r16,fp,-220
 4002438:	9cfffc04 	addi	r19,r19,-16
 400243c:	98800448 	cmpgei	r2,r19,17
 4002440:	103fe71e 	bne	r2,zero,40023e0 <___vfprintf_internal_r+0x1e5c>
 4002444:	00810074 	movhi	r2,1025
 4002448:	108db904 	addi	r2,r2,14052
 400244c:	80800015 	stw	r2,0(r16)
 4002450:	9805883a 	mov	r2,r19
 4002454:	80800115 	stw	r2,4(r16)
 4002458:	e0bfdb17 	ldw	r2,-148(fp)
 400245c:	9807883a 	mov	r3,r19
 4002460:	10c5883a 	add	r2,r2,r3
 4002464:	e0bfdb15 	stw	r2,-148(fp)
 4002468:	84000204 	addi	r16,r16,8
 400246c:	e0bfda17 	ldw	r2,-152(fp)
 4002470:	10800044 	addi	r2,r2,1
 4002474:	e0bfda15 	stw	r2,-152(fp)
 4002478:	e0bfda17 	ldw	r2,-152(fp)
 400247c:	10800210 	cmplti	r2,r2,8
 4002480:	1000071e 	bne	r2,zero,40024a0 <___vfprintf_internal_r+0x1f1c>
 4002484:	e0bfd904 	addi	r2,fp,-156
 4002488:	100d883a 	mov	r6,r2
 400248c:	e17fbc17 	ldw	r5,-272(fp)
 4002490:	e13fbd17 	ldw	r4,-268(fp)
 4002494:	40099280 	call	4009928 <__sprint_r>
 4002498:	10006b1e 	bne	r2,zero,4002648 <___vfprintf_internal_r+0x20c4>
 400249c:	e43fc904 	addi	r16,fp,-220

		/* finally, adjust ret */
		ret += width > realsz ? width : realsz;
 40024a0:	e0fff617 	ldw	r3,-40(fp)
 40024a4:	e0bfee17 	ldw	r2,-72(fp)
 40024a8:	10c0010e 	bge	r2,r3,40024b0 <___vfprintf_internal_r+0x1f2c>
 40024ac:	1805883a 	mov	r2,r3
 40024b0:	e0fff717 	ldw	r3,-36(fp)
 40024b4:	1885883a 	add	r2,r3,r2
 40024b8:	e0bff715 	stw	r2,-36(fp)

		FLUSH ();	/* copy out the I/O vectors */
 40024bc:	e0bfdb17 	ldw	r2,-148(fp)
 40024c0:	10000626 	beq	r2,zero,40024dc <___vfprintf_internal_r+0x1f58>
 40024c4:	e0bfd904 	addi	r2,fp,-156
 40024c8:	100d883a 	mov	r6,r2
 40024cc:	e17fbc17 	ldw	r5,-272(fp)
 40024d0:	e13fbd17 	ldw	r4,-268(fp)
 40024d4:	40099280 	call	4009928 <__sprint_r>
 40024d8:	10005d1e 	bne	r2,zero,4002650 <___vfprintf_internal_r+0x20cc>
 40024dc:	e03fda15 	stw	zero,-152(fp)
 40024e0:	e43fc904 	addi	r16,fp,-220

                if (malloc_buf != NULL) {
 40024e4:	e0bfeb17 	ldw	r2,-84(fp)
 40024e8:	10388426 	beq	r2,zero,40006fc <___vfprintf_internal_r+0x178>
			_free_r (data, malloc_buf);
 40024ec:	e17feb17 	ldw	r5,-84(fp)
 40024f0:	e13fbd17 	ldw	r4,-268(fp)
 40024f4:	40055ac0 	call	40055ac <_free_r>
			malloc_buf = NULL;
 40024f8:	e03feb15 	stw	zero,-84(fp)
	        cp = fmt;
 40024fc:	00387f06 	br	40006fc <___vfprintf_internal_r+0x178>
                    goto done;
 4002500:	0001883a 	nop
 4002504:	00000106 	br	400250c <___vfprintf_internal_r+0x1f88>
				goto done;
 4002508:	0001883a 	nop
		}
	}
done:
	FLUSH ();
 400250c:	e0bfdb17 	ldw	r2,-148(fp)
 4002510:	10000626 	beq	r2,zero,400252c <___vfprintf_internal_r+0x1fa8>
 4002514:	e0bfd904 	addi	r2,fp,-156
 4002518:	100d883a 	mov	r6,r2
 400251c:	e17fbc17 	ldw	r5,-272(fp)
 4002520:	e13fbd17 	ldw	r4,-268(fp)
 4002524:	40099280 	call	4009928 <__sprint_r>
 4002528:	10004b1e 	bne	r2,zero,4002658 <___vfprintf_internal_r+0x20d4>
 400252c:	e03fda15 	stw	zero,-152(fp)
 4002530:	e43fc904 	addi	r16,fp,-220
 4002534:	00004906 	br	400265c <___vfprintf_internal_r+0x20d8>
			PRINT (cp, m);
 4002538:	0001883a 	nop
 400253c:	00004706 	br	400265c <___vfprintf_internal_r+0x20d8>
			PAD (width - realsz, blanks);
 4002540:	0001883a 	nop
 4002544:	00004506 	br	400265c <___vfprintf_internal_r+0x20d8>
 4002548:	0001883a 	nop
 400254c:	00004306 	br	400265c <___vfprintf_internal_r+0x20d8>
			PRINT (&sign, 1);
 4002550:	0001883a 	nop
 4002554:	00004106 	br	400265c <___vfprintf_internal_r+0x20d8>
			PRINT (ox, 2);
 4002558:	0001883a 	nop
 400255c:	00003f06 	br	400265c <___vfprintf_internal_r+0x20d8>
			PAD (width - realsz, zeroes);
 4002560:	0001883a 	nop
 4002564:	00003d06 	br	400265c <___vfprintf_internal_r+0x20d8>
 4002568:	0001883a 	nop
 400256c:	00003b06 	br	400265c <___vfprintf_internal_r+0x20d8>
		PAD (dprec - size, zeroes);
 4002570:	0001883a 	nop
 4002574:	00003906 	br	400265c <___vfprintf_internal_r+0x20d8>
 4002578:	0001883a 	nop
 400257c:	00003706 	br	400265c <___vfprintf_internal_r+0x20d8>
			PRINT (cp, size);
 4002580:	0001883a 	nop
 4002584:	00003506 	br	400265c <___vfprintf_internal_r+0x20d8>
					PRINT ("0", 1);
 4002588:	0001883a 	nop
 400258c:	00003306 	br	400265c <___vfprintf_internal_r+0x20d8>
						PRINT (decimal_point, decp_len);
 4002590:	0001883a 	nop
 4002594:	00003106 	br	400265c <___vfprintf_internal_r+0x20d8>
						PAD (ndig - 1, zeroes);
 4002598:	0001883a 	nop
 400259c:	00002f06 	br	400265c <___vfprintf_internal_r+0x20d8>
 40025a0:	0001883a 	nop
 40025a4:	00002d06 	br	400265c <___vfprintf_internal_r+0x20d8>
					PRINT ("0", 1);
 40025a8:	0001883a 	nop
 40025ac:	00002b06 	br	400265c <___vfprintf_internal_r+0x20d8>
						PRINT (decimal_point, decp_len);
 40025b0:	0001883a 	nop
 40025b4:	00002906 	br	400265c <___vfprintf_internal_r+0x20d8>
						PAD (-expt, zeroes);
 40025b8:	0001883a 	nop
 40025bc:	00002706 	br	400265c <___vfprintf_internal_r+0x20d8>
 40025c0:	0001883a 	nop
 40025c4:	00002506 	br	400265c <___vfprintf_internal_r+0x20d8>
						PRINT (cp, ndig);
 40025c8:	0001883a 	nop
 40025cc:	00002306 	br	400265c <___vfprintf_internal_r+0x20d8>
					PRINTANDPAD(cp, convbuf + ndig,
 40025d0:	0001883a 	nop
 40025d4:	00002106 	br	400265c <___vfprintf_internal_r+0x20d8>
 40025d8:	0001883a 	nop
 40025dc:	00001f06 	br	400265c <___vfprintf_internal_r+0x20d8>
 40025e0:	0001883a 	nop
 40025e4:	00001d06 	br	400265c <___vfprintf_internal_r+0x20d8>
					    PRINT (decimal_point, decp_len);
 40025e8:	0001883a 	nop
 40025ec:	00001b06 	br	400265c <___vfprintf_internal_r+0x20d8>
					PRINTANDPAD (cp, convbuf + ndig,
 40025f0:	0001883a 	nop
 40025f4:	00001906 	br	400265c <___vfprintf_internal_r+0x20d8>
 40025f8:	0001883a 	nop
 40025fc:	00001706 	br	400265c <___vfprintf_internal_r+0x20d8>
 4002600:	0001883a 	nop
 4002604:	00001506 	br	400265c <___vfprintf_internal_r+0x20d8>
					PRINT (cp, 1);
 4002608:	0001883a 	nop
 400260c:	00001306 	br	400265c <___vfprintf_internal_r+0x20d8>
					PRINT (decimal_point, decp_len);
 4002610:	0001883a 	nop
 4002614:	00001106 	br	400265c <___vfprintf_internal_r+0x20d8>
						PRINT (cp, ndig - 1);
 4002618:	0001883a 	nop
 400261c:	00000f06 	br	400265c <___vfprintf_internal_r+0x20d8>
						PAD (ndig - 1, zeroes);
 4002620:	0001883a 	nop
 4002624:	00000d06 	br	400265c <___vfprintf_internal_r+0x20d8>
 4002628:	0001883a 	nop
 400262c:	00000b06 	br	400265c <___vfprintf_internal_r+0x20d8>
					PRINT (cp, 1);
 4002630:	0001883a 	nop
 4002634:	00000906 	br	400265c <___vfprintf_internal_r+0x20d8>
				PRINT (expstr, expsize);
 4002638:	0001883a 	nop
 400263c:	00000706 	br	400265c <___vfprintf_internal_r+0x20d8>
			PAD (width - realsz, blanks);
 4002640:	0001883a 	nop
 4002644:	00000506 	br	400265c <___vfprintf_internal_r+0x20d8>
 4002648:	0001883a 	nop
 400264c:	00000306 	br	400265c <___vfprintf_internal_r+0x20d8>
		FLUSH ();	/* copy out the I/O vectors */
 4002650:	0001883a 	nop
 4002654:	00000106 	br	400265c <___vfprintf_internal_r+0x20d8>
	FLUSH ();
 4002658:	0001883a 	nop
error:
	if (malloc_buf != NULL)
 400265c:	e0bfeb17 	ldw	r2,-84(fp)
 4002660:	10000326 	beq	r2,zero,4002670 <___vfprintf_internal_r+0x20ec>
		_free_r (data, malloc_buf);
 4002664:	e17feb17 	ldw	r5,-84(fp)
 4002668:	e13fbd17 	ldw	r4,-268(fp)
 400266c:	40055ac0 	call	40055ac <_free_r>
#ifndef STRING_ONLY
	_newlib_flockfile_end (fp);
#endif
	return (__sferror (fp) ? EOF : ret);
 4002670:	e0bfbc17 	ldw	r2,-272(fp)
 4002674:	1080030b 	ldhu	r2,12(r2)
 4002678:	10bfffcc 	andi	r2,r2,65535
 400267c:	1080100c 	andi	r2,r2,64
 4002680:	1000021e 	bne	r2,zero,400268c <___vfprintf_internal_r+0x2108>
 4002684:	e0bff717 	ldw	r2,-36(fp)
 4002688:	00000106 	br	4002690 <___vfprintf_internal_r+0x210c>
 400268c:	00bfffc4 	movi	r2,-1
	/* NOTREACHED */
}
 4002690:	e6fff804 	addi	sp,fp,-32
 4002694:	dfc00917 	ldw	ra,36(sp)
 4002698:	df000817 	ldw	fp,32(sp)
 400269c:	ddc00717 	ldw	r23,28(sp)
 40026a0:	dd800617 	ldw	r22,24(sp)
 40026a4:	dd400517 	ldw	r21,20(sp)
 40026a8:	dd000417 	ldw	r20,16(sp)
 40026ac:	dcc00317 	ldw	r19,12(sp)
 40026b0:	dc800217 	ldw	r18,8(sp)
 40026b4:	dc400117 	ldw	r17,4(sp)
 40026b8:	dc000017 	ldw	r16,0(sp)
 40026bc:	dec00a04 	addi	sp,sp,40
 40026c0:	f800283a 	ret

040026c4 <cvt>:
   [aAeEfFgG]; if it is [aA], then the return string lives in BUF,
   otherwise the return value shares the mprec reentrant storage.  */
static char *
cvt(struct _reent *data, _PRINTF_FLOAT_TYPE value, int ndigits, int flags,
    char *sign, int *decpt, int ch, int *length, char *buf)
{
 40026c4:	deffef04 	addi	sp,sp,-68
 40026c8:	dfc01015 	stw	ra,64(sp)
 40026cc:	df000f15 	stw	fp,60(sp)
 40026d0:	df000f04 	addi	fp,sp,60
 40026d4:	e13ff815 	stw	r4,-32(fp)
 40026d8:	e17ff615 	stw	r5,-40(fp)
 40026dc:	e1bff715 	stw	r6,-36(fp)
 40026e0:	e1fff515 	stw	r7,-44(fp)
	int mode, dsgn;
	char *digits, *bp, *rve;
# ifdef _NO_LONGDBL
	union double_union tmp;

	tmp.d = value;
 40026e4:	e0bff617 	ldw	r2,-40(fp)
 40026e8:	e0bff915 	stw	r2,-28(fp)
 40026ec:	e0bff717 	ldw	r2,-36(fp)
 40026f0:	e0bffa15 	stw	r2,-24(fp)
	if (word0 (tmp) & Sign_bit) { /* this will check for < 0 and -0.0 */
 40026f4:	e0bffa17 	ldw	r2,-24(fp)
 40026f8:	1000090e 	bge	r2,zero,4002720 <cvt+0x5c>
		value = -value;
 40026fc:	e0bff617 	ldw	r2,-40(fp)
 4002700:	e0bff615 	stw	r2,-40(fp)
 4002704:	e0bff717 	ldw	r2,-36(fp)
 4002708:	10a0003c 	xorhi	r2,r2,32768
 400270c:	e0bff715 	stw	r2,-36(fp)
		*sign = '-';
 4002710:	e0800317 	ldw	r2,12(fp)
 4002714:	00c00b44 	movi	r3,45
 4002718:	10c00005 	stb	r3,0(r2)
 400271c:	00000206 	br	4002728 <cvt+0x64>
	} else
		*sign = '\000';
 4002720:	e0800317 	ldw	r2,12(fp)
 4002724:	10000005 	stb	zero,0(r2)
		}
		*length = bp - buf;
		return buf;
	}
# endif /* _WANT_IO_C99_FORMATS */
	if (ch == 'f' || ch == 'F') {
 4002728:	e0800517 	ldw	r2,20(fp)
 400272c:	108019a0 	cmpeqi	r2,r2,102
 4002730:	1000031e 	bne	r2,zero,4002740 <cvt+0x7c>
 4002734:	e0800517 	ldw	r2,20(fp)
 4002738:	10801198 	cmpnei	r2,r2,70
 400273c:	1000031e 	bne	r2,zero,400274c <cvt+0x88>
		mode = 3;		/* ndigits after the decimal point */
 4002740:	008000c4 	movi	r2,3
 4002744:	e0bfff15 	stw	r2,-4(fp)
 4002748:	00000b06 	br	4002778 <cvt+0xb4>
	} else {
		/* To obtain ndigits after the decimal point for the 'e'
		 * and 'E' formats, round to ndigits + 1 significant
		 * figures.
		 */
		if (ch == 'e' || ch == 'E') {
 400274c:	e0800517 	ldw	r2,20(fp)
 4002750:	10801960 	cmpeqi	r2,r2,101
 4002754:	1000031e 	bne	r2,zero,4002764 <cvt+0xa0>
 4002758:	e0800517 	ldw	r2,20(fp)
 400275c:	10801158 	cmpnei	r2,r2,69
 4002760:	1000031e 	bne	r2,zero,4002770 <cvt+0xac>
			ndigits++;
 4002764:	e0bff517 	ldw	r2,-44(fp)
 4002768:	10800044 	addi	r2,r2,1
 400276c:	e0bff515 	stw	r2,-44(fp)
		}
		mode = 2;		/* ndigits significant digits */
 4002770:	00800084 	movi	r2,2
 4002774:	e0bfff15 	stw	r2,-4(fp)
	}

	digits = _DTOA_R (data, value, mode, ndigits, decpt, &dsgn, &rve);
 4002778:	e0bffb04 	addi	r2,fp,-20
 400277c:	d8800315 	stw	r2,12(sp)
 4002780:	e0bffc04 	addi	r2,fp,-16
 4002784:	d8800215 	stw	r2,8(sp)
 4002788:	e0800417 	ldw	r2,16(fp)
 400278c:	d8800115 	stw	r2,4(sp)
 4002790:	e0bff517 	ldw	r2,-44(fp)
 4002794:	d8800015 	stw	r2,0(sp)
 4002798:	e1ffff17 	ldw	r7,-4(fp)
 400279c:	e17ff617 	ldw	r5,-40(fp)
 40027a0:	e1bff717 	ldw	r6,-36(fp)
 40027a4:	e13ff817 	ldw	r4,-32(fp)
 40027a8:	4002f580 	call	4002f58 <_dtoa_r>
 40027ac:	e0bffd15 	stw	r2,-12(fp)

	if ((ch != 'g' && ch != 'G') || flags & ALT) {	/* Print trailing zeros */
 40027b0:	e0800517 	ldw	r2,20(fp)
 40027b4:	108019e0 	cmpeqi	r2,r2,103
 40027b8:	1000031e 	bne	r2,zero,40027c8 <cvt+0x104>
 40027bc:	e0800517 	ldw	r2,20(fp)
 40027c0:	108011d8 	cmpnei	r2,r2,71
 40027c4:	1000031e 	bne	r2,zero,40027d4 <cvt+0x110>
 40027c8:	e0800217 	ldw	r2,8(fp)
 40027cc:	1080004c 	andi	r2,r2,1
 40027d0:	10003326 	beq	r2,zero,40028a0 <cvt+0x1dc>
		bp = digits + ndigits;
 40027d4:	e0bff517 	ldw	r2,-44(fp)
 40027d8:	e0fffd17 	ldw	r3,-12(fp)
 40027dc:	1885883a 	add	r2,r3,r2
 40027e0:	e0bffe15 	stw	r2,-8(fp)
		if (ch == 'f' || ch == 'F') {
 40027e4:	e0800517 	ldw	r2,20(fp)
 40027e8:	108019a0 	cmpeqi	r2,r2,102
 40027ec:	1000031e 	bne	r2,zero,40027fc <cvt+0x138>
 40027f0:	e0800517 	ldw	r2,20(fp)
 40027f4:	10801198 	cmpnei	r2,r2,70
 40027f8:	1000181e 	bne	r2,zero,400285c <cvt+0x198>
			if (*digits == '0' && value)
 40027fc:	e0bffd17 	ldw	r2,-12(fp)
 4002800:	10800003 	ldbu	r2,0(r2)
 4002804:	10803fcc 	andi	r2,r2,255
 4002808:	1080201c 	xori	r2,r2,128
 400280c:	10bfe004 	addi	r2,r2,-128
 4002810:	10800c18 	cmpnei	r2,r2,48
 4002814:	10000b1e 	bne	r2,zero,4002844 <cvt+0x180>
 4002818:	000d883a 	mov	r6,zero
 400281c:	000f883a 	mov	r7,zero
 4002820:	e13ff617 	ldw	r4,-40(fp)
 4002824:	e17ff717 	ldw	r5,-36(fp)
 4002828:	400f36c0 	call	400f36c <__eqdf2>
 400282c:	10000526 	beq	r2,zero,4002844 <cvt+0x180>
				*decpt = -ndigits + 1;
 4002830:	00c00044 	movi	r3,1
 4002834:	e0bff517 	ldw	r2,-44(fp)
 4002838:	1887c83a 	sub	r3,r3,r2
 400283c:	e0800417 	ldw	r2,16(fp)
 4002840:	10c00015 	stw	r3,0(r2)
			bp += *decpt;
 4002844:	e0800417 	ldw	r2,16(fp)
 4002848:	10800017 	ldw	r2,0(r2)
 400284c:	1007883a 	mov	r3,r2
 4002850:	e0bffe17 	ldw	r2,-8(fp)
 4002854:	10c5883a 	add	r2,r2,r3
 4002858:	e0bffe15 	stw	r2,-8(fp)
		}
		if (value == 0)	/* kludge for __dtoa irregularity */
 400285c:	000d883a 	mov	r6,zero
 4002860:	000f883a 	mov	r7,zero
 4002864:	e13ff617 	ldw	r4,-40(fp)
 4002868:	e17ff717 	ldw	r5,-36(fp)
 400286c:	400f36c0 	call	400f36c <__eqdf2>
 4002870:	1000081e 	bne	r2,zero,4002894 <cvt+0x1d0>
			rve = bp;
 4002874:	e0bffe17 	ldw	r2,-8(fp)
 4002878:	e0bffb15 	stw	r2,-20(fp)
		while (rve < bp)
 400287c:	00000506 	br	4002894 <cvt+0x1d0>
			*rve++ = '0';
 4002880:	e0bffb17 	ldw	r2,-20(fp)
 4002884:	10c00044 	addi	r3,r2,1
 4002888:	e0fffb15 	stw	r3,-20(fp)
 400288c:	00c00c04 	movi	r3,48
 4002890:	10c00005 	stb	r3,0(r2)
		while (rve < bp)
 4002894:	e0fffb17 	ldw	r3,-20(fp)
 4002898:	e0bffe17 	ldw	r2,-8(fp)
 400289c:	18bff836 	bltu	r3,r2,4002880 <cvt+0x1bc>
	}
	*length = rve - digits;
 40028a0:	e0fffb17 	ldw	r3,-20(fp)
 40028a4:	e0bffd17 	ldw	r2,-12(fp)
 40028a8:	1887c83a 	sub	r3,r3,r2
 40028ac:	e0800617 	ldw	r2,24(fp)
 40028b0:	10c00015 	stw	r3,0(r2)
	return (digits);
 40028b4:	e0bffd17 	ldw	r2,-12(fp)
}
 40028b8:	e037883a 	mov	sp,fp
 40028bc:	dfc00117 	ldw	ra,4(sp)
 40028c0:	df000017 	ldw	fp,0(sp)
 40028c4:	dec00204 	addi	sp,sp,8
 40028c8:	f800283a 	ret

040028cc <exponent>:

static int
exponent(char *p0, int exp, int fmtch)
{
 40028cc:	defff704 	addi	sp,sp,-36
 40028d0:	dfc00815 	stw	ra,32(sp)
 40028d4:	df000715 	stw	fp,28(sp)
 40028d8:	dc400615 	stw	r17,24(sp)
 40028dc:	dc000515 	stw	r16,20(sp)
 40028e0:	df000704 	addi	fp,sp,28
 40028e4:	e13ffb15 	stw	r4,-20(fp)
 40028e8:	e17ffa15 	stw	r5,-24(fp)
 40028ec:	e1bff915 	stw	r6,-28(fp)
	int isa = fmtch == 'a' || fmtch == 'A';
# else
#  define isa 0
# endif

	p = p0;
 40028f0:	e47ffb17 	ldw	r17,-20(fp)
	*p++ = isa ? 'p' - 'a' + fmtch : fmtch;
 40028f4:	8805883a 	mov	r2,r17
 40028f8:	14400044 	addi	r17,r2,1
 40028fc:	e0fff917 	ldw	r3,-28(fp)
 4002900:	10c00005 	stb	r3,0(r2)
	if (exp < 0) {
 4002904:	e0bffa17 	ldw	r2,-24(fp)
 4002908:	1000080e 	bge	r2,zero,400292c <exponent+0x60>
		exp = -exp;
 400290c:	e0bffa17 	ldw	r2,-24(fp)
 4002910:	0085c83a 	sub	r2,zero,r2
 4002914:	e0bffa15 	stw	r2,-24(fp)
		*p++ = '-';
 4002918:	8805883a 	mov	r2,r17
 400291c:	14400044 	addi	r17,r2,1
 4002920:	00c00b44 	movi	r3,45
 4002924:	10c00005 	stb	r3,0(r2)
 4002928:	00000406 	br	400293c <exponent+0x70>
	}
	else
		*p++ = '+';
 400292c:	8805883a 	mov	r2,r17
 4002930:	14400044 	addi	r17,r2,1
 4002934:	00c00ac4 	movi	r3,43
 4002938:	10c00005 	stb	r3,0(r2)
	t = expbuf + MAXEXPLEN;
 400293c:	e43ffc44 	addi	r16,fp,-15
 4002940:	840001c4 	addi	r16,r16,7
	if (exp > 9) {
 4002944:	e0bffa17 	ldw	r2,-24(fp)
 4002948:	10800290 	cmplti	r2,r2,10
 400294c:	10001e1e 	bne	r2,zero,40029c8 <exponent+0xfc>
		do {
			*--t = to_char (exp % 10);
 4002950:	e0bffa17 	ldw	r2,-24(fp)
 4002954:	01400284 	movi	r5,10
 4002958:	1009883a 	mov	r4,r2
 400295c:	400e0600 	call	400e060 <__modsi3>
 4002960:	10800c04 	addi	r2,r2,48
 4002964:	843fffc4 	addi	r16,r16,-1
 4002968:	80800005 	stb	r2,0(r16)
		} while ((exp /= 10) > 9);
 400296c:	e0bffa17 	ldw	r2,-24(fp)
 4002970:	01400284 	movi	r5,10
 4002974:	1009883a 	mov	r4,r2
 4002978:	400dfe00 	call	400dfe0 <__divsi3>
 400297c:	e0bffa15 	stw	r2,-24(fp)
 4002980:	e0bffa17 	ldw	r2,-24(fp)
 4002984:	10800288 	cmpgei	r2,r2,10
 4002988:	103ff11e 	bne	r2,zero,4002950 <exponent+0x84>
		*--t = to_char (exp);
 400298c:	e0bffa17 	ldw	r2,-24(fp)
 4002990:	10800c04 	addi	r2,r2,48
 4002994:	843fffc4 	addi	r16,r16,-1
 4002998:	80800005 	stb	r2,0(r16)
		for (; t < expbuf + MAXEXPLEN; *p++ = *t++);
 400299c:	00000606 	br	40029b8 <exponent+0xec>
 40029a0:	8007883a 	mov	r3,r16
 40029a4:	1c000044 	addi	r16,r3,1
 40029a8:	8805883a 	mov	r2,r17
 40029ac:	14400044 	addi	r17,r2,1
 40029b0:	18c00003 	ldbu	r3,0(r3)
 40029b4:	10c00005 	stb	r3,0(r2)
 40029b8:	e0bffc44 	addi	r2,fp,-15
 40029bc:	108001c4 	addi	r2,r2,7
 40029c0:	80bff736 	bltu	r16,r2,40029a0 <exponent+0xd4>
 40029c4:	00000a06 	br	40029f0 <exponent+0x124>
	}
	else {
		if (!isa)
			*p++ = '0';
 40029c8:	8805883a 	mov	r2,r17
 40029cc:	14400044 	addi	r17,r2,1
 40029d0:	00c00c04 	movi	r3,48
 40029d4:	10c00005 	stb	r3,0(r2)
		*p++ = to_char (exp);
 40029d8:	e0bffa17 	ldw	r2,-24(fp)
 40029dc:	10800c04 	addi	r2,r2,48
 40029e0:	1007883a 	mov	r3,r2
 40029e4:	8805883a 	mov	r2,r17
 40029e8:	14400044 	addi	r17,r2,1
 40029ec:	10c00005 	stb	r3,0(r2)
	}
	return (p - p0);
 40029f0:	e0bffb17 	ldw	r2,-20(fp)
 40029f4:	8885c83a 	sub	r2,r17,r2
}
 40029f8:	e6fffe04 	addi	sp,fp,-8
 40029fc:	dfc00317 	ldw	ra,12(sp)
 4002a00:	df000217 	ldw	fp,8(sp)
 4002a04:	dc400117 	ldw	r17,4(sp)
 4002a08:	dc000017 	ldw	r16,0(sp)
 4002a0c:	dec00404 	addi	sp,sp,16
 4002a10:	f800283a 	ret

04002a14 <__swsetup_r>:
 */

int
__swsetup_r (struct _reent *ptr,
       register FILE * fp)
{
 4002a14:	defffb04 	addi	sp,sp,-20
 4002a18:	dfc00415 	stw	ra,16(sp)
 4002a1c:	df000315 	stw	fp,12(sp)
 4002a20:	dc000215 	stw	r16,8(sp)
 4002a24:	df000304 	addi	fp,sp,12
 4002a28:	e13ffd15 	stw	r4,-12(fp)
 4002a2c:	2821883a 	mov	r16,r5
  /* Make sure stdio is set up.  */

  CHECK_INIT (_REENT, fp);
 4002a30:	d0a00017 	ldw	r2,-32768(gp)
 4002a34:	e0bffe15 	stw	r2,-8(fp)
 4002a38:	e0bffe17 	ldw	r2,-8(fp)
 4002a3c:	10000526 	beq	r2,zero,4002a54 <__swsetup_r+0x40>
 4002a40:	e0bffe17 	ldw	r2,-8(fp)
 4002a44:	10800e17 	ldw	r2,56(r2)
 4002a48:	1000021e 	bne	r2,zero,4002a54 <__swsetup_r+0x40>
 4002a4c:	e13ffe17 	ldw	r4,-8(fp)
 4002a50:	40053b00 	call	40053b0 <__sinit>

  /*
   * If we are not writing, we had better be reading and writing.
   */

  if ((fp->_flags & __SWR) == 0)
 4002a54:	8080030b 	ldhu	r2,12(r16)
 4002a58:	10bfffcc 	andi	r2,r2,65535
 4002a5c:	1080020c 	andi	r2,r2,8
 4002a60:	1000241e 	bne	r2,zero,4002af4 <__swsetup_r+0xe0>
    {
      if ((fp->_flags & __SRW) == 0)
 4002a64:	8080030b 	ldhu	r2,12(r16)
 4002a68:	10bfffcc 	andi	r2,r2,65535
 4002a6c:	1080040c 	andi	r2,r2,16
 4002a70:	1000081e 	bne	r2,zero,4002a94 <__swsetup_r+0x80>
        {
	  ptr->_errno = EBADF;
 4002a74:	e0bffd17 	ldw	r2,-12(fp)
 4002a78:	00c00244 	movi	r3,9
 4002a7c:	10c00015 	stw	r3,0(r2)
	  fp->_flags |= __SERR;
 4002a80:	8080030b 	ldhu	r2,12(r16)
 4002a84:	10801014 	ori	r2,r2,64
 4002a88:	8080030d 	sth	r2,12(r16)
	  return EOF;
 4002a8c:	00bfffc4 	movi	r2,-1
 4002a90:	00004206 	br	4002b9c <__swsetup_r+0x188>
        }
      if (fp->_flags & __SRD)
 4002a94:	8080030b 	ldhu	r2,12(r16)
 4002a98:	10bfffcc 	andi	r2,r2,65535
 4002a9c:	1080010c 	andi	r2,r2,4
 4002aa0:	10001126 	beq	r2,zero,4002ae8 <__swsetup_r+0xd4>
	{
	  /* clobber any ungetc data */
	  if (HASUB (fp))
 4002aa4:	80800c17 	ldw	r2,48(r16)
 4002aa8:	10000826 	beq	r2,zero,4002acc <__swsetup_r+0xb8>
	    FREEUB (ptr, fp);
 4002aac:	80c00c17 	ldw	r3,48(r16)
 4002ab0:	80801004 	addi	r2,r16,64
 4002ab4:	18800426 	beq	r3,r2,4002ac8 <__swsetup_r+0xb4>
 4002ab8:	80800c17 	ldw	r2,48(r16)
 4002abc:	100b883a 	mov	r5,r2
 4002ac0:	e13ffd17 	ldw	r4,-12(fp)
 4002ac4:	40055ac0 	call	40055ac <_free_r>
 4002ac8:	80000c15 	stw	zero,48(r16)
	  fp->_flags &= ~(__SRD | __SEOF);
 4002acc:	80c0030b 	ldhu	r3,12(r16)
 4002ad0:	00bff6c4 	movi	r2,-37
 4002ad4:	1884703a 	and	r2,r3,r2
 4002ad8:	8080030d 	sth	r2,12(r16)
	  fp->_r = 0;
 4002adc:	80000115 	stw	zero,4(r16)
	  fp->_p = fp->_bf._base;
 4002ae0:	80800417 	ldw	r2,16(r16)
 4002ae4:	80800015 	stw	r2,0(r16)
	}
      fp->_flags |= __SWR;
 4002ae8:	8080030b 	ldhu	r2,12(r16)
 4002aec:	10800214 	ori	r2,r2,8
 4002af0:	8080030d 	sth	r2,12(r16)
  /*
   * Make a buffer if necessary, then set _w.
   * A string I/O file should not explicitly allocate a buffer
   * unless asprintf is being used.
   */
  if (fp->_bf._base == NULL
 4002af4:	80800417 	ldw	r2,16(r16)
 4002af8:	10000b1e 	bne	r2,zero,4002b28 <__swsetup_r+0x114>
        && (!(fp->_flags & __SSTR) || (fp->_flags & __SMBF)))
 4002afc:	8080030b 	ldhu	r2,12(r16)
 4002b00:	10bfffcc 	andi	r2,r2,65535
 4002b04:	1080800c 	andi	r2,r2,512
 4002b08:	10000426 	beq	r2,zero,4002b1c <__swsetup_r+0x108>
 4002b0c:	8080030b 	ldhu	r2,12(r16)
 4002b10:	10bfffcc 	andi	r2,r2,65535
 4002b14:	1080200c 	andi	r2,r2,128
 4002b18:	10000326 	beq	r2,zero,4002b28 <__swsetup_r+0x114>
    __smakebuf_r (ptr, fp);
 4002b1c:	800b883a 	mov	r5,r16
 4002b20:	e13ffd17 	ldw	r4,-12(fp)
 4002b24:	40060e40 	call	40060e4 <__smakebuf_r>

  if (fp->_flags & __SLBF)
 4002b28:	8080030b 	ldhu	r2,12(r16)
 4002b2c:	10bfffcc 	andi	r2,r2,65535
 4002b30:	1080004c 	andi	r2,r2,1
 4002b34:	10000526 	beq	r2,zero,4002b4c <__swsetup_r+0x138>
      /*
       * It is line buffered, so make _lbfsize be -_bufsize
       * for the putc() macro.  We will change _lbfsize back
       * to 0 whenever we turn off __SWR.
       */
      fp->_w = 0;
 4002b38:	80000215 	stw	zero,8(r16)
      fp->_lbfsize = -fp->_bf._size;
 4002b3c:	80800517 	ldw	r2,20(r16)
 4002b40:	0085c83a 	sub	r2,zero,r2
 4002b44:	80800615 	stw	r2,24(r16)
 4002b48:	00000806 	br	4002b6c <__swsetup_r+0x158>
    }
  else
    fp->_w = fp->_flags & __SNBF ? 0 : fp->_bf._size;
 4002b4c:	8080030b 	ldhu	r2,12(r16)
 4002b50:	10bfffcc 	andi	r2,r2,65535
 4002b54:	1080008c 	andi	r2,r2,2
 4002b58:	1000021e 	bne	r2,zero,4002b64 <__swsetup_r+0x150>
 4002b5c:	80800517 	ldw	r2,20(r16)
 4002b60:	00000106 	br	4002b68 <__swsetup_r+0x154>
 4002b64:	0005883a 	mov	r2,zero
 4002b68:	80800215 	stw	r2,8(r16)

  if (!fp->_bf._base && (fp->_flags & __SMBF))
 4002b6c:	80800417 	ldw	r2,16(r16)
 4002b70:	1000091e 	bne	r2,zero,4002b98 <__swsetup_r+0x184>
 4002b74:	8080030b 	ldhu	r2,12(r16)
 4002b78:	10bfffcc 	andi	r2,r2,65535
 4002b7c:	1080200c 	andi	r2,r2,128
 4002b80:	10000526 	beq	r2,zero,4002b98 <__swsetup_r+0x184>
    {
      /* __smakebuf_r set errno, but not flag */
      fp->_flags |= __SERR;
 4002b84:	8080030b 	ldhu	r2,12(r16)
 4002b88:	10801014 	ori	r2,r2,64
 4002b8c:	8080030d 	sth	r2,12(r16)
      return EOF;
 4002b90:	00bfffc4 	movi	r2,-1
 4002b94:	00000106 	br	4002b9c <__swsetup_r+0x188>
    }
  return 0;
 4002b98:	0005883a 	mov	r2,zero
}
 4002b9c:	e6ffff04 	addi	sp,fp,-4
 4002ba0:	dfc00217 	ldw	ra,8(sp)
 4002ba4:	df000117 	ldw	fp,4(sp)
 4002ba8:	dc000017 	ldw	r16,0(sp)
 4002bac:	dec00304 	addi	sp,sp,12
 4002bb0:	f800283a 	ret

04002bb4 <quorem>:
#include <string.h>
#include "mprec.h"

static int
quorem (_Bigint * b, _Bigint * S)
{
 4002bb4:	deffef04 	addi	sp,sp,-68
 4002bb8:	dfc01015 	stw	ra,64(sp)
 4002bbc:	df000f15 	stw	fp,60(sp)
 4002bc0:	df000f04 	addi	fp,sp,60
 4002bc4:	e13ff215 	stw	r4,-56(fp)
 4002bc8:	e17ff115 	stw	r5,-60(fp)
#ifdef Pack_32
  __Long z;
  __ULong si, zs;
#endif

  n = S->_wds;
 4002bcc:	e0bff117 	ldw	r2,-60(fp)
 4002bd0:	10800417 	ldw	r2,16(r2)
 4002bd4:	e0bfff15 	stw	r2,-4(fp)
#ifdef DEBUG
  /*debug*/ if (b->_wds > n)
    /*debug*/ Bug ("oversize b in quorem");
#endif
  if (b->_wds < n)
 4002bd8:	e0bff217 	ldw	r2,-56(fp)
 4002bdc:	10c00417 	ldw	r3,16(r2)
 4002be0:	e0bfff17 	ldw	r2,-4(fp)
 4002be4:	1880020e 	bge	r3,r2,4002bf0 <quorem+0x3c>
    return 0;
 4002be8:	0005883a 	mov	r2,zero
 4002bec:	0000d506 	br	4002f44 <quorem+0x390>
  sx = S->_x;
 4002bf0:	e0bff117 	ldw	r2,-60(fp)
 4002bf4:	10800504 	addi	r2,r2,20
 4002bf8:	e0bff915 	stw	r2,-28(fp)
  sxe = sx + --n;
 4002bfc:	e0bfff17 	ldw	r2,-4(fp)
 4002c00:	10bfffc4 	addi	r2,r2,-1
 4002c04:	e0bfff15 	stw	r2,-4(fp)
 4002c08:	e0bfff17 	ldw	r2,-4(fp)
 4002c0c:	100490ba 	slli	r2,r2,2
 4002c10:	e0fff917 	ldw	r3,-28(fp)
 4002c14:	1885883a 	add	r2,r3,r2
 4002c18:	e0bff815 	stw	r2,-32(fp)
  bx = b->_x;
 4002c1c:	e0bff217 	ldw	r2,-56(fp)
 4002c20:	10800504 	addi	r2,r2,20
 4002c24:	e0bffb15 	stw	r2,-20(fp)
  bxe = bx + n;
 4002c28:	e0bfff17 	ldw	r2,-4(fp)
 4002c2c:	100490ba 	slli	r2,r2,2
 4002c30:	e0fffb17 	ldw	r3,-20(fp)
 4002c34:	1885883a 	add	r2,r3,r2
 4002c38:	e0bffa15 	stw	r2,-24(fp)
  q = *bxe / (*sxe + 1);	/* ensure q <= true quotient */
 4002c3c:	e0bffa17 	ldw	r2,-24(fp)
 4002c40:	10c00017 	ldw	r3,0(r2)
 4002c44:	e0bff817 	ldw	r2,-32(fp)
 4002c48:	10800017 	ldw	r2,0(r2)
 4002c4c:	10800044 	addi	r2,r2,1
 4002c50:	100b883a 	mov	r5,r2
 4002c54:	1809883a 	mov	r4,r3
 4002c58:	400e0d40 	call	400e0d4 <__udivsi3>
 4002c5c:	e0bffc15 	stw	r2,-16(fp)
#ifdef DEBUG
  /*debug*/ if (q > 9)
    /*debug*/ Bug ("oversized quotient in quorem");
#endif
  if (q)
 4002c60:	e0bffc17 	ldw	r2,-16(fp)
 4002c64:	10005426 	beq	r2,zero,4002db8 <quorem+0x204>
    {
      borrow = 0;
 4002c68:	e03ffe15 	stw	zero,-8(fp)
      carry = 0;
 4002c6c:	e03ffd15 	stw	zero,-12(fp)
      do
	{
#ifdef Pack_32
	  si = *sx++;
 4002c70:	e0bff917 	ldw	r2,-28(fp)
 4002c74:	10c00104 	addi	r3,r2,4
 4002c78:	e0fff915 	stw	r3,-28(fp)
 4002c7c:	10800017 	ldw	r2,0(r2)
 4002c80:	e0bff715 	stw	r2,-36(fp)
	  ys = (si & 0xffff) * q + carry;
 4002c84:	e0bff717 	ldw	r2,-36(fp)
 4002c88:	10ffffcc 	andi	r3,r2,65535
 4002c8c:	e0bffc17 	ldw	r2,-16(fp)
 4002c90:	1885383a 	mul	r2,r3,r2
 4002c94:	e0fffd17 	ldw	r3,-12(fp)
 4002c98:	1885883a 	add	r2,r3,r2
 4002c9c:	e0bff615 	stw	r2,-40(fp)
	  zs = (si >> 16) * q + (ys >> 16);
 4002ca0:	e0bff717 	ldw	r2,-36(fp)
 4002ca4:	1006d43a 	srli	r3,r2,16
 4002ca8:	e0bffc17 	ldw	r2,-16(fp)
 4002cac:	1887383a 	mul	r3,r3,r2
 4002cb0:	e0bff617 	ldw	r2,-40(fp)
 4002cb4:	1004d43a 	srli	r2,r2,16
 4002cb8:	1885883a 	add	r2,r3,r2
 4002cbc:	e0bff515 	stw	r2,-44(fp)
	  carry = zs >> 16;
 4002cc0:	e0bff517 	ldw	r2,-44(fp)
 4002cc4:	1004d43a 	srli	r2,r2,16
 4002cc8:	e0bffd15 	stw	r2,-12(fp)
	  y = (*bx & 0xffff) - (ys & 0xffff) + borrow;
 4002ccc:	e0bffb17 	ldw	r2,-20(fp)
 4002cd0:	10800017 	ldw	r2,0(r2)
 4002cd4:	10ffffcc 	andi	r3,r2,65535
 4002cd8:	e0bff617 	ldw	r2,-40(fp)
 4002cdc:	10bfffcc 	andi	r2,r2,65535
 4002ce0:	1887c83a 	sub	r3,r3,r2
 4002ce4:	e0bffe17 	ldw	r2,-8(fp)
 4002ce8:	1885883a 	add	r2,r3,r2
 4002cec:	e0bff415 	stw	r2,-48(fp)
	  borrow = y >> 16;
 4002cf0:	e0bff417 	ldw	r2,-48(fp)
 4002cf4:	1005d43a 	srai	r2,r2,16
 4002cf8:	e0bffe15 	stw	r2,-8(fp)
	  Sign_Extend (borrow, y);
	  z = (*bx >> 16) - (zs & 0xffff) + borrow;
 4002cfc:	e0bffb17 	ldw	r2,-20(fp)
 4002d00:	10800017 	ldw	r2,0(r2)
 4002d04:	1006d43a 	srli	r3,r2,16
 4002d08:	e0bff517 	ldw	r2,-44(fp)
 4002d0c:	10bfffcc 	andi	r2,r2,65535
 4002d10:	1887c83a 	sub	r3,r3,r2
 4002d14:	e0bffe17 	ldw	r2,-8(fp)
 4002d18:	1885883a 	add	r2,r3,r2
 4002d1c:	e0bff315 	stw	r2,-52(fp)
	  borrow = z >> 16;
 4002d20:	e0bff317 	ldw	r2,-52(fp)
 4002d24:	1005d43a 	srai	r2,r2,16
 4002d28:	e0bffe15 	stw	r2,-8(fp)
	  Sign_Extend (borrow, z);
	  Storeinc (bx, z, y);
 4002d2c:	e0bff317 	ldw	r2,-52(fp)
 4002d30:	1006943a 	slli	r3,r2,16
 4002d34:	e0bff417 	ldw	r2,-48(fp)
 4002d38:	10bfffcc 	andi	r2,r2,65535
 4002d3c:	1888b03a 	or	r4,r3,r2
 4002d40:	e0bffb17 	ldw	r2,-20(fp)
 4002d44:	10c00104 	addi	r3,r2,4
 4002d48:	e0fffb15 	stw	r3,-20(fp)
 4002d4c:	2007883a 	mov	r3,r4
 4002d50:	10c00015 	stw	r3,0(r2)
	  borrow = y >> 16;
	  Sign_Extend (borrow, y);
	  *bx++ = y & 0xffff;
#endif
	}
      while (sx <= sxe);
 4002d54:	e0bff917 	ldw	r2,-28(fp)
 4002d58:	e0fff817 	ldw	r3,-32(fp)
 4002d5c:	18bfc42e 	bgeu	r3,r2,4002c70 <quorem+0xbc>
      if (!*bxe)
 4002d60:	e0bffa17 	ldw	r2,-24(fp)
 4002d64:	10800017 	ldw	r2,0(r2)
 4002d68:	1000131e 	bne	r2,zero,4002db8 <quorem+0x204>
	{
	  bx = b->_x;
 4002d6c:	e0bff217 	ldw	r2,-56(fp)
 4002d70:	10800504 	addi	r2,r2,20
 4002d74:	e0bffb15 	stw	r2,-20(fp)
	  while (--bxe > bx && !*bxe)
 4002d78:	00000306 	br	4002d88 <quorem+0x1d4>
	    --n;
 4002d7c:	e0bfff17 	ldw	r2,-4(fp)
 4002d80:	10bfffc4 	addi	r2,r2,-1
 4002d84:	e0bfff15 	stw	r2,-4(fp)
	  while (--bxe > bx && !*bxe)
 4002d88:	e0bffa17 	ldw	r2,-24(fp)
 4002d8c:	10bfff04 	addi	r2,r2,-4
 4002d90:	e0bffa15 	stw	r2,-24(fp)
 4002d94:	e0bffa17 	ldw	r2,-24(fp)
 4002d98:	e0fffb17 	ldw	r3,-20(fp)
 4002d9c:	1880032e 	bgeu	r3,r2,4002dac <quorem+0x1f8>
 4002da0:	e0bffa17 	ldw	r2,-24(fp)
 4002da4:	10800017 	ldw	r2,0(r2)
 4002da8:	103ff426 	beq	r2,zero,4002d7c <quorem+0x1c8>
	  b->_wds = n;
 4002dac:	e0bff217 	ldw	r2,-56(fp)
 4002db0:	e0ffff17 	ldw	r3,-4(fp)
 4002db4:	10c00415 	stw	r3,16(r2)
	}
    }
  if (cmp (b, S) >= 0)
 4002db8:	e17ff117 	ldw	r5,-60(fp)
 4002dbc:	e13ff217 	ldw	r4,-56(fp)
 4002dc0:	400874c0 	call	400874c <__mcmp>
 4002dc4:	10005e16 	blt	r2,zero,4002f40 <quorem+0x38c>
    {
      q++;
 4002dc8:	e0bffc17 	ldw	r2,-16(fp)
 4002dcc:	10800044 	addi	r2,r2,1
 4002dd0:	e0bffc15 	stw	r2,-16(fp)
      borrow = 0;
 4002dd4:	e03ffe15 	stw	zero,-8(fp)
      carry = 0;
 4002dd8:	e03ffd15 	stw	zero,-12(fp)
      bx = b->_x;
 4002ddc:	e0bff217 	ldw	r2,-56(fp)
 4002de0:	10800504 	addi	r2,r2,20
 4002de4:	e0bffb15 	stw	r2,-20(fp)
      sx = S->_x;
 4002de8:	e0bff117 	ldw	r2,-60(fp)
 4002dec:	10800504 	addi	r2,r2,20
 4002df0:	e0bff915 	stw	r2,-28(fp)
      do
	{
#ifdef Pack_32
	  si = *sx++;
 4002df4:	e0bff917 	ldw	r2,-28(fp)
 4002df8:	10c00104 	addi	r3,r2,4
 4002dfc:	e0fff915 	stw	r3,-28(fp)
 4002e00:	10800017 	ldw	r2,0(r2)
 4002e04:	e0bff715 	stw	r2,-36(fp)
	  ys = (si & 0xffff) + carry;
 4002e08:	e0bff717 	ldw	r2,-36(fp)
 4002e0c:	10bfffcc 	andi	r2,r2,65535
 4002e10:	e0fffd17 	ldw	r3,-12(fp)
 4002e14:	1885883a 	add	r2,r3,r2
 4002e18:	e0bff615 	stw	r2,-40(fp)
	  zs = (si >> 16) + (ys >> 16);
 4002e1c:	e0bff717 	ldw	r2,-36(fp)
 4002e20:	1006d43a 	srli	r3,r2,16
 4002e24:	e0bff617 	ldw	r2,-40(fp)
 4002e28:	1004d43a 	srli	r2,r2,16
 4002e2c:	1885883a 	add	r2,r3,r2
 4002e30:	e0bff515 	stw	r2,-44(fp)
	  carry = zs >> 16;
 4002e34:	e0bff517 	ldw	r2,-44(fp)
 4002e38:	1004d43a 	srli	r2,r2,16
 4002e3c:	e0bffd15 	stw	r2,-12(fp)
	  y = (*bx & 0xffff) - (ys & 0xffff) + borrow;
 4002e40:	e0bffb17 	ldw	r2,-20(fp)
 4002e44:	10800017 	ldw	r2,0(r2)
 4002e48:	10ffffcc 	andi	r3,r2,65535
 4002e4c:	e0bff617 	ldw	r2,-40(fp)
 4002e50:	10bfffcc 	andi	r2,r2,65535
 4002e54:	1887c83a 	sub	r3,r3,r2
 4002e58:	e0bffe17 	ldw	r2,-8(fp)
 4002e5c:	1885883a 	add	r2,r3,r2
 4002e60:	e0bff415 	stw	r2,-48(fp)
	  borrow = y >> 16;
 4002e64:	e0bff417 	ldw	r2,-48(fp)
 4002e68:	1005d43a 	srai	r2,r2,16
 4002e6c:	e0bffe15 	stw	r2,-8(fp)
	  Sign_Extend (borrow, y);
	  z = (*bx >> 16) - (zs & 0xffff) + borrow;
 4002e70:	e0bffb17 	ldw	r2,-20(fp)
 4002e74:	10800017 	ldw	r2,0(r2)
 4002e78:	1006d43a 	srli	r3,r2,16
 4002e7c:	e0bff517 	ldw	r2,-44(fp)
 4002e80:	10bfffcc 	andi	r2,r2,65535
 4002e84:	1887c83a 	sub	r3,r3,r2
 4002e88:	e0bffe17 	ldw	r2,-8(fp)
 4002e8c:	1885883a 	add	r2,r3,r2
 4002e90:	e0bff315 	stw	r2,-52(fp)
	  borrow = z >> 16;
 4002e94:	e0bff317 	ldw	r2,-52(fp)
 4002e98:	1005d43a 	srai	r2,r2,16
 4002e9c:	e0bffe15 	stw	r2,-8(fp)
	  Sign_Extend (borrow, z);
	  Storeinc (bx, z, y);
 4002ea0:	e0bff317 	ldw	r2,-52(fp)
 4002ea4:	1006943a 	slli	r3,r2,16
 4002ea8:	e0bff417 	ldw	r2,-48(fp)
 4002eac:	10bfffcc 	andi	r2,r2,65535
 4002eb0:	1888b03a 	or	r4,r3,r2
 4002eb4:	e0bffb17 	ldw	r2,-20(fp)
 4002eb8:	10c00104 	addi	r3,r2,4
 4002ebc:	e0fffb15 	stw	r3,-20(fp)
 4002ec0:	2007883a 	mov	r3,r4
 4002ec4:	10c00015 	stw	r3,0(r2)
	  borrow = y >> 16;
	  Sign_Extend (borrow, y);
	  *bx++ = y & 0xffff;
#endif
	}
      while (sx <= sxe);
 4002ec8:	e0bff917 	ldw	r2,-28(fp)
 4002ecc:	e0fff817 	ldw	r3,-32(fp)
 4002ed0:	18bfc82e 	bgeu	r3,r2,4002df4 <quorem+0x240>
      bx = b->_x;
 4002ed4:	e0bff217 	ldw	r2,-56(fp)
 4002ed8:	10800504 	addi	r2,r2,20
 4002edc:	e0bffb15 	stw	r2,-20(fp)
      bxe = bx + n;
 4002ee0:	e0bfff17 	ldw	r2,-4(fp)
 4002ee4:	100490ba 	slli	r2,r2,2
 4002ee8:	e0fffb17 	ldw	r3,-20(fp)
 4002eec:	1885883a 	add	r2,r3,r2
 4002ef0:	e0bffa15 	stw	r2,-24(fp)
      if (!*bxe)
 4002ef4:	e0bffa17 	ldw	r2,-24(fp)
 4002ef8:	10800017 	ldw	r2,0(r2)
 4002efc:	1000101e 	bne	r2,zero,4002f40 <quorem+0x38c>
	{
	  while (--bxe > bx && !*bxe)
 4002f00:	00000306 	br	4002f10 <quorem+0x35c>
	    --n;
 4002f04:	e0bfff17 	ldw	r2,-4(fp)
 4002f08:	10bfffc4 	addi	r2,r2,-1
 4002f0c:	e0bfff15 	stw	r2,-4(fp)
	  while (--bxe > bx && !*bxe)
 4002f10:	e0bffa17 	ldw	r2,-24(fp)
 4002f14:	10bfff04 	addi	r2,r2,-4
 4002f18:	e0bffa15 	stw	r2,-24(fp)
 4002f1c:	e0bffa17 	ldw	r2,-24(fp)
 4002f20:	e0fffb17 	ldw	r3,-20(fp)
 4002f24:	1880032e 	bgeu	r3,r2,4002f34 <quorem+0x380>
 4002f28:	e0bffa17 	ldw	r2,-24(fp)
 4002f2c:	10800017 	ldw	r2,0(r2)
 4002f30:	103ff426 	beq	r2,zero,4002f04 <quorem+0x350>
	  b->_wds = n;
 4002f34:	e0bff217 	ldw	r2,-56(fp)
 4002f38:	e0ffff17 	ldw	r3,-4(fp)
 4002f3c:	10c00415 	stw	r3,16(r2)
	}
    }
  return q;
 4002f40:	e0bffc17 	ldw	r2,-16(fp)
}
 4002f44:	e037883a 	mov	sp,fp
 4002f48:	dfc00117 	ldw	ra,4(sp)
 4002f4c:	df000017 	ldw	fp,0(sp)
 4002f50:	dec00204 	addi	sp,sp,8
 4002f54:	f800283a 	ret

04002f58 <_dtoa_r>:
	int mode,
	int ndigits,
	int *decpt,
	int *sign,
	char **rve)
{
 4002f58:	deffca04 	addi	sp,sp,-216
 4002f5c:	dfc03515 	stw	ra,212(sp)
 4002f60:	df003415 	stw	fp,208(sp)
 4002f64:	dcc03315 	stw	r19,204(sp)
 4002f68:	dc803215 	stw	r18,200(sp)
 4002f6c:	dc403115 	stw	r17,196(sp)
 4002f70:	dc003015 	stw	r16,192(sp)
 4002f74:	df003404 	addi	fp,sp,208
 4002f78:	e13fd015 	stw	r4,-192(fp)
 4002f7c:	e17fce15 	stw	r5,-200(fp)
 4002f80:	e1bfcf15 	stw	r6,-196(fp)
 4002f84:	e1ffcd15 	stw	r7,-204(fp)
  __Long L;
#ifndef Sudden_Underflow
  int denorm;
  __ULong x;
#endif
  _Bigint *b, *b1, *delta, *mlo = NULL, *mhi, *S;
 4002f88:	e03fe815 	stw	zero,-96(fp)
  double ds;
  char *s, *s0;

  d.d = _d;
 4002f8c:	e0bfce17 	ldw	r2,-200(fp)
 4002f90:	e0bfd515 	stw	r2,-172(fp)
 4002f94:	e0bfcf17 	ldw	r2,-196(fp)
 4002f98:	e0bfd615 	stw	r2,-168(fp)

  _REENT_CHECK_MP(ptr);
  if (_REENT_MP_RESULT(ptr))
 4002f9c:	e0bfd017 	ldw	r2,-192(fp)
 4002fa0:	10801017 	ldw	r2,64(r2)
 4002fa4:	10001326 	beq	r2,zero,4002ff4 <_dtoa_r+0x9c>
    {
      _REENT_MP_RESULT(ptr)->_k = _REENT_MP_RESULT_K(ptr);
 4002fa8:	e0bfd017 	ldw	r2,-192(fp)
 4002fac:	10801017 	ldw	r2,64(r2)
 4002fb0:	e0ffd017 	ldw	r3,-192(fp)
 4002fb4:	18c01117 	ldw	r3,68(r3)
 4002fb8:	10c00115 	stw	r3,4(r2)
      _REENT_MP_RESULT(ptr)->_maxwds = 1 << _REENT_MP_RESULT_K(ptr);
 4002fbc:	e0bfd017 	ldw	r2,-192(fp)
 4002fc0:	10c01117 	ldw	r3,68(r2)
 4002fc4:	e0bfd017 	ldw	r2,-192(fp)
 4002fc8:	10801017 	ldw	r2,64(r2)
 4002fcc:	01000044 	movi	r4,1
 4002fd0:	20c6983a 	sll	r3,r4,r3
 4002fd4:	10c00215 	stw	r3,8(r2)
      Bfree (ptr, _REENT_MP_RESULT(ptr));
 4002fd8:	e0bfd017 	ldw	r2,-192(fp)
 4002fdc:	10801017 	ldw	r2,64(r2)
 4002fe0:	100b883a 	mov	r5,r2
 4002fe4:	e13fd017 	ldw	r4,-192(fp)
 4002fe8:	4007a040 	call	4007a04 <_Bfree>
      _REENT_MP_RESULT(ptr) = 0;
 4002fec:	e0bfd017 	ldw	r2,-192(fp)
 4002ff0:	10001015 	stw	zero,64(r2)
    }

  if (word0 (d) & Sign_bit)
 4002ff4:	e0bfd617 	ldw	r2,-168(fp)
 4002ff8:	1000090e 	bge	r2,zero,4003020 <_dtoa_r+0xc8>
    {
      /* set sign for everything, including 0's and NaNs */
      *sign = 1;
 4002ffc:	e0800417 	ldw	r2,16(fp)
 4003000:	00c00044 	movi	r3,1
 4003004:	10c00015 	stw	r3,0(r2)
      word0 (d) &= ~Sign_bit;	/* clear sign bit */
 4003008:	e0ffd617 	ldw	r3,-168(fp)
 400300c:	00a00034 	movhi	r2,32768
 4003010:	10bfffc4 	addi	r2,r2,-1
 4003014:	1884703a 	and	r2,r3,r2
 4003018:	e0bfd615 	stw	r2,-168(fp)
 400301c:	00000206 	br	4003028 <_dtoa_r+0xd0>
    }
  else
    *sign = 0;
 4003020:	e0800417 	ldw	r2,16(fp)
 4003024:	10000015 	stw	zero,0(r2)

#if defined(IEEE_Arith) + defined(VAX)
#ifdef IEEE_Arith
  if ((word0 (d) & Exp_mask) == Exp_mask)
 4003028:	e0bfd617 	ldw	r2,-168(fp)
 400302c:	10dffc2c 	andhi	r3,r2,32752
 4003030:	009ffc34 	movhi	r2,32752
 4003034:	1880221e 	bne	r3,r2,40030c0 <_dtoa_r+0x168>
#else
  if (word0 (d) == 0x8000)
#endif
    {
      /* Infinity or NaN */
      *decpt = 9999;
 4003038:	e0800317 	ldw	r2,12(fp)
 400303c:	00c9c3c4 	movi	r3,9999
 4003040:	10c00015 	stw	r3,0(r2)
      s =
#ifdef IEEE_Arith
	!word1 (d) && !(word0 (d) & 0xfffff) ? "Infinity" :
 4003044:	e0bfd517 	ldw	r2,-172(fp)
 4003048:	1000081e 	bne	r2,zero,400306c <_dtoa_r+0x114>
 400304c:	e0ffd617 	ldw	r3,-168(fp)
 4003050:	00800434 	movhi	r2,16
 4003054:	10bfffc4 	addi	r2,r2,-1
 4003058:	1884703a 	and	r2,r3,r2
 400305c:	1000031e 	bne	r2,zero,400306c <_dtoa_r+0x114>
 4003060:	00810074 	movhi	r2,1025
 4003064:	108dc104 	addi	r2,r2,14084
 4003068:	00000206 	br	4003074 <_dtoa_r+0x11c>
 400306c:	00810074 	movhi	r2,1025
 4003070:	108dc404 	addi	r2,r2,14096
      s =
 4003074:	e0bfe315 	stw	r2,-116(fp)
#endif
	"NaN";
      if (rve)
 4003078:	e0800517 	ldw	r2,20(fp)
 400307c:	10000e26 	beq	r2,zero,40030b8 <_dtoa_r+0x160>
	*rve =
#ifdef IEEE_Arith
	  s[3] ? s + 8 :
 4003080:	e0bfe317 	ldw	r2,-116(fp)
 4003084:	108000c4 	addi	r2,r2,3
 4003088:	10800003 	ldbu	r2,0(r2)
 400308c:	10803fcc 	andi	r2,r2,255
 4003090:	1080201c 	xori	r2,r2,128
 4003094:	10bfe004 	addi	r2,r2,-128
 4003098:	10000326 	beq	r2,zero,40030a8 <_dtoa_r+0x150>
 400309c:	e0bfe317 	ldw	r2,-116(fp)
 40030a0:	10800204 	addi	r2,r2,8
 40030a4:	00000206 	br	40030b0 <_dtoa_r+0x158>
 40030a8:	e0bfe317 	ldw	r2,-116(fp)
 40030ac:	108000c4 	addi	r2,r2,3
	*rve =
 40030b0:	e0c00517 	ldw	r3,20(fp)
 40030b4:	18800015 	stw	r2,0(r3)
#endif
	  s + 3;
      return s;
 40030b8:	e0bfe317 	ldw	r2,-116(fp)
 40030bc:	0006a806 	br	4004b60 <_dtoa_r+0x1c08>
    }
#endif
#ifdef IBM
  d.d += 0;			/* normalize */
#endif
  if (!d.d)
 40030c0:	e0bfd517 	ldw	r2,-172(fp)
 40030c4:	e0ffd617 	ldw	r3,-168(fp)
 40030c8:	000d883a 	mov	r6,zero
 40030cc:	000f883a 	mov	r7,zero
 40030d0:	1009883a 	mov	r4,r2
 40030d4:	180b883a 	mov	r5,r3
 40030d8:	400f36c0 	call	400f36c <__eqdf2>
 40030dc:	10000e1e 	bne	r2,zero,4003118 <_dtoa_r+0x1c0>
    {
      *decpt = 1;
 40030e0:	e0800317 	ldw	r2,12(fp)
 40030e4:	00c00044 	movi	r3,1
 40030e8:	10c00015 	stw	r3,0(r2)
      s = "0";
 40030ec:	00810074 	movhi	r2,1025
 40030f0:	108dc504 	addi	r2,r2,14100
 40030f4:	e0bfe315 	stw	r2,-116(fp)
      if (rve)
 40030f8:	e0800517 	ldw	r2,20(fp)
 40030fc:	10000426 	beq	r2,zero,4003110 <_dtoa_r+0x1b8>
	*rve = s + 1;
 4003100:	e0bfe317 	ldw	r2,-116(fp)
 4003104:	10c00044 	addi	r3,r2,1
 4003108:	e0800517 	ldw	r2,20(fp)
 400310c:	10c00015 	stw	r3,0(r2)
      return s;
 4003110:	e0bfe317 	ldw	r2,-116(fp)
 4003114:	00069206 	br	4004b60 <_dtoa_r+0x1c08>
    }

  b = d2b (ptr, d.d, &be, &bbits);
 4003118:	e0bfd517 	ldw	r2,-172(fp)
 400311c:	e0ffd617 	ldw	r3,-168(fp)
 4003120:	e17fd704 	addi	r5,fp,-164
 4003124:	e13fd804 	addi	r4,fp,-160
 4003128:	d9000015 	stw	r4,0(sp)
 400312c:	280f883a 	mov	r7,r5
 4003130:	100b883a 	mov	r5,r2
 4003134:	180d883a 	mov	r6,r3
 4003138:	e13fd017 	ldw	r4,-192(fp)
 400313c:	4008e040 	call	4008e04 <__d2b>
 4003140:	e0bfe915 	stw	r2,-92(fp)
#ifdef Sudden_Underflow
  i = (int) (word0 (d) >> Exp_shift1 & (Exp_mask >> Exp_shift1));
#else
  if ((i = (int) (word0 (d) >> Exp_shift1 & (Exp_mask >> Exp_shift1))) != 0)
 4003144:	e0bfd617 	ldw	r2,-168(fp)
 4003148:	1004d53a 	srli	r2,r2,20
 400314c:	1081ffcc 	andi	r2,r2,2047
 4003150:	e0bff815 	stw	r2,-32(fp)
 4003154:	e0bff817 	ldw	r2,-32(fp)
 4003158:	10001126 	beq	r2,zero,40031a0 <_dtoa_r+0x248>
    {
#endif
      d2.d = d.d;
 400315c:	e0bfd517 	ldw	r2,-172(fp)
 4003160:	e0ffd617 	ldw	r3,-168(fp)
 4003164:	e0bfd315 	stw	r2,-180(fp)
 4003168:	e0ffd415 	stw	r3,-176(fp)
      word0 (d2) &= Frac_mask1;
 400316c:	e0ffd417 	ldw	r3,-176(fp)
 4003170:	00800434 	movhi	r2,16
 4003174:	10bfffc4 	addi	r2,r2,-1
 4003178:	1884703a 	and	r2,r3,r2
 400317c:	e0bfd415 	stw	r2,-176(fp)
      word0 (d2) |= Exp_11;
 4003180:	e0bfd417 	ldw	r2,-176(fp)
 4003184:	108ffc34 	orhi	r2,r2,16368
 4003188:	e0bfd415 	stw	r2,-176(fp)
		 * Hence we adjust the constant term to 0.1760912590558.
		 * (We could get a more accurate k by invoking log10,
		 *  but this is probably not worthwhile.)
		 */

      i -= Bias;
 400318c:	e0bff817 	ldw	r2,-32(fp)
 4003190:	10bf0044 	addi	r2,r2,-1023
 4003194:	e0bff815 	stw	r2,-32(fp)
#ifdef IBM
      i <<= 2;
      i += j;
#endif
#ifndef Sudden_Underflow
      denorm = 0;
 4003198:	e03fea15 	stw	zero,-88(fp)
 400319c:	00002806 	br	4003240 <_dtoa_r+0x2e8>
    }
  else
    {
      /* d is denormalized */

      i = bbits + be + (Bias + (P - 1) - 1);
 40031a0:	e0ffd817 	ldw	r3,-160(fp)
 40031a4:	e0bfd717 	ldw	r2,-164(fp)
 40031a8:	1885883a 	add	r2,r3,r2
 40031ac:	10810c84 	addi	r2,r2,1074
 40031b0:	e0bff815 	stw	r2,-32(fp)
#if defined (_DOUBLE_IS_32BITS)
      x = word0 (d) << (32 - i);
#else
      x = (i > 32) ? (word0 (d) << (64 - i)) | (word1 (d) >> (i - 32))
       : (word1 (d) << (32 - i));
 40031b4:	e0bff817 	ldw	r2,-32(fp)
 40031b8:	10800850 	cmplti	r2,r2,33
 40031bc:	10000b1e 	bne	r2,zero,40031ec <_dtoa_r+0x294>
      x = (i > 32) ? (word0 (d) << (64 - i)) | (word1 (d) >> (i - 32))
 40031c0:	e0ffd617 	ldw	r3,-168(fp)
 40031c4:	01001004 	movi	r4,64
 40031c8:	e0bff817 	ldw	r2,-32(fp)
 40031cc:	2085c83a 	sub	r2,r4,r2
 40031d0:	1886983a 	sll	r3,r3,r2
 40031d4:	e13fd517 	ldw	r4,-172(fp)
 40031d8:	e0bff817 	ldw	r2,-32(fp)
 40031dc:	10bff804 	addi	r2,r2,-32
 40031e0:	2084d83a 	srl	r2,r4,r2
       : (word1 (d) << (32 - i));
 40031e4:	1884b03a 	or	r2,r3,r2
 40031e8:	00000506 	br	4003200 <_dtoa_r+0x2a8>
 40031ec:	e0ffd517 	ldw	r3,-172(fp)
 40031f0:	01000804 	movi	r4,32
 40031f4:	e0bff817 	ldw	r2,-32(fp)
 40031f8:	2085c83a 	sub	r2,r4,r2
 40031fc:	1884983a 	sll	r2,r3,r2
      x = (i > 32) ? (word0 (d) << (64 - i)) | (word1 (d) >> (i - 32))
 4003200:	e0bfe215 	stw	r2,-120(fp)
#endif
      d2.d = x;
 4003204:	e13fe217 	ldw	r4,-120(fp)
 4003208:	40107000 	call	4010700 <__floatunsidf>
 400320c:	1009883a 	mov	r4,r2
 4003210:	180b883a 	mov	r5,r3
 4003214:	e13fd315 	stw	r4,-180(fp)
 4003218:	e17fd415 	stw	r5,-176(fp)
      word0 (d2) -= 31 * Exp_msk1;	/* adjust exponent */
 400321c:	e0ffd417 	ldw	r3,-176(fp)
 4003220:	00bf8434 	movhi	r2,65040
 4003224:	1885883a 	add	r2,r3,r2
 4003228:	e0bfd415 	stw	r2,-176(fp)
      i -= (Bias + (P - 1) - 1) + 1;
 400322c:	e0bff817 	ldw	r2,-32(fp)
 4003230:	10bef344 	addi	r2,r2,-1075
 4003234:	e0bff815 	stw	r2,-32(fp)
      denorm = 1;
 4003238:	00800044 	movi	r2,1
 400323c:	e0bfea15 	stw	r2,-88(fp)
    }
#endif
#if defined (_DOUBLE_IS_32BITS)
  ds = (d2.d - 1.5) * 0.289529651 + 0.176091269 + i * 0.30103001;
#else
  ds = (d2.d - 1.5) * 0.289529654602168 + 0.1760912590558 + i * 0.301029995663981;
 4003240:	e0bfd317 	ldw	r2,-180(fp)
 4003244:	e0ffd417 	ldw	r3,-176(fp)
 4003248:	000d883a 	mov	r6,zero
 400324c:	01cffe34 	movhi	r7,16376
 4003250:	1009883a 	mov	r4,r2
 4003254:	180b883a 	mov	r5,r3
 4003258:	400fc3c0 	call	400fc3c <__subdf3>
 400325c:	1009883a 	mov	r4,r2
 4003260:	180b883a 	mov	r5,r3
 4003264:	2005883a 	mov	r2,r4
 4003268:	2807883a 	mov	r3,r5
 400326c:	0198dbf4 	movhi	r6,25455
 4003270:	3190d844 	addi	r6,r6,17249
 4003274:	01cff4f4 	movhi	r7,16339
 4003278:	39e1e9c4 	addi	r7,r7,-30809
 400327c:	1009883a 	mov	r4,r2
 4003280:	180b883a 	mov	r5,r3
 4003284:	400f5cc0 	call	400f5cc <__muldf3>
 4003288:	1009883a 	mov	r4,r2
 400328c:	180b883a 	mov	r5,r3
 4003290:	2005883a 	mov	r2,r4
 4003294:	2807883a 	mov	r3,r5
 4003298:	01a2d874 	movhi	r6,35681
 400329c:	31b22cc4 	addi	r6,r6,-14157
 40032a0:	01cff1f4 	movhi	r7,16327
 40032a4:	39e28a04 	addi	r7,r7,-30168
 40032a8:	1009883a 	mov	r4,r2
 40032ac:	180b883a 	mov	r5,r3
 40032b0:	400e1940 	call	400e194 <__adddf3>
 40032b4:	1009883a 	mov	r4,r2
 40032b8:	180b883a 	mov	r5,r3
 40032bc:	2025883a 	mov	r18,r4
 40032c0:	2827883a 	mov	r19,r5
 40032c4:	e13ff817 	ldw	r4,-32(fp)
 40032c8:	40106440 	call	4010644 <__floatsidf>
 40032cc:	1011883a 	mov	r8,r2
 40032d0:	1813883a 	mov	r9,r3
 40032d4:	019427f4 	movhi	r6,20639
 40032d8:	319e7ec4 	addi	r6,r6,31227
 40032dc:	01cff4f4 	movhi	r7,16339
 40032e0:	39d104c4 	addi	r7,r7,17427
 40032e4:	4009883a 	mov	r4,r8
 40032e8:	480b883a 	mov	r5,r9
 40032ec:	400f5cc0 	call	400f5cc <__muldf3>
 40032f0:	1009883a 	mov	r4,r2
 40032f4:	180b883a 	mov	r5,r3
 40032f8:	2005883a 	mov	r2,r4
 40032fc:	2807883a 	mov	r3,r5
 4003300:	100d883a 	mov	r6,r2
 4003304:	180f883a 	mov	r7,r3
 4003308:	9009883a 	mov	r4,r18
 400330c:	980b883a 	mov	r5,r19
 4003310:	400e1940 	call	400e194 <__adddf3>
 4003314:	1009883a 	mov	r4,r2
 4003318:	180b883a 	mov	r5,r3
 400331c:	e13fe415 	stw	r4,-112(fp)
 4003320:	e17fe515 	stw	r5,-108(fp)
#endif
  k = (int) ds;
 4003324:	e13fe417 	ldw	r4,-112(fp)
 4003328:	e17fe517 	ldw	r5,-108(fp)
 400332c:	40105c40 	call	40105c4 <__fixdfsi>
 4003330:	e0bff315 	stw	r2,-52(fp)
  if (ds < 0. && ds != k)
 4003334:	000d883a 	mov	r6,zero
 4003338:	000f883a 	mov	r7,zero
 400333c:	e13fe417 	ldw	r4,-112(fp)
 4003340:	e17fe517 	ldw	r5,-108(fp)
 4003344:	400f4dc0 	call	400f4dc <__ledf2>
 4003348:	10000d0e 	bge	r2,zero,4003380 <_dtoa_r+0x428>
 400334c:	e13ff317 	ldw	r4,-52(fp)
 4003350:	40106440 	call	4010644 <__floatsidf>
 4003354:	1009883a 	mov	r4,r2
 4003358:	180b883a 	mov	r5,r3
 400335c:	200d883a 	mov	r6,r4
 4003360:	280f883a 	mov	r7,r5
 4003364:	e13fe417 	ldw	r4,-112(fp)
 4003368:	e17fe517 	ldw	r5,-108(fp)
 400336c:	400f36c0 	call	400f36c <__eqdf2>
 4003370:	10000326 	beq	r2,zero,4003380 <_dtoa_r+0x428>
    k--;			/* want k = floor(ds) */
 4003374:	e0bff317 	ldw	r2,-52(fp)
 4003378:	10bfffc4 	addi	r2,r2,-1
 400337c:	e0bff315 	stw	r2,-52(fp)
  k_check = 1;
 4003380:	00800044 	movi	r2,1
 4003384:	e0bff215 	stw	r2,-56(fp)
  if (k >= 0 && k <= Ten_pmax)
 4003388:	e0bff317 	ldw	r2,-52(fp)
 400338c:	10001716 	blt	r2,zero,40033ec <_dtoa_r+0x494>
 4003390:	e0bff317 	ldw	r2,-52(fp)
 4003394:	108005c8 	cmpgei	r2,r2,23
 4003398:	1000141e 	bne	r2,zero,40033ec <_dtoa_r+0x494>
    {
      if (d.d < tens[k])
 400339c:	e0bfd517 	ldw	r2,-172(fp)
 40033a0:	e0ffd617 	ldw	r3,-168(fp)
 40033a4:	e13ff317 	ldw	r4,-52(fp)
 40033a8:	200e90fa 	slli	r7,r4,3
 40033ac:	01810074 	movhi	r6,1025
 40033b0:	398d883a 	add	r6,r7,r6
 40033b4:	310e0717 	ldw	r4,14364(r6)
 40033b8:	01810074 	movhi	r6,1025
 40033bc:	398d883a 	add	r6,r7,r6
 40033c0:	314e0817 	ldw	r5,14368(r6)
 40033c4:	200d883a 	mov	r6,r4
 40033c8:	280f883a 	mov	r7,r5
 40033cc:	1009883a 	mov	r4,r2
 40033d0:	180b883a 	mov	r5,r3
 40033d4:	400f4dc0 	call	400f4dc <__ledf2>
 40033d8:	1000030e 	bge	r2,zero,40033e8 <_dtoa_r+0x490>
	k--;
 40033dc:	e0bff317 	ldw	r2,-52(fp)
 40033e0:	10bfffc4 	addi	r2,r2,-1
 40033e4:	e0bff315 	stw	r2,-52(fp)
      k_check = 0;
 40033e8:	e03ff215 	stw	zero,-56(fp)
    }
  j = bbits - i - 1;
 40033ec:	e0ffd817 	ldw	r3,-160(fp)
 40033f0:	e0bff817 	ldw	r2,-32(fp)
 40033f4:	1885c83a 	sub	r2,r3,r2
 40033f8:	10bfffc4 	addi	r2,r2,-1
 40033fc:	e0bff415 	stw	r2,-48(fp)
  if (j >= 0)
 4003400:	e0bff417 	ldw	r2,-48(fp)
 4003404:	10000416 	blt	r2,zero,4003418 <_dtoa_r+0x4c0>
    {
      b2 = 0;
 4003408:	e03ffb15 	stw	zero,-20(fp)
      s2 = j;
 400340c:	e0bff417 	ldw	r2,-48(fp)
 4003410:	e0bfee15 	stw	r2,-72(fp)
 4003414:	00000406 	br	4003428 <_dtoa_r+0x4d0>
    }
  else
    {
      b2 = -j;
 4003418:	e0bff417 	ldw	r2,-48(fp)
 400341c:	0085c83a 	sub	r2,zero,r2
 4003420:	e0bffb15 	stw	r2,-20(fp)
      s2 = 0;
 4003424:	e03fee15 	stw	zero,-72(fp)
    }
  if (k >= 0)
 4003428:	e0bff317 	ldw	r2,-52(fp)
 400342c:	10000816 	blt	r2,zero,4003450 <_dtoa_r+0x4f8>
    {
      b5 = 0;
 4003430:	e03ffa15 	stw	zero,-24(fp)
      s5 = k;
 4003434:	e0bff317 	ldw	r2,-52(fp)
 4003438:	e0bfed15 	stw	r2,-76(fp)
      s2 += k;
 400343c:	e0ffee17 	ldw	r3,-72(fp)
 4003440:	e0bff317 	ldw	r2,-52(fp)
 4003444:	1885883a 	add	r2,r3,r2
 4003448:	e0bfee15 	stw	r2,-72(fp)
 400344c:	00000806 	br	4003470 <_dtoa_r+0x518>
    }
  else
    {
      b2 -= k;
 4003450:	e0fffb17 	ldw	r3,-20(fp)
 4003454:	e0bff317 	ldw	r2,-52(fp)
 4003458:	1885c83a 	sub	r2,r3,r2
 400345c:	e0bffb15 	stw	r2,-20(fp)
      b5 = -k;
 4003460:	e0bff317 	ldw	r2,-52(fp)
 4003464:	0085c83a 	sub	r2,zero,r2
 4003468:	e0bffa15 	stw	r2,-24(fp)
      s5 = 0;
 400346c:	e03fed15 	stw	zero,-76(fp)
    }
  if (mode < 0 || mode > 9)
 4003470:	e0bfcd17 	ldw	r2,-204(fp)
 4003474:	10000316 	blt	r2,zero,4003484 <_dtoa_r+0x52c>
 4003478:	e0bfcd17 	ldw	r2,-204(fp)
 400347c:	10800290 	cmplti	r2,r2,10
 4003480:	1000011e 	bne	r2,zero,4003488 <_dtoa_r+0x530>
    mode = 0;
 4003484:	e03fcd15 	stw	zero,-204(fp)
  try_quick = 1;
 4003488:	00800044 	movi	r2,1
 400348c:	e0bfeb15 	stw	r2,-84(fp)
  if (mode > 5)
 4003490:	e0bfcd17 	ldw	r2,-204(fp)
 4003494:	10800190 	cmplti	r2,r2,6
 4003498:	1000041e 	bne	r2,zero,40034ac <_dtoa_r+0x554>
    {
      mode -= 4;
 400349c:	e0bfcd17 	ldw	r2,-204(fp)
 40034a0:	10bfff04 	addi	r2,r2,-4
 40034a4:	e0bfcd15 	stw	r2,-204(fp)
      try_quick = 0;
 40034a8:	e03feb15 	stw	zero,-84(fp)
    }
  leftright = 1;
 40034ac:	00800044 	movi	r2,1
 40034b0:	e0bff115 	stw	r2,-60(fp)
  ilim = ilim1 = -1;
 40034b4:	00bfffc4 	movi	r2,-1
 40034b8:	e0bff515 	stw	r2,-44(fp)
 40034bc:	e0bff517 	ldw	r2,-44(fp)
 40034c0:	e0bff615 	stw	r2,-40(fp)
 40034c4:	e0bfcd17 	ldw	r2,-204(fp)
 40034c8:	108001a8 	cmpgeui	r2,r2,6
 40034cc:	10002b1e 	bne	r2,zero,400357c <_dtoa_r+0x624>
 40034d0:	e0bfcd17 	ldw	r2,-204(fp)
 40034d4:	100690ba 	slli	r3,r2,2
 40034d8:	00810034 	movhi	r2,1024
 40034dc:	1885883a 	add	r2,r3,r2
 40034e0:	108d3a17 	ldw	r2,13544(r2)
 40034e4:	1000683a 	jmp	r2
 40034e8:	04003500 	call	400350 <__alt_mem_dram_controller-0x3bffcb0>
 40034ec:	04003500 	call	400350 <__alt_mem_dram_controller-0x3bffcb0>
 40034f0:	04003510 	cmplti	r16,zero,212
 40034f4:	04003540 	call	400354 <__alt_mem_dram_controller-0x3bffcac>
 40034f8:	04003514 	movui	r16,212
 40034fc:	04003544 	movi	r16,213
  switch (mode)
    {
    case 0:
    case 1:
      i = 18;
 4003500:	00800484 	movi	r2,18
 4003504:	e0bff815 	stw	r2,-32(fp)
      ndigits = 0;
 4003508:	e0000215 	stw	zero,8(fp)
      break;
 400350c:	00001b06 	br	400357c <_dtoa_r+0x624>
    case 2:
      leftright = 0;
 4003510:	e03ff115 	stw	zero,-60(fp)
      /* no break */
    case 4:
      if (ndigits <= 0)
 4003514:	e0800217 	ldw	r2,8(fp)
 4003518:	00800216 	blt	zero,r2,4003524 <_dtoa_r+0x5cc>
	ndigits = 1;
 400351c:	00800044 	movi	r2,1
 4003520:	e0800215 	stw	r2,8(fp)
      ilim = ilim1 = i = ndigits;
 4003524:	e0800217 	ldw	r2,8(fp)
 4003528:	e0bff815 	stw	r2,-32(fp)
 400352c:	e0bff817 	ldw	r2,-32(fp)
 4003530:	e0bff515 	stw	r2,-44(fp)
 4003534:	e0bff517 	ldw	r2,-44(fp)
 4003538:	e0bff615 	stw	r2,-40(fp)
      break;
 400353c:	00000f06 	br	400357c <_dtoa_r+0x624>
    case 3:
      leftright = 0;
 4003540:	e03ff115 	stw	zero,-60(fp)
      /* no break */
    case 5:
      i = ndigits + k + 1;
 4003544:	e0c00217 	ldw	r3,8(fp)
 4003548:	e0bff317 	ldw	r2,-52(fp)
 400354c:	1885883a 	add	r2,r3,r2
 4003550:	10800044 	addi	r2,r2,1
 4003554:	e0bff815 	stw	r2,-32(fp)
      ilim = i;
 4003558:	e0bff817 	ldw	r2,-32(fp)
 400355c:	e0bff615 	stw	r2,-40(fp)
      ilim1 = i - 1;
 4003560:	e0bff817 	ldw	r2,-32(fp)
 4003564:	10bfffc4 	addi	r2,r2,-1
 4003568:	e0bff515 	stw	r2,-44(fp)
      if (i <= 0)
 400356c:	e0bff817 	ldw	r2,-32(fp)
 4003570:	00800216 	blt	zero,r2,400357c <_dtoa_r+0x624>
	i = 1;
 4003574:	00800044 	movi	r2,1
 4003578:	e0bff815 	stw	r2,-32(fp)
    }
  j = sizeof (__ULong);
 400357c:	00800104 	movi	r2,4
 4003580:	e0bff415 	stw	r2,-48(fp)
  for (_REENT_MP_RESULT_K(ptr) = 0; sizeof (_Bigint) - sizeof (__ULong) + j <= i;
 4003584:	e0bfd017 	ldw	r2,-192(fp)
 4003588:	10001115 	stw	zero,68(r2)
 400358c:	00000806 	br	40035b0 <_dtoa_r+0x658>
       j <<= 1)
    _REENT_MP_RESULT_K(ptr)++;
 4003590:	e0bfd017 	ldw	r2,-192(fp)
 4003594:	10801117 	ldw	r2,68(r2)
 4003598:	10c00044 	addi	r3,r2,1
 400359c:	e0bfd017 	ldw	r2,-192(fp)
 40035a0:	10c01115 	stw	r3,68(r2)
       j <<= 1)
 40035a4:	e0bff417 	ldw	r2,-48(fp)
 40035a8:	1085883a 	add	r2,r2,r2
 40035ac:	e0bff415 	stw	r2,-48(fp)
  for (_REENT_MP_RESULT_K(ptr) = 0; sizeof (_Bigint) - sizeof (__ULong) + j <= i;
 40035b0:	e0bff417 	ldw	r2,-48(fp)
 40035b4:	10800504 	addi	r2,r2,20
 40035b8:	e0fff817 	ldw	r3,-32(fp)
 40035bc:	18bff42e 	bgeu	r3,r2,4003590 <_dtoa_r+0x638>
  _REENT_MP_RESULT(ptr) = eBalloc (ptr, _REENT_MP_RESULT_K(ptr));
 40035c0:	e0bfd017 	ldw	r2,-192(fp)
 40035c4:	10801117 	ldw	r2,68(r2)
 40035c8:	100b883a 	mov	r5,r2
 40035cc:	e13fd017 	ldw	r4,-192(fp)
 40035d0:	40078e00 	call	40078e0 <_Balloc>
 40035d4:	e0bfe115 	stw	r2,-124(fp)
 40035d8:	e0bfe117 	ldw	r2,-124(fp)
 40035dc:	1000071e 	bne	r2,zero,40035fc <_dtoa_r+0x6a4>
 40035e0:	01c10074 	movhi	r7,1025
 40035e4:	39cdc604 	addi	r7,r7,14104
 40035e8:	000d883a 	mov	r6,zero
 40035ec:	01406a84 	movi	r5,426
 40035f0:	01010074 	movhi	r4,1025
 40035f4:	210dcb04 	addi	r4,r4,14124
 40035f8:	400b01c0 	call	400b01c <__assert_func>
 40035fc:	e0ffe117 	ldw	r3,-124(fp)
 4003600:	e0bfd017 	ldw	r2,-192(fp)
 4003604:	10c01015 	stw	r3,64(r2)
  s = s0 = (char *) _REENT_MP_RESULT(ptr);
 4003608:	e0bfd017 	ldw	r2,-192(fp)
 400360c:	10801017 	ldw	r2,64(r2)
 4003610:	e0bfe015 	stw	r2,-128(fp)
 4003614:	e0bfe017 	ldw	r2,-128(fp)
 4003618:	e0bfe315 	stw	r2,-116(fp)

  if (ilim >= 0 && ilim <= Quick_max && try_quick)
 400361c:	e0bff617 	ldw	r2,-40(fp)
 4003620:	10022016 	blt	r2,zero,4003ea4 <_dtoa_r+0xf4c>
 4003624:	e0bff617 	ldw	r2,-40(fp)
 4003628:	108003c8 	cmpgei	r2,r2,15
 400362c:	10021d1e 	bne	r2,zero,4003ea4 <_dtoa_r+0xf4c>
 4003630:	e0bfeb17 	ldw	r2,-84(fp)
 4003634:	10021b26 	beq	r2,zero,4003ea4 <_dtoa_r+0xf4c>
    {
      /* Try to get by with floating-point arithmetic. */

      i = 0;
 4003638:	e03ff815 	stw	zero,-32(fp)
      d2.d = d.d;
 400363c:	e0bfd517 	ldw	r2,-172(fp)
 4003640:	e0ffd617 	ldw	r3,-168(fp)
 4003644:	e0bfd315 	stw	r2,-180(fp)
 4003648:	e0ffd415 	stw	r3,-176(fp)
      k0 = k;
 400364c:	e0bff317 	ldw	r2,-52(fp)
 4003650:	e0bfdf15 	stw	r2,-132(fp)
      ilim0 = ilim;
 4003654:	e0bff617 	ldw	r2,-40(fp)
 4003658:	e0bfde15 	stw	r2,-136(fp)
      ieps = 2;			/* conservative */
 400365c:	00800084 	movi	r2,2
 4003660:	e0bff715 	stw	r2,-36(fp)
      if (k > 0)
 4003664:	e0bff317 	ldw	r2,-52(fp)
 4003668:	0080560e 	bge	zero,r2,40037c4 <_dtoa_r+0x86c>
	{
	  ds = tens[k & 0xf];
 400366c:	e0bff317 	ldw	r2,-52(fp)
 4003670:	108003cc 	andi	r2,r2,15
 4003674:	100690fa 	slli	r3,r2,3
 4003678:	00810074 	movhi	r2,1025
 400367c:	1885883a 	add	r2,r3,r2
 4003680:	108e0717 	ldw	r2,14364(r2)
 4003684:	e0bfe415 	stw	r2,-112(fp)
 4003688:	00810074 	movhi	r2,1025
 400368c:	1885883a 	add	r2,r3,r2
 4003690:	108e0817 	ldw	r2,14368(r2)
 4003694:	e0bfe515 	stw	r2,-108(fp)
	  j = k >> 4;
 4003698:	e0bff317 	ldw	r2,-52(fp)
 400369c:	1005d13a 	srai	r2,r2,4
 40036a0:	e0bff415 	stw	r2,-48(fp)
	  if (j & Bletch)
 40036a4:	e0bff417 	ldw	r2,-48(fp)
 40036a8:	1080040c 	andi	r2,r2,16
 40036ac:	10003526 	beq	r2,zero,4003784 <_dtoa_r+0x82c>
	    {
	      /* prevent overflows */
	      j &= Bletch - 1;
 40036b0:	e0bff417 	ldw	r2,-48(fp)
 40036b4:	108003cc 	andi	r2,r2,15
 40036b8:	e0bff415 	stw	r2,-48(fp)
	      d.d /= bigtens[n_bigtens - 1];
 40036bc:	e0bfd517 	ldw	r2,-172(fp)
 40036c0:	e0ffd617 	ldw	r3,-168(fp)
 40036c4:	01810074 	movhi	r6,1025
 40036c8:	310e4117 	ldw	r4,14596(r6)
 40036cc:	01810074 	movhi	r6,1025
 40036d0:	314e4217 	ldw	r5,14600(r6)
 40036d4:	200d883a 	mov	r6,r4
 40036d8:	280f883a 	mov	r7,r5
 40036dc:	1009883a 	mov	r4,r2
 40036e0:	180b883a 	mov	r5,r3
 40036e4:	400eb0c0 	call	400eb0c <__divdf3>
 40036e8:	1009883a 	mov	r4,r2
 40036ec:	180b883a 	mov	r5,r3
 40036f0:	2005883a 	mov	r2,r4
 40036f4:	2807883a 	mov	r3,r5
 40036f8:	e0bfd515 	stw	r2,-172(fp)
 40036fc:	e0ffd615 	stw	r3,-168(fp)
	      ieps++;
 4003700:	e0bff717 	ldw	r2,-36(fp)
 4003704:	10800044 	addi	r2,r2,1
 4003708:	e0bff715 	stw	r2,-36(fp)
	    }
	  for (; j; j >>= 1, i++)
 400370c:	00001d06 	br	4003784 <_dtoa_r+0x82c>
	    if (j & 1)
 4003710:	e0bff417 	ldw	r2,-48(fp)
 4003714:	1080004c 	andi	r2,r2,1
 4003718:	10001426 	beq	r2,zero,400376c <_dtoa_r+0x814>
	      {
		ieps++;
 400371c:	e0bff717 	ldw	r2,-36(fp)
 4003720:	10800044 	addi	r2,r2,1
 4003724:	e0bff715 	stw	r2,-36(fp)
		ds *= bigtens[i];
 4003728:	e0bff817 	ldw	r2,-32(fp)
 400372c:	100a90fa 	slli	r5,r2,3
 4003730:	01010074 	movhi	r4,1025
 4003734:	2909883a 	add	r4,r5,r4
 4003738:	208e3917 	ldw	r2,14564(r4)
 400373c:	01010074 	movhi	r4,1025
 4003740:	2909883a 	add	r4,r5,r4
 4003744:	20ce3a17 	ldw	r3,14568(r4)
 4003748:	100d883a 	mov	r6,r2
 400374c:	180f883a 	mov	r7,r3
 4003750:	e13fe417 	ldw	r4,-112(fp)
 4003754:	e17fe517 	ldw	r5,-108(fp)
 4003758:	400f5cc0 	call	400f5cc <__muldf3>
 400375c:	1009883a 	mov	r4,r2
 4003760:	180b883a 	mov	r5,r3
 4003764:	e13fe415 	stw	r4,-112(fp)
 4003768:	e17fe515 	stw	r5,-108(fp)
	  for (; j; j >>= 1, i++)
 400376c:	e0bff417 	ldw	r2,-48(fp)
 4003770:	1005d07a 	srai	r2,r2,1
 4003774:	e0bff415 	stw	r2,-48(fp)
 4003778:	e0bff817 	ldw	r2,-32(fp)
 400377c:	10800044 	addi	r2,r2,1
 4003780:	e0bff815 	stw	r2,-32(fp)
 4003784:	e0bff417 	ldw	r2,-48(fp)
 4003788:	103fe11e 	bne	r2,zero,4003710 <_dtoa_r+0x7b8>
	      }
	  d.d /= ds;
 400378c:	e0bfd517 	ldw	r2,-172(fp)
 4003790:	e0ffd617 	ldw	r3,-168(fp)
 4003794:	e1bfe417 	ldw	r6,-112(fp)
 4003798:	e1ffe517 	ldw	r7,-108(fp)
 400379c:	1009883a 	mov	r4,r2
 40037a0:	180b883a 	mov	r5,r3
 40037a4:	400eb0c0 	call	400eb0c <__divdf3>
 40037a8:	1009883a 	mov	r4,r2
 40037ac:	180b883a 	mov	r5,r3
 40037b0:	2005883a 	mov	r2,r4
 40037b4:	2807883a 	mov	r3,r5
 40037b8:	e0bfd515 	stw	r2,-172(fp)
 40037bc:	e0ffd615 	stw	r3,-168(fp)
 40037c0:	00004206 	br	40038cc <_dtoa_r+0x974>
	}
      else if ((j1 = -k) != 0)
 40037c4:	e0bff317 	ldw	r2,-52(fp)
 40037c8:	0085c83a 	sub	r2,zero,r2
 40037cc:	e0bfdd15 	stw	r2,-140(fp)
 40037d0:	e0bfdd17 	ldw	r2,-140(fp)
 40037d4:	10003d26 	beq	r2,zero,40038cc <_dtoa_r+0x974>
	{
	  d.d *= tens[j1 & 0xf];
 40037d8:	e0bfd517 	ldw	r2,-172(fp)
 40037dc:	e0ffd617 	ldw	r3,-168(fp)
 40037e0:	e13fdd17 	ldw	r4,-140(fp)
 40037e4:	210003cc 	andi	r4,r4,15
 40037e8:	200e90fa 	slli	r7,r4,3
 40037ec:	01810074 	movhi	r6,1025
 40037f0:	398d883a 	add	r6,r7,r6
 40037f4:	310e0717 	ldw	r4,14364(r6)
 40037f8:	01810074 	movhi	r6,1025
 40037fc:	398d883a 	add	r6,r7,r6
 4003800:	314e0817 	ldw	r5,14368(r6)
 4003804:	200d883a 	mov	r6,r4
 4003808:	280f883a 	mov	r7,r5
 400380c:	1009883a 	mov	r4,r2
 4003810:	180b883a 	mov	r5,r3
 4003814:	400f5cc0 	call	400f5cc <__muldf3>
 4003818:	1009883a 	mov	r4,r2
 400381c:	180b883a 	mov	r5,r3
 4003820:	2005883a 	mov	r2,r4
 4003824:	2807883a 	mov	r3,r5
 4003828:	e0bfd515 	stw	r2,-172(fp)
 400382c:	e0ffd615 	stw	r3,-168(fp)
	  for (j = j1 >> 4; j; j >>= 1, i++)
 4003830:	e0bfdd17 	ldw	r2,-140(fp)
 4003834:	1005d13a 	srai	r2,r2,4
 4003838:	e0bff415 	stw	r2,-48(fp)
 400383c:	00002106 	br	40038c4 <_dtoa_r+0x96c>
	    if (j & 1)
 4003840:	e0bff417 	ldw	r2,-48(fp)
 4003844:	1080004c 	andi	r2,r2,1
 4003848:	10001826 	beq	r2,zero,40038ac <_dtoa_r+0x954>
	      {
		ieps++;
 400384c:	e0bff717 	ldw	r2,-36(fp)
 4003850:	10800044 	addi	r2,r2,1
 4003854:	e0bff715 	stw	r2,-36(fp)
		d.d *= bigtens[i];
 4003858:	e0bfd517 	ldw	r2,-172(fp)
 400385c:	e0ffd617 	ldw	r3,-168(fp)
 4003860:	e13ff817 	ldw	r4,-32(fp)
 4003864:	200e90fa 	slli	r7,r4,3
 4003868:	01810074 	movhi	r6,1025
 400386c:	398d883a 	add	r6,r7,r6
 4003870:	310e3917 	ldw	r4,14564(r6)
 4003874:	01810074 	movhi	r6,1025
 4003878:	398d883a 	add	r6,r7,r6
 400387c:	314e3a17 	ldw	r5,14568(r6)
 4003880:	200d883a 	mov	r6,r4
 4003884:	280f883a 	mov	r7,r5
 4003888:	1009883a 	mov	r4,r2
 400388c:	180b883a 	mov	r5,r3
 4003890:	400f5cc0 	call	400f5cc <__muldf3>
 4003894:	1009883a 	mov	r4,r2
 4003898:	180b883a 	mov	r5,r3
 400389c:	2005883a 	mov	r2,r4
 40038a0:	2807883a 	mov	r3,r5
 40038a4:	e0bfd515 	stw	r2,-172(fp)
 40038a8:	e0ffd615 	stw	r3,-168(fp)
	  for (j = j1 >> 4; j; j >>= 1, i++)
 40038ac:	e0bff417 	ldw	r2,-48(fp)
 40038b0:	1005d07a 	srai	r2,r2,1
 40038b4:	e0bff415 	stw	r2,-48(fp)
 40038b8:	e0bff817 	ldw	r2,-32(fp)
 40038bc:	10800044 	addi	r2,r2,1
 40038c0:	e0bff815 	stw	r2,-32(fp)
 40038c4:	e0bff417 	ldw	r2,-48(fp)
 40038c8:	103fdd1e 	bne	r2,zero,4003840 <_dtoa_r+0x8e8>
	      }
	}
      if (k_check && d.d < 1. && ilim > 0)
 40038cc:	e0bff217 	ldw	r2,-56(fp)
 40038d0:	10002126 	beq	r2,zero,4003958 <_dtoa_r+0xa00>
 40038d4:	e0bfd517 	ldw	r2,-172(fp)
 40038d8:	e0ffd617 	ldw	r3,-168(fp)
 40038dc:	000d883a 	mov	r6,zero
 40038e0:	01cffc34 	movhi	r7,16368
 40038e4:	1009883a 	mov	r4,r2
 40038e8:	180b883a 	mov	r5,r3
 40038ec:	400f4dc0 	call	400f4dc <__ledf2>
 40038f0:	1000190e 	bge	r2,zero,4003958 <_dtoa_r+0xa00>
 40038f4:	e0bff617 	ldw	r2,-40(fp)
 40038f8:	0080170e 	bge	zero,r2,4003958 <_dtoa_r+0xa00>
	{
	  if (ilim1 <= 0)
 40038fc:	e0bff517 	ldw	r2,-44(fp)
 4003900:	00815b0e 	bge	zero,r2,4003e70 <_dtoa_r+0xf18>
	    goto fast_failed;
	  ilim = ilim1;
 4003904:	e0bff517 	ldw	r2,-44(fp)
 4003908:	e0bff615 	stw	r2,-40(fp)
	  k--;
 400390c:	e0bff317 	ldw	r2,-52(fp)
 4003910:	10bfffc4 	addi	r2,r2,-1
 4003914:	e0bff315 	stw	r2,-52(fp)
	  d.d *= 10.;
 4003918:	e0bfd517 	ldw	r2,-172(fp)
 400391c:	e0ffd617 	ldw	r3,-168(fp)
 4003920:	000d883a 	mov	r6,zero
 4003924:	01d00934 	movhi	r7,16420
 4003928:	1009883a 	mov	r4,r2
 400392c:	180b883a 	mov	r5,r3
 4003930:	400f5cc0 	call	400f5cc <__muldf3>
 4003934:	1009883a 	mov	r4,r2
 4003938:	180b883a 	mov	r5,r3
 400393c:	2005883a 	mov	r2,r4
 4003940:	2807883a 	mov	r3,r5
 4003944:	e0bfd515 	stw	r2,-172(fp)
 4003948:	e0ffd615 	stw	r3,-168(fp)
	  ieps++;
 400394c:	e0bff717 	ldw	r2,-36(fp)
 4003950:	10800044 	addi	r2,r2,1
 4003954:	e0bff715 	stw	r2,-36(fp)
	}
      eps.d = ieps * d.d + 7.;
 4003958:	e13ff717 	ldw	r4,-36(fp)
 400395c:	40106440 	call	4010644 <__floatsidf>
 4003960:	1011883a 	mov	r8,r2
 4003964:	1813883a 	mov	r9,r3
 4003968:	e0bfd517 	ldw	r2,-172(fp)
 400396c:	e0ffd617 	ldw	r3,-168(fp)
 4003970:	100d883a 	mov	r6,r2
 4003974:	180f883a 	mov	r7,r3
 4003978:	4009883a 	mov	r4,r8
 400397c:	480b883a 	mov	r5,r9
 4003980:	400f5cc0 	call	400f5cc <__muldf3>
 4003984:	1009883a 	mov	r4,r2
 4003988:	180b883a 	mov	r5,r3
 400398c:	2005883a 	mov	r2,r4
 4003990:	2807883a 	mov	r3,r5
 4003994:	000d883a 	mov	r6,zero
 4003998:	01d00734 	movhi	r7,16412
 400399c:	1009883a 	mov	r4,r2
 40039a0:	180b883a 	mov	r5,r3
 40039a4:	400e1940 	call	400e194 <__adddf3>
 40039a8:	1009883a 	mov	r4,r2
 40039ac:	180b883a 	mov	r5,r3
 40039b0:	2005883a 	mov	r2,r4
 40039b4:	2807883a 	mov	r3,r5
 40039b8:	e0bfd115 	stw	r2,-188(fp)
 40039bc:	e0ffd215 	stw	r3,-184(fp)
      word0 (eps) -= (P - 1) * Exp_msk1;
 40039c0:	e0ffd217 	ldw	r3,-184(fp)
 40039c4:	00bf3034 	movhi	r2,64704
 40039c8:	1885883a 	add	r2,r3,r2
 40039cc:	e0bfd215 	stw	r2,-184(fp)
      if (ilim == 0)
 40039d0:	e0bff617 	ldw	r2,-40(fp)
 40039d4:	1000271e 	bne	r2,zero,4003a74 <_dtoa_r+0xb1c>
	{
	  S = mhi = 0;
 40039d8:	e03fe715 	stw	zero,-100(fp)
 40039dc:	e0bfe717 	ldw	r2,-100(fp)
 40039e0:	e0bfe615 	stw	r2,-104(fp)
	  d.d -= 5.;
 40039e4:	e0bfd517 	ldw	r2,-172(fp)
 40039e8:	e0ffd617 	ldw	r3,-168(fp)
 40039ec:	000d883a 	mov	r6,zero
 40039f0:	01d00534 	movhi	r7,16404
 40039f4:	1009883a 	mov	r4,r2
 40039f8:	180b883a 	mov	r5,r3
 40039fc:	400fc3c0 	call	400fc3c <__subdf3>
 4003a00:	1009883a 	mov	r4,r2
 4003a04:	180b883a 	mov	r5,r3
 4003a08:	2005883a 	mov	r2,r4
 4003a0c:	2807883a 	mov	r3,r5
 4003a10:	e0bfd515 	stw	r2,-172(fp)
 4003a14:	e0ffd615 	stw	r3,-168(fp)
	  if (d.d > eps.d)
 4003a18:	e0bfd517 	ldw	r2,-172(fp)
 4003a1c:	e0ffd617 	ldw	r3,-168(fp)
 4003a20:	e13fd117 	ldw	r4,-188(fp)
 4003a24:	e17fd217 	ldw	r5,-184(fp)
 4003a28:	200d883a 	mov	r6,r4
 4003a2c:	280f883a 	mov	r7,r5
 4003a30:	1009883a 	mov	r4,r2
 4003a34:	180b883a 	mov	r5,r3
 4003a38:	400f3ec0 	call	400f3ec <__gedf2>
 4003a3c:	0082f916 	blt	zero,r2,4004624 <_dtoa_r+0x16cc>
	    goto one_digit;
	  if (d.d < -eps.d)
 4003a40:	e23fd517 	ldw	r8,-172(fp)
 4003a44:	e27fd617 	ldw	r9,-168(fp)
 4003a48:	e0bfd117 	ldw	r2,-188(fp)
 4003a4c:	e0ffd217 	ldw	r3,-184(fp)
 4003a50:	1021883a 	mov	r16,r2
 4003a54:	1c60003c 	xorhi	r17,r3,32768
 4003a58:	800d883a 	mov	r6,r16
 4003a5c:	880f883a 	mov	r7,r17
 4003a60:	4009883a 	mov	r4,r8
 4003a64:	480b883a 	mov	r5,r9
 4003a68:	400f4dc0 	call	400f4dc <__ledf2>
 4003a6c:	1002e416 	blt	r2,zero,4004600 <_dtoa_r+0x16a8>
	    goto no_digits;
	  goto fast_failed;
 4003a70:	00010206 	br	4003e7c <_dtoa_r+0xf24>
	}
#ifndef No_leftright
      if (leftright)
 4003a74:	e0bff117 	ldw	r2,-60(fp)
 4003a78:	10007d26 	beq	r2,zero,4003c70 <_dtoa_r+0xd18>
	{
	  /* Use Steele & White method of only
	   * generating digits needed.
	   */
	  eps.d = 0.5 / tens[ilim - 1] - eps.d;
 4003a7c:	e0bff617 	ldw	r2,-40(fp)
 4003a80:	10bfffc4 	addi	r2,r2,-1
 4003a84:	100a90fa 	slli	r5,r2,3
 4003a88:	01010074 	movhi	r4,1025
 4003a8c:	2909883a 	add	r4,r5,r4
 4003a90:	208e0717 	ldw	r2,14364(r4)
 4003a94:	01010074 	movhi	r4,1025
 4003a98:	2909883a 	add	r4,r5,r4
 4003a9c:	20ce0817 	ldw	r3,14368(r4)
 4003aa0:	100d883a 	mov	r6,r2
 4003aa4:	180f883a 	mov	r7,r3
 4003aa8:	0009883a 	mov	r4,zero
 4003aac:	014ff834 	movhi	r5,16352
 4003ab0:	400eb0c0 	call	400eb0c <__divdf3>
 4003ab4:	1009883a 	mov	r4,r2
 4003ab8:	180b883a 	mov	r5,r3
 4003abc:	2011883a 	mov	r8,r4
 4003ac0:	2813883a 	mov	r9,r5
 4003ac4:	e0bfd117 	ldw	r2,-188(fp)
 4003ac8:	e0ffd217 	ldw	r3,-184(fp)
 4003acc:	100d883a 	mov	r6,r2
 4003ad0:	180f883a 	mov	r7,r3
 4003ad4:	4009883a 	mov	r4,r8
 4003ad8:	480b883a 	mov	r5,r9
 4003adc:	400fc3c0 	call	400fc3c <__subdf3>
 4003ae0:	1009883a 	mov	r4,r2
 4003ae4:	180b883a 	mov	r5,r3
 4003ae8:	2005883a 	mov	r2,r4
 4003aec:	2807883a 	mov	r3,r5
 4003af0:	e0bfd115 	stw	r2,-188(fp)
 4003af4:	e0ffd215 	stw	r3,-184(fp)
	  for (i = 0;;)
 4003af8:	e03ff815 	stw	zero,-32(fp)
	    {
	      L = d.d;
 4003afc:	e0bfd517 	ldw	r2,-172(fp)
 4003b00:	e0ffd617 	ldw	r3,-168(fp)
 4003b04:	1009883a 	mov	r4,r2
 4003b08:	180b883a 	mov	r5,r3
 4003b0c:	40105c40 	call	40105c4 <__fixdfsi>
 4003b10:	e0bfdc15 	stw	r2,-144(fp)
	      d.d -= L;
 4003b14:	e43fd517 	ldw	r16,-172(fp)
 4003b18:	e47fd617 	ldw	r17,-168(fp)
 4003b1c:	e13fdc17 	ldw	r4,-144(fp)
 4003b20:	40106440 	call	4010644 <__floatsidf>
 4003b24:	1009883a 	mov	r4,r2
 4003b28:	180b883a 	mov	r5,r3
 4003b2c:	200d883a 	mov	r6,r4
 4003b30:	280f883a 	mov	r7,r5
 4003b34:	8009883a 	mov	r4,r16
 4003b38:	880b883a 	mov	r5,r17
 4003b3c:	400fc3c0 	call	400fc3c <__subdf3>
 4003b40:	1009883a 	mov	r4,r2
 4003b44:	180b883a 	mov	r5,r3
 4003b48:	2005883a 	mov	r2,r4
 4003b4c:	2807883a 	mov	r3,r5
 4003b50:	e0bfd515 	stw	r2,-172(fp)
 4003b54:	e0ffd615 	stw	r3,-168(fp)
	      *s++ = '0' + (int) L;
 4003b58:	e0bfdc17 	ldw	r2,-144(fp)
 4003b5c:	10800c04 	addi	r2,r2,48
 4003b60:	1009883a 	mov	r4,r2
 4003b64:	e0bfe317 	ldw	r2,-116(fp)
 4003b68:	10c00044 	addi	r3,r2,1
 4003b6c:	e0ffe315 	stw	r3,-116(fp)
 4003b70:	2007883a 	mov	r3,r4
 4003b74:	10c00005 	stb	r3,0(r2)
	      if (d.d < eps.d)
 4003b78:	e0bfd517 	ldw	r2,-172(fp)
 4003b7c:	e0ffd617 	ldw	r3,-168(fp)
 4003b80:	e13fd117 	ldw	r4,-188(fp)
 4003b84:	e17fd217 	ldw	r5,-184(fp)
 4003b88:	200d883a 	mov	r6,r4
 4003b8c:	280f883a 	mov	r7,r5
 4003b90:	1009883a 	mov	r4,r2
 4003b94:	180b883a 	mov	r5,r3
 4003b98:	400f4dc0 	call	400f4dc <__ledf2>
 4003b9c:	1003de16 	blt	r2,zero,4004b18 <_dtoa_r+0x1bc0>
		goto ret1;
	      if (1. - d.d < eps.d)
 4003ba0:	e0bfd517 	ldw	r2,-172(fp)
 4003ba4:	e0ffd617 	ldw	r3,-168(fp)
 4003ba8:	100d883a 	mov	r6,r2
 4003bac:	180f883a 	mov	r7,r3
 4003bb0:	0009883a 	mov	r4,zero
 4003bb4:	014ffc34 	movhi	r5,16368
 4003bb8:	400fc3c0 	call	400fc3c <__subdf3>
 4003bbc:	1009883a 	mov	r4,r2
 4003bc0:	180b883a 	mov	r5,r3
 4003bc4:	2011883a 	mov	r8,r4
 4003bc8:	2813883a 	mov	r9,r5
 4003bcc:	e0bfd117 	ldw	r2,-188(fp)
 4003bd0:	e0ffd217 	ldw	r3,-184(fp)
 4003bd4:	100d883a 	mov	r6,r2
 4003bd8:	180f883a 	mov	r7,r3
 4003bdc:	4009883a 	mov	r4,r8
 4003be0:	480b883a 	mov	r5,r9
 4003be4:	400f4dc0 	call	400f4dc <__ledf2>
 4003be8:	10012f16 	blt	r2,zero,40040a8 <_dtoa_r+0x1150>
		goto bump_up;
	      if (++i >= ilim)
 4003bec:	e0bff817 	ldw	r2,-32(fp)
 4003bf0:	10800044 	addi	r2,r2,1
 4003bf4:	e0bff815 	stw	r2,-32(fp)
 4003bf8:	e0fff817 	ldw	r3,-32(fp)
 4003bfc:	e0bff617 	ldw	r2,-40(fp)
 4003c00:	18809d0e 	bge	r3,r2,4003e78 <_dtoa_r+0xf20>
		break;
	      eps.d *= 10.;
 4003c04:	e0bfd117 	ldw	r2,-188(fp)
 4003c08:	e0ffd217 	ldw	r3,-184(fp)
 4003c0c:	000d883a 	mov	r6,zero
 4003c10:	01d00934 	movhi	r7,16420
 4003c14:	1009883a 	mov	r4,r2
 4003c18:	180b883a 	mov	r5,r3
 4003c1c:	400f5cc0 	call	400f5cc <__muldf3>
 4003c20:	1009883a 	mov	r4,r2
 4003c24:	180b883a 	mov	r5,r3
 4003c28:	2005883a 	mov	r2,r4
 4003c2c:	2807883a 	mov	r3,r5
 4003c30:	e0bfd115 	stw	r2,-188(fp)
 4003c34:	e0ffd215 	stw	r3,-184(fp)
	      d.d *= 10.;
 4003c38:	e0bfd517 	ldw	r2,-172(fp)
 4003c3c:	e0ffd617 	ldw	r3,-168(fp)
 4003c40:	000d883a 	mov	r6,zero
 4003c44:	01d00934 	movhi	r7,16420
 4003c48:	1009883a 	mov	r4,r2
 4003c4c:	180b883a 	mov	r5,r3
 4003c50:	400f5cc0 	call	400f5cc <__muldf3>
 4003c54:	1009883a 	mov	r4,r2
 4003c58:	180b883a 	mov	r5,r3
 4003c5c:	2005883a 	mov	r2,r4
 4003c60:	2807883a 	mov	r3,r5
 4003c64:	e0bfd515 	stw	r2,-172(fp)
 4003c68:	e0ffd615 	stw	r3,-168(fp)
	      L = d.d;
 4003c6c:	003fa306 	br	4003afc <_dtoa_r+0xba4>
	}
      else
	{
#endif
	  /* Generate ilim digits, then fix them up. */
	  eps.d *= tens[ilim - 1];
 4003c70:	e0bfd117 	ldw	r2,-188(fp)
 4003c74:	e0ffd217 	ldw	r3,-184(fp)
 4003c78:	e13ff617 	ldw	r4,-40(fp)
 4003c7c:	213fffc4 	addi	r4,r4,-1
 4003c80:	200e90fa 	slli	r7,r4,3
 4003c84:	01810074 	movhi	r6,1025
 4003c88:	398d883a 	add	r6,r7,r6
 4003c8c:	310e0717 	ldw	r4,14364(r6)
 4003c90:	01810074 	movhi	r6,1025
 4003c94:	398d883a 	add	r6,r7,r6
 4003c98:	314e0817 	ldw	r5,14368(r6)
 4003c9c:	200d883a 	mov	r6,r4
 4003ca0:	280f883a 	mov	r7,r5
 4003ca4:	1009883a 	mov	r4,r2
 4003ca8:	180b883a 	mov	r5,r3
 4003cac:	400f5cc0 	call	400f5cc <__muldf3>
 4003cb0:	1009883a 	mov	r4,r2
 4003cb4:	180b883a 	mov	r5,r3
 4003cb8:	2005883a 	mov	r2,r4
 4003cbc:	2807883a 	mov	r3,r5
 4003cc0:	e0bfd115 	stw	r2,-188(fp)
 4003cc4:	e0ffd215 	stw	r3,-184(fp)
	  for (i = 1;; i++, d.d *= 10.)
 4003cc8:	00800044 	movi	r2,1
 4003ccc:	e0bff815 	stw	r2,-32(fp)
	    {
	      L = d.d;
 4003cd0:	e0bfd517 	ldw	r2,-172(fp)
 4003cd4:	e0ffd617 	ldw	r3,-168(fp)
 4003cd8:	1009883a 	mov	r4,r2
 4003cdc:	180b883a 	mov	r5,r3
 4003ce0:	40105c40 	call	40105c4 <__fixdfsi>
 4003ce4:	e0bfdc15 	stw	r2,-144(fp)
	      d.d -= L;
 4003ce8:	e43fd517 	ldw	r16,-172(fp)
 4003cec:	e47fd617 	ldw	r17,-168(fp)
 4003cf0:	e13fdc17 	ldw	r4,-144(fp)
 4003cf4:	40106440 	call	4010644 <__floatsidf>
 4003cf8:	1009883a 	mov	r4,r2
 4003cfc:	180b883a 	mov	r5,r3
 4003d00:	200d883a 	mov	r6,r4
 4003d04:	280f883a 	mov	r7,r5
 4003d08:	8009883a 	mov	r4,r16
 4003d0c:	880b883a 	mov	r5,r17
 4003d10:	400fc3c0 	call	400fc3c <__subdf3>
 4003d14:	1009883a 	mov	r4,r2
 4003d18:	180b883a 	mov	r5,r3
 4003d1c:	2005883a 	mov	r2,r4
 4003d20:	2807883a 	mov	r3,r5
 4003d24:	e0bfd515 	stw	r2,-172(fp)
 4003d28:	e0ffd615 	stw	r3,-168(fp)
	      *s++ = '0' + (int) L;
 4003d2c:	e0bfdc17 	ldw	r2,-144(fp)
 4003d30:	10800c04 	addi	r2,r2,48
 4003d34:	1009883a 	mov	r4,r2
 4003d38:	e0bfe317 	ldw	r2,-116(fp)
 4003d3c:	10c00044 	addi	r3,r2,1
 4003d40:	e0ffe315 	stw	r3,-116(fp)
 4003d44:	2007883a 	mov	r3,r4
 4003d48:	10c00005 	stb	r3,0(r2)
	      if (i == ilim)
 4003d4c:	e0fff817 	ldw	r3,-32(fp)
 4003d50:	e0bff617 	ldw	r2,-40(fp)
 4003d54:	1880351e 	bne	r3,r2,4003e2c <_dtoa_r+0xed4>
		{
		  if (d.d > 0.5 + eps.d)
 4003d58:	e43fd517 	ldw	r16,-172(fp)
 4003d5c:	e47fd617 	ldw	r17,-168(fp)
 4003d60:	e0bfd117 	ldw	r2,-188(fp)
 4003d64:	e0ffd217 	ldw	r3,-184(fp)
 4003d68:	000d883a 	mov	r6,zero
 4003d6c:	01cff834 	movhi	r7,16352
 4003d70:	1009883a 	mov	r4,r2
 4003d74:	180b883a 	mov	r5,r3
 4003d78:	400e1940 	call	400e194 <__adddf3>
 4003d7c:	1009883a 	mov	r4,r2
 4003d80:	180b883a 	mov	r5,r3
 4003d84:	2005883a 	mov	r2,r4
 4003d88:	2807883a 	mov	r3,r5
 4003d8c:	100d883a 	mov	r6,r2
 4003d90:	180f883a 	mov	r7,r3
 4003d94:	8009883a 	mov	r4,r16
 4003d98:	880b883a 	mov	r5,r17
 4003d9c:	400f3ec0 	call	400f3ec <__gedf2>
 4003da0:	0080c316 	blt	zero,r2,40040b0 <_dtoa_r+0x1158>
		    goto bump_up;
		  else if (d.d < 0.5 - eps.d)
 4003da4:	e43fd517 	ldw	r16,-172(fp)
 4003da8:	e47fd617 	ldw	r17,-168(fp)
 4003dac:	e0bfd117 	ldw	r2,-188(fp)
 4003db0:	e0ffd217 	ldw	r3,-184(fp)
 4003db4:	100d883a 	mov	r6,r2
 4003db8:	180f883a 	mov	r7,r3
 4003dbc:	0009883a 	mov	r4,zero
 4003dc0:	014ff834 	movhi	r5,16352
 4003dc4:	400fc3c0 	call	400fc3c <__subdf3>
 4003dc8:	1009883a 	mov	r4,r2
 4003dcc:	180b883a 	mov	r5,r3
 4003dd0:	2005883a 	mov	r2,r4
 4003dd4:	2807883a 	mov	r3,r5
 4003dd8:	100d883a 	mov	r6,r2
 4003ddc:	180f883a 	mov	r7,r3
 4003de0:	8009883a 	mov	r4,r16
 4003de4:	880b883a 	mov	r5,r17
 4003de8:	400f4dc0 	call	400f4dc <__ledf2>
 4003dec:	10000116 	blt	r2,zero,4003df4 <_dtoa_r+0xe9c>
		    {
		      while (*--s == '0');
		      s++;
		      goto ret1;
		    }
		  break;
 4003df0:	00002206 	br	4003e7c <_dtoa_r+0xf24>
		      while (*--s == '0');
 4003df4:	e0bfe317 	ldw	r2,-116(fp)
 4003df8:	10bfffc4 	addi	r2,r2,-1
 4003dfc:	e0bfe315 	stw	r2,-116(fp)
 4003e00:	e0bfe317 	ldw	r2,-116(fp)
 4003e04:	10800003 	ldbu	r2,0(r2)
 4003e08:	10803fcc 	andi	r2,r2,255
 4003e0c:	1080201c 	xori	r2,r2,128
 4003e10:	10bfe004 	addi	r2,r2,-128
 4003e14:	10800c20 	cmpeqi	r2,r2,48
 4003e18:	103ff61e 	bne	r2,zero,4003df4 <_dtoa_r+0xe9c>
		      s++;
 4003e1c:	e0bfe317 	ldw	r2,-116(fp)
 4003e20:	10800044 	addi	r2,r2,1
 4003e24:	e0bfe315 	stw	r2,-116(fp)
		      goto ret1;
 4003e28:	00033e06 	br	4004b24 <_dtoa_r+0x1bcc>
	  for (i = 1;; i++, d.d *= 10.)
 4003e2c:	e0bff817 	ldw	r2,-32(fp)
 4003e30:	10800044 	addi	r2,r2,1
 4003e34:	e0bff815 	stw	r2,-32(fp)
 4003e38:	e0bfd517 	ldw	r2,-172(fp)
 4003e3c:	e0ffd617 	ldw	r3,-168(fp)
 4003e40:	000d883a 	mov	r6,zero
 4003e44:	01d00934 	movhi	r7,16420
 4003e48:	1009883a 	mov	r4,r2
 4003e4c:	180b883a 	mov	r5,r3
 4003e50:	400f5cc0 	call	400f5cc <__muldf3>
 4003e54:	1009883a 	mov	r4,r2
 4003e58:	180b883a 	mov	r5,r3
 4003e5c:	2005883a 	mov	r2,r4
 4003e60:	2807883a 	mov	r3,r5
 4003e64:	e0bfd515 	stw	r2,-172(fp)
 4003e68:	e0ffd615 	stw	r3,-168(fp)
	      L = d.d;
 4003e6c:	003f9806 	br	4003cd0 <_dtoa_r+0xd78>
	    goto fast_failed;
 4003e70:	0001883a 	nop
 4003e74:	00000106 	br	4003e7c <_dtoa_r+0xf24>
		break;
 4003e78:	0001883a 	nop
	    }
#ifndef No_leftright
	}
#endif
    fast_failed:
      s = s0;
 4003e7c:	e0bfe017 	ldw	r2,-128(fp)
 4003e80:	e0bfe315 	stw	r2,-116(fp)
      d.d = d2.d;
 4003e84:	e0bfd317 	ldw	r2,-180(fp)
 4003e88:	e0ffd417 	ldw	r3,-176(fp)
 4003e8c:	e0bfd515 	stw	r2,-172(fp)
 4003e90:	e0ffd615 	stw	r3,-168(fp)
      k = k0;
 4003e94:	e0bfdf17 	ldw	r2,-132(fp)
 4003e98:	e0bff315 	stw	r2,-52(fp)
      ilim = ilim0;
 4003e9c:	e0bfde17 	ldw	r2,-136(fp)
 4003ea0:	e0bff615 	stw	r2,-40(fp)
    }

  /* Do we have a "small" integer? */

  if (be >= 0 && k <= Int_max)
 4003ea4:	e0bfd717 	ldw	r2,-164(fp)
 4003ea8:	1000bd16 	blt	r2,zero,40041a0 <_dtoa_r+0x1248>
 4003eac:	e0bff317 	ldw	r2,-52(fp)
 4003eb0:	108003c8 	cmpgei	r2,r2,15
 4003eb4:	1000ba1e 	bne	r2,zero,40041a0 <_dtoa_r+0x1248>
    {
      /* Yes. */
      ds = tens[k];
 4003eb8:	e0bff317 	ldw	r2,-52(fp)
 4003ebc:	100690fa 	slli	r3,r2,3
 4003ec0:	00810074 	movhi	r2,1025
 4003ec4:	1885883a 	add	r2,r3,r2
 4003ec8:	108e0717 	ldw	r2,14364(r2)
 4003ecc:	e0bfe415 	stw	r2,-112(fp)
 4003ed0:	00810074 	movhi	r2,1025
 4003ed4:	1885883a 	add	r2,r3,r2
 4003ed8:	108e0817 	ldw	r2,14368(r2)
 4003edc:	e0bfe515 	stw	r2,-108(fp)
      if (ndigits < 0 && ilim <= 0)
 4003ee0:	e0800217 	ldw	r2,8(fp)
 4003ee4:	1000190e 	bge	r2,zero,4003f4c <_dtoa_r+0xff4>
 4003ee8:	e0bff617 	ldw	r2,-40(fp)
 4003eec:	00801716 	blt	zero,r2,4003f4c <_dtoa_r+0xff4>
	{
	  S = mhi = 0;
 4003ef0:	e03fe715 	stw	zero,-100(fp)
 4003ef4:	e0bfe717 	ldw	r2,-100(fp)
 4003ef8:	e0bfe615 	stw	r2,-104(fp)
	  if (ilim < 0 || d.d <= 5 * ds)
 4003efc:	e0bff617 	ldw	r2,-40(fp)
 4003f00:	1001c116 	blt	r2,zero,4004608 <_dtoa_r+0x16b0>
 4003f04:	e43fd517 	ldw	r16,-172(fp)
 4003f08:	e47fd617 	ldw	r17,-168(fp)
 4003f0c:	000d883a 	mov	r6,zero
 4003f10:	01d00534 	movhi	r7,16404
 4003f14:	e13fe417 	ldw	r4,-112(fp)
 4003f18:	e17fe517 	ldw	r5,-108(fp)
 4003f1c:	400f5cc0 	call	400f5cc <__muldf3>
 4003f20:	1009883a 	mov	r4,r2
 4003f24:	180b883a 	mov	r5,r3
 4003f28:	2005883a 	mov	r2,r4
 4003f2c:	2807883a 	mov	r3,r5
 4003f30:	100d883a 	mov	r6,r2
 4003f34:	180f883a 	mov	r7,r3
 4003f38:	8009883a 	mov	r4,r16
 4003f3c:	880b883a 	mov	r5,r17
 4003f40:	400f4dc0 	call	400f4dc <__ledf2>
 4003f44:	0081b00e 	bge	zero,r2,4004608 <_dtoa_r+0x16b0>
	    goto no_digits;
	  goto one_digit;
 4003f48:	0001b906 	br	4004630 <_dtoa_r+0x16d8>
	}
      for (i = 1;; i++)
 4003f4c:	00800044 	movi	r2,1
 4003f50:	e0bff815 	stw	r2,-32(fp)
	{
	  L = d.d / ds;
 4003f54:	e0bfd517 	ldw	r2,-172(fp)
 4003f58:	e0ffd617 	ldw	r3,-168(fp)
 4003f5c:	e1bfe417 	ldw	r6,-112(fp)
 4003f60:	e1ffe517 	ldw	r7,-108(fp)
 4003f64:	1009883a 	mov	r4,r2
 4003f68:	180b883a 	mov	r5,r3
 4003f6c:	400eb0c0 	call	400eb0c <__divdf3>
 4003f70:	1009883a 	mov	r4,r2
 4003f74:	180b883a 	mov	r5,r3
 4003f78:	2005883a 	mov	r2,r4
 4003f7c:	2807883a 	mov	r3,r5
 4003f80:	1009883a 	mov	r4,r2
 4003f84:	180b883a 	mov	r5,r3
 4003f88:	40105c40 	call	40105c4 <__fixdfsi>
 4003f8c:	e0bfdc15 	stw	r2,-144(fp)
	  d.d -= L * ds;
 4003f90:	e43fd517 	ldw	r16,-172(fp)
 4003f94:	e47fd617 	ldw	r17,-168(fp)
 4003f98:	e13fdc17 	ldw	r4,-144(fp)
 4003f9c:	40106440 	call	4010644 <__floatsidf>
 4003fa0:	1011883a 	mov	r8,r2
 4003fa4:	1813883a 	mov	r9,r3
 4003fa8:	e1bfe417 	ldw	r6,-112(fp)
 4003fac:	e1ffe517 	ldw	r7,-108(fp)
 4003fb0:	4009883a 	mov	r4,r8
 4003fb4:	480b883a 	mov	r5,r9
 4003fb8:	400f5cc0 	call	400f5cc <__muldf3>
 4003fbc:	1009883a 	mov	r4,r2
 4003fc0:	180b883a 	mov	r5,r3
 4003fc4:	2005883a 	mov	r2,r4
 4003fc8:	2807883a 	mov	r3,r5
 4003fcc:	100d883a 	mov	r6,r2
 4003fd0:	180f883a 	mov	r7,r3
 4003fd4:	8009883a 	mov	r4,r16
 4003fd8:	880b883a 	mov	r5,r17
 4003fdc:	400fc3c0 	call	400fc3c <__subdf3>
 4003fe0:	1009883a 	mov	r4,r2
 4003fe4:	180b883a 	mov	r5,r3
 4003fe8:	2005883a 	mov	r2,r4
 4003fec:	2807883a 	mov	r3,r5
 4003ff0:	e0bfd515 	stw	r2,-172(fp)
 4003ff4:	e0ffd615 	stw	r3,-168(fp)
	    {
	      L--;
	      d.d += ds;
	    }
#endif
	  *s++ = '0' + (int) L;
 4003ff8:	e0bfdc17 	ldw	r2,-144(fp)
 4003ffc:	10800c04 	addi	r2,r2,48
 4004000:	1009883a 	mov	r4,r2
 4004004:	e0bfe317 	ldw	r2,-116(fp)
 4004008:	10c00044 	addi	r3,r2,1
 400400c:	e0ffe315 	stw	r3,-116(fp)
 4004010:	2007883a 	mov	r3,r4
 4004014:	10c00005 	stb	r3,0(r2)
	  if (i == ilim)
 4004018:	e0fff817 	ldw	r3,-32(fp)
 400401c:	e0bff617 	ldw	r2,-40(fp)
 4004020:	1880421e 	bne	r3,r2,400412c <_dtoa_r+0x11d4>
	    {
	      d.d += d.d;
 4004024:	e0bfd517 	ldw	r2,-172(fp)
 4004028:	e0ffd617 	ldw	r3,-168(fp)
 400402c:	100d883a 	mov	r6,r2
 4004030:	180f883a 	mov	r7,r3
 4004034:	1009883a 	mov	r4,r2
 4004038:	180b883a 	mov	r5,r3
 400403c:	400e1940 	call	400e194 <__adddf3>
 4004040:	1009883a 	mov	r4,r2
 4004044:	180b883a 	mov	r5,r3
 4004048:	2005883a 	mov	r2,r4
 400404c:	2807883a 	mov	r3,r5
 4004050:	e0bfd515 	stw	r2,-172(fp)
 4004054:	e0ffd615 	stw	r3,-168(fp)
             if ((d.d > ds) || ((d.d == ds) && (L & 1)))
 4004058:	e0bfd517 	ldw	r2,-172(fp)
 400405c:	e0ffd617 	ldw	r3,-168(fp)
 4004060:	100d883a 	mov	r6,r2
 4004064:	180f883a 	mov	r7,r3
 4004068:	e13fe417 	ldw	r4,-112(fp)
 400406c:	e17fe517 	ldw	r5,-108(fp)
 4004070:	400f4dc0 	call	400f4dc <__ledf2>
 4004074:	10001016 	blt	r2,zero,40040b8 <_dtoa_r+0x1160>
 4004078:	e0bfd517 	ldw	r2,-172(fp)
 400407c:	e0ffd617 	ldw	r3,-168(fp)
 4004080:	100d883a 	mov	r6,r2
 4004084:	180f883a 	mov	r7,r3
 4004088:	e13fe417 	ldw	r4,-112(fp)
 400408c:	e17fe517 	ldw	r5,-108(fp)
 4004090:	400f36c0 	call	400f36c <__eqdf2>
 4004094:	10003e1e 	bne	r2,zero,4004190 <_dtoa_r+0x1238>
 4004098:	e0bfdc17 	ldw	r2,-144(fp)
 400409c:	1080004c 	andi	r2,r2,1
 40040a0:	10003b26 	beq	r2,zero,4004190 <_dtoa_r+0x1238>
		{
		bump_up:
 40040a4:	00000406 	br	40040b8 <_dtoa_r+0x1160>
		goto bump_up;
 40040a8:	0001883a 	nop
 40040ac:	00000e06 	br	40040e8 <_dtoa_r+0x1190>
		    goto bump_up;
 40040b0:	0001883a 	nop
 40040b4:	00000c06 	br	40040e8 <_dtoa_r+0x1190>
		bump_up:
 40040b8:	0001883a 	nop
		  while (*--s == '9')
 40040bc:	00000a06 	br	40040e8 <_dtoa_r+0x1190>
		    if (s == s0)
 40040c0:	e0ffe317 	ldw	r3,-116(fp)
 40040c4:	e0bfe017 	ldw	r2,-128(fp)
 40040c8:	1880071e 	bne	r3,r2,40040e8 <_dtoa_r+0x1190>
		      {
			k++;
 40040cc:	e0bff317 	ldw	r2,-52(fp)
 40040d0:	10800044 	addi	r2,r2,1
 40040d4:	e0bff315 	stw	r2,-52(fp)
			*s = '0';
 40040d8:	e0bfe317 	ldw	r2,-116(fp)
 40040dc:	00c00c04 	movi	r3,48
 40040e0:	10c00005 	stb	r3,0(r2)
			break;
 40040e4:	00000a06 	br	4004110 <_dtoa_r+0x11b8>
		  while (*--s == '9')
 40040e8:	e0bfe317 	ldw	r2,-116(fp)
 40040ec:	10bfffc4 	addi	r2,r2,-1
 40040f0:	e0bfe315 	stw	r2,-116(fp)
 40040f4:	e0bfe317 	ldw	r2,-116(fp)
 40040f8:	10800003 	ldbu	r2,0(r2)
 40040fc:	10803fcc 	andi	r2,r2,255
 4004100:	1080201c 	xori	r2,r2,128
 4004104:	10bfe004 	addi	r2,r2,-128
 4004108:	10800e60 	cmpeqi	r2,r2,57
 400410c:	103fec1e 	bne	r2,zero,40040c0 <_dtoa_r+0x1168>
		      }
		  ++*s++;
 4004110:	e0bfe317 	ldw	r2,-116(fp)
 4004114:	10c00044 	addi	r3,r2,1
 4004118:	e0ffe315 	stw	r3,-116(fp)
 400411c:	10c00003 	ldbu	r3,0(r2)
 4004120:	18c00044 	addi	r3,r3,1
 4004124:	10c00005 	stb	r3,0(r2)
		}
	      break;
 4004128:	00001906 	br	4004190 <_dtoa_r+0x1238>
	    }
	  if (!(d.d *= 10.))
 400412c:	e0bfd517 	ldw	r2,-172(fp)
 4004130:	e0ffd617 	ldw	r3,-168(fp)
 4004134:	000d883a 	mov	r6,zero
 4004138:	01d00934 	movhi	r7,16420
 400413c:	1009883a 	mov	r4,r2
 4004140:	180b883a 	mov	r5,r3
 4004144:	400f5cc0 	call	400f5cc <__muldf3>
 4004148:	1009883a 	mov	r4,r2
 400414c:	180b883a 	mov	r5,r3
 4004150:	2005883a 	mov	r2,r4
 4004154:	2807883a 	mov	r3,r5
 4004158:	e0bfd515 	stw	r2,-172(fp)
 400415c:	e0ffd615 	stw	r3,-168(fp)
 4004160:	e0bfd517 	ldw	r2,-172(fp)
 4004164:	e0ffd617 	ldw	r3,-168(fp)
 4004168:	000d883a 	mov	r6,zero
 400416c:	000f883a 	mov	r7,zero
 4004170:	1009883a 	mov	r4,r2
 4004174:	180b883a 	mov	r5,r3
 4004178:	400f36c0 	call	400f36c <__eqdf2>
 400417c:	10000626 	beq	r2,zero,4004198 <_dtoa_r+0x1240>
      for (i = 1;; i++)
 4004180:	e0bff817 	ldw	r2,-32(fp)
 4004184:	10800044 	addi	r2,r2,1
 4004188:	e0bff815 	stw	r2,-32(fp)
	  L = d.d / ds;
 400418c:	003f7106 	br	4003f54 <_dtoa_r+0xffc>
	      break;
 4004190:	0001883a 	nop
 4004194:	00026306 	br	4004b24 <_dtoa_r+0x1bcc>
	    break;
 4004198:	0001883a 	nop
	}
      goto ret1;
 400419c:	00026106 	br	4004b24 <_dtoa_r+0x1bcc>
    }

  m2 = b2;
 40041a0:	e0bffb17 	ldw	r2,-20(fp)
 40041a4:	e0bff015 	stw	r2,-64(fp)
  m5 = b5;
 40041a8:	e0bffa17 	ldw	r2,-24(fp)
 40041ac:	e0bfef15 	stw	r2,-68(fp)
  mhi = mlo = 0;
 40041b0:	e03fe815 	stw	zero,-96(fp)
 40041b4:	e0bfe817 	ldw	r2,-96(fp)
 40041b8:	e0bfe715 	stw	r2,-100(fp)
  if (leftright)
 40041bc:	e0bff117 	ldw	r2,-60(fp)
 40041c0:	10003a26 	beq	r2,zero,40042ac <_dtoa_r+0x1354>
    {
      if (mode < 2)
 40041c4:	e0bfcd17 	ldw	r2,-204(fp)
 40041c8:	10800088 	cmpgei	r2,r2,2
 40041cc:	10000a1e 	bne	r2,zero,40041f8 <_dtoa_r+0x12a0>
	{
	  i =
#ifndef Sudden_Underflow
	    denorm ? be + (Bias + (P - 1) - 1 + 1) :
 40041d0:	e0bfea17 	ldw	r2,-88(fp)
 40041d4:	10000326 	beq	r2,zero,40041e4 <_dtoa_r+0x128c>
 40041d8:	e0bfd717 	ldw	r2,-164(fp)
 40041dc:	10810cc4 	addi	r2,r2,1075
 40041e0:	00000306 	br	40041f0 <_dtoa_r+0x1298>
#endif
#ifdef IBM
	    1 + 4 * P - 3 - bbits + ((bbits + be - 1) & 3);
#else
	    1 + P - bbits;
 40041e4:	e0bfd817 	ldw	r2,-160(fp)
	    denorm ? be + (Bias + (P - 1) - 1 + 1) :
 40041e8:	00c00d84 	movi	r3,54
 40041ec:	1885c83a 	sub	r2,r3,r2
	  i =
 40041f0:	e0bff815 	stw	r2,-32(fp)
 40041f4:	00002106 	br	400427c <_dtoa_r+0x1324>
#endif
	}
      else
	{
	  j = ilim - 1;
 40041f8:	e0bff617 	ldw	r2,-40(fp)
 40041fc:	10bfffc4 	addi	r2,r2,-1
 4004200:	e0bff415 	stw	r2,-48(fp)
	  if (m5 >= j)
 4004204:	e0ffef17 	ldw	r3,-68(fp)
 4004208:	e0bff417 	ldw	r2,-48(fp)
 400420c:	18800516 	blt	r3,r2,4004224 <_dtoa_r+0x12cc>
	    m5 -= j;
 4004210:	e0ffef17 	ldw	r3,-68(fp)
 4004214:	e0bff417 	ldw	r2,-48(fp)
 4004218:	1885c83a 	sub	r2,r3,r2
 400421c:	e0bfef15 	stw	r2,-68(fp)
 4004220:	00000d06 	br	4004258 <_dtoa_r+0x1300>
	  else
	    {
	      s5 += j -= m5;
 4004224:	e0fff417 	ldw	r3,-48(fp)
 4004228:	e0bfef17 	ldw	r2,-68(fp)
 400422c:	1885c83a 	sub	r2,r3,r2
 4004230:	e0bff415 	stw	r2,-48(fp)
 4004234:	e0bff417 	ldw	r2,-48(fp)
 4004238:	e0ffed17 	ldw	r3,-76(fp)
 400423c:	1885883a 	add	r2,r3,r2
 4004240:	e0bfed15 	stw	r2,-76(fp)
	      b5 += j;
 4004244:	e0fffa17 	ldw	r3,-24(fp)
 4004248:	e0bff417 	ldw	r2,-48(fp)
 400424c:	1885883a 	add	r2,r3,r2
 4004250:	e0bffa15 	stw	r2,-24(fp)
	      m5 = 0;
 4004254:	e03fef15 	stw	zero,-68(fp)
	    }
	  if ((i = ilim) < 0)
 4004258:	e0bff617 	ldw	r2,-40(fp)
 400425c:	e0bff815 	stw	r2,-32(fp)
 4004260:	e0bff817 	ldw	r2,-32(fp)
 4004264:	1000050e 	bge	r2,zero,400427c <_dtoa_r+0x1324>
	    {
	      m2 -= i;
 4004268:	e0fff017 	ldw	r3,-64(fp)
 400426c:	e0bff817 	ldw	r2,-32(fp)
 4004270:	1885c83a 	sub	r2,r3,r2
 4004274:	e0bff015 	stw	r2,-64(fp)
	      i = 0;
 4004278:	e03ff815 	stw	zero,-32(fp)
	    }
	}
      b2 += i;
 400427c:	e0fffb17 	ldw	r3,-20(fp)
 4004280:	e0bff817 	ldw	r2,-32(fp)
 4004284:	1885883a 	add	r2,r3,r2
 4004288:	e0bffb15 	stw	r2,-20(fp)
      s2 += i;
 400428c:	e0ffee17 	ldw	r3,-72(fp)
 4004290:	e0bff817 	ldw	r2,-32(fp)
 4004294:	1885883a 	add	r2,r3,r2
 4004298:	e0bfee15 	stw	r2,-72(fp)
      mhi = i2b (ptr, 1);
 400429c:	01400044 	movi	r5,1
 40042a0:	e13fd017 	ldw	r4,-192(fp)
 40042a4:	4007f600 	call	4007f60 <__i2b>
 40042a8:	e0bfe715 	stw	r2,-100(fp)
    }
  if (m2 > 0 && s2 > 0)
 40042ac:	e0bff017 	ldw	r2,-64(fp)
 40042b0:	0080130e 	bge	zero,r2,4004300 <_dtoa_r+0x13a8>
 40042b4:	e0bfee17 	ldw	r2,-72(fp)
 40042b8:	0080110e 	bge	zero,r2,4004300 <_dtoa_r+0x13a8>
    {
      i = m2 < s2 ? m2 : s2;
 40042bc:	e0fff017 	ldw	r3,-64(fp)
 40042c0:	e0bfee17 	ldw	r2,-72(fp)
 40042c4:	1880010e 	bge	r3,r2,40042cc <_dtoa_r+0x1374>
 40042c8:	1805883a 	mov	r2,r3
 40042cc:	e0bff815 	stw	r2,-32(fp)
      b2 -= i;
 40042d0:	e0fffb17 	ldw	r3,-20(fp)
 40042d4:	e0bff817 	ldw	r2,-32(fp)
 40042d8:	1885c83a 	sub	r2,r3,r2
 40042dc:	e0bffb15 	stw	r2,-20(fp)
      m2 -= i;
 40042e0:	e0fff017 	ldw	r3,-64(fp)
 40042e4:	e0bff817 	ldw	r2,-32(fp)
 40042e8:	1885c83a 	sub	r2,r3,r2
 40042ec:	e0bff015 	stw	r2,-64(fp)
      s2 -= i;
 40042f0:	e0ffee17 	ldw	r3,-72(fp)
 40042f4:	e0bff817 	ldw	r2,-32(fp)
 40042f8:	1885c83a 	sub	r2,r3,r2
 40042fc:	e0bfee15 	stw	r2,-72(fp)
    }
  if (b5 > 0)
 4004300:	e0bffa17 	ldw	r2,-24(fp)
 4004304:	0080240e 	bge	zero,r2,4004398 <_dtoa_r+0x1440>
    {
      if (leftright)
 4004308:	e0bff117 	ldw	r2,-60(fp)
 400430c:	10001d26 	beq	r2,zero,4004384 <_dtoa_r+0x142c>
	{
	  if (m5 > 0)
 4004310:	e0bfef17 	ldw	r2,-68(fp)
 4004314:	00800f0e 	bge	zero,r2,4004354 <_dtoa_r+0x13fc>
	    {
	      mhi = pow5mult (ptr, mhi, m5);
 4004318:	e1bfef17 	ldw	r6,-68(fp)
 400431c:	e17fe717 	ldw	r5,-100(fp)
 4004320:	e13fd017 	ldw	r4,-192(fp)
 4004324:	40083c00 	call	40083c0 <__pow5mult>
 4004328:	e0bfe715 	stw	r2,-100(fp)
	      b1 = mult (ptr, mhi, b);
 400432c:	e1bfe917 	ldw	r6,-92(fp)
 4004330:	e17fe717 	ldw	r5,-100(fp)
 4004334:	e13fd017 	ldw	r4,-192(fp)
 4004338:	4007fe40 	call	4007fe4 <__multiply>
 400433c:	e0bfdb15 	stw	r2,-148(fp)
	      Bfree (ptr, b);
 4004340:	e17fe917 	ldw	r5,-92(fp)
 4004344:	e13fd017 	ldw	r4,-192(fp)
 4004348:	4007a040 	call	4007a04 <_Bfree>
	      b = b1;
 400434c:	e0bfdb17 	ldw	r2,-148(fp)
 4004350:	e0bfe915 	stw	r2,-92(fp)
	    }
         if ((j = b5 - m5) != 0)
 4004354:	e0fffa17 	ldw	r3,-24(fp)
 4004358:	e0bfef17 	ldw	r2,-68(fp)
 400435c:	1885c83a 	sub	r2,r3,r2
 4004360:	e0bff415 	stw	r2,-48(fp)
 4004364:	e0bff417 	ldw	r2,-48(fp)
 4004368:	10000b26 	beq	r2,zero,4004398 <_dtoa_r+0x1440>
	    b = pow5mult (ptr, b, j);
 400436c:	e1bff417 	ldw	r6,-48(fp)
 4004370:	e17fe917 	ldw	r5,-92(fp)
 4004374:	e13fd017 	ldw	r4,-192(fp)
 4004378:	40083c00 	call	40083c0 <__pow5mult>
 400437c:	e0bfe915 	stw	r2,-92(fp)
 4004380:	00000506 	br	4004398 <_dtoa_r+0x1440>
	}
      else
	b = pow5mult (ptr, b, b5);
 4004384:	e1bffa17 	ldw	r6,-24(fp)
 4004388:	e17fe917 	ldw	r5,-92(fp)
 400438c:	e13fd017 	ldw	r4,-192(fp)
 4004390:	40083c00 	call	40083c0 <__pow5mult>
 4004394:	e0bfe915 	stw	r2,-92(fp)
    }
  S = i2b (ptr, 1);
 4004398:	01400044 	movi	r5,1
 400439c:	e13fd017 	ldw	r4,-192(fp)
 40043a0:	4007f600 	call	4007f60 <__i2b>
 40043a4:	e0bfe615 	stw	r2,-104(fp)
  if (s5 > 0)
 40043a8:	e0bfed17 	ldw	r2,-76(fp)
 40043ac:	0080050e 	bge	zero,r2,40043c4 <_dtoa_r+0x146c>
    S = pow5mult (ptr, S, s5);
 40043b0:	e1bfed17 	ldw	r6,-76(fp)
 40043b4:	e17fe617 	ldw	r5,-104(fp)
 40043b8:	e13fd017 	ldw	r4,-192(fp)
 40043bc:	40083c00 	call	40083c0 <__pow5mult>
 40043c0:	e0bfe615 	stw	r2,-104(fp)

  /* Check for special case that d is a normalized power of 2. */

  spec_case = 0;
 40043c4:	e03fec15 	stw	zero,-80(fp)
  if (mode < 2)
 40043c8:	e0bfcd17 	ldw	r2,-204(fp)
 40043cc:	10800088 	cmpgei	r2,r2,2
 40043d0:	1000121e 	bne	r2,zero,400441c <_dtoa_r+0x14c4>
    {
      if (!word1 (d) && !(word0 (d) & Bndry_mask)
 40043d4:	e0bfd517 	ldw	r2,-172(fp)
 40043d8:	1000101e 	bne	r2,zero,400441c <_dtoa_r+0x14c4>
 40043dc:	e0ffd617 	ldw	r3,-168(fp)
 40043e0:	00800434 	movhi	r2,16
 40043e4:	10bfffc4 	addi	r2,r2,-1
 40043e8:	1884703a 	and	r2,r3,r2
 40043ec:	10000b1e 	bne	r2,zero,400441c <_dtoa_r+0x14c4>
#ifndef Sudden_Underflow
	  && word0 (d) & Exp_mask
 40043f0:	e0bfd617 	ldw	r2,-168(fp)
 40043f4:	109ffc2c 	andhi	r2,r2,32752
 40043f8:	10000826 	beq	r2,zero,400441c <_dtoa_r+0x14c4>
#endif
	)
	{
	  /* The special case */
	  b2 += Log2P;
 40043fc:	e0bffb17 	ldw	r2,-20(fp)
 4004400:	10800044 	addi	r2,r2,1
 4004404:	e0bffb15 	stw	r2,-20(fp)
	  s2 += Log2P;
 4004408:	e0bfee17 	ldw	r2,-72(fp)
 400440c:	10800044 	addi	r2,r2,1
 4004410:	e0bfee15 	stw	r2,-72(fp)
	  spec_case = 1;
 4004414:	00800044 	movi	r2,1
 4004418:	e0bfec15 	stw	r2,-80(fp)
   * and for all and pass them and a shift to quorem, so it
   * can do shifts and ors to compute the numerator for q.
   */

#ifdef Pack_32
  if ((i = ((s5 ? 32 - hi0bits (S->_x[S->_wds - 1]) : 1) + s2) & 0x1f) != 0)
 400441c:	e0bfed17 	ldw	r2,-76(fp)
 4004420:	10000e26 	beq	r2,zero,400445c <_dtoa_r+0x1504>
 4004424:	e0bfe617 	ldw	r2,-104(fp)
 4004428:	10800417 	ldw	r2,16(r2)
 400442c:	10bfffc4 	addi	r2,r2,-1
 4004430:	e0ffe617 	ldw	r3,-104(fp)
 4004434:	10800144 	addi	r2,r2,5
 4004438:	100490ba 	slli	r2,r2,2
 400443c:	1885883a 	add	r2,r3,r2
 4004440:	10800017 	ldw	r2,0(r2)
 4004444:	1009883a 	mov	r4,r2
 4004448:	4007de80 	call	4007de8 <__hi0bits>
 400444c:	1007883a 	mov	r3,r2
 4004450:	00800804 	movi	r2,32
 4004454:	10c5c83a 	sub	r2,r2,r3
 4004458:	00000106 	br	4004460 <_dtoa_r+0x1508>
 400445c:	00800044 	movi	r2,1
 4004460:	e0ffee17 	ldw	r3,-72(fp)
 4004464:	10c5883a 	add	r2,r2,r3
 4004468:	108007cc 	andi	r2,r2,31
 400446c:	e0bff815 	stw	r2,-32(fp)
 4004470:	e0bff817 	ldw	r2,-32(fp)
 4004474:	10000426 	beq	r2,zero,4004488 <_dtoa_r+0x1530>
    i = 32 - i;
 4004478:	00c00804 	movi	r3,32
 400447c:	e0bff817 	ldw	r2,-32(fp)
 4004480:	1885c83a 	sub	r2,r3,r2
 4004484:	e0bff815 	stw	r2,-32(fp)
#else
  if ((i = ((s5 ? 32 - hi0bits (S->_x[S->_wds - 1]) : 1) + s2) & 0xf) != 0)
    i = 16 - i;
#endif
  if (i > 4)
 4004488:	e0bff817 	ldw	r2,-32(fp)
 400448c:	10800150 	cmplti	r2,r2,5
 4004490:	1000101e 	bne	r2,zero,40044d4 <_dtoa_r+0x157c>
    {
      i -= 4;
 4004494:	e0bff817 	ldw	r2,-32(fp)
 4004498:	10bfff04 	addi	r2,r2,-4
 400449c:	e0bff815 	stw	r2,-32(fp)
      b2 += i;
 40044a0:	e0fffb17 	ldw	r3,-20(fp)
 40044a4:	e0bff817 	ldw	r2,-32(fp)
 40044a8:	1885883a 	add	r2,r3,r2
 40044ac:	e0bffb15 	stw	r2,-20(fp)
      m2 += i;
 40044b0:	e0fff017 	ldw	r3,-64(fp)
 40044b4:	e0bff817 	ldw	r2,-32(fp)
 40044b8:	1885883a 	add	r2,r3,r2
 40044bc:	e0bff015 	stw	r2,-64(fp)
      s2 += i;
 40044c0:	e0ffee17 	ldw	r3,-72(fp)
 40044c4:	e0bff817 	ldw	r2,-32(fp)
 40044c8:	1885883a 	add	r2,r3,r2
 40044cc:	e0bfee15 	stw	r2,-72(fp)
 40044d0:	00001206 	br	400451c <_dtoa_r+0x15c4>
    }
  else if (i < 4)
 40044d4:	e0bff817 	ldw	r2,-32(fp)
 40044d8:	10800108 	cmpgei	r2,r2,4
 40044dc:	10000f1e 	bne	r2,zero,400451c <_dtoa_r+0x15c4>
    {
      i += 28;
 40044e0:	e0bff817 	ldw	r2,-32(fp)
 40044e4:	10800704 	addi	r2,r2,28
 40044e8:	e0bff815 	stw	r2,-32(fp)
      b2 += i;
 40044ec:	e0fffb17 	ldw	r3,-20(fp)
 40044f0:	e0bff817 	ldw	r2,-32(fp)
 40044f4:	1885883a 	add	r2,r3,r2
 40044f8:	e0bffb15 	stw	r2,-20(fp)
      m2 += i;
 40044fc:	e0fff017 	ldw	r3,-64(fp)
 4004500:	e0bff817 	ldw	r2,-32(fp)
 4004504:	1885883a 	add	r2,r3,r2
 4004508:	e0bff015 	stw	r2,-64(fp)
      s2 += i;
 400450c:	e0ffee17 	ldw	r3,-72(fp)
 4004510:	e0bff817 	ldw	r2,-32(fp)
 4004514:	1885883a 	add	r2,r3,r2
 4004518:	e0bfee15 	stw	r2,-72(fp)
    }
  if (b2 > 0)
 400451c:	e0bffb17 	ldw	r2,-20(fp)
 4004520:	0080050e 	bge	zero,r2,4004538 <_dtoa_r+0x15e0>
    b = lshift (ptr, b, b2);
 4004524:	e1bffb17 	ldw	r6,-20(fp)
 4004528:	e17fe917 	ldw	r5,-92(fp)
 400452c:	e13fd017 	ldw	r4,-192(fp)
 4004530:	40085300 	call	4008530 <__lshift>
 4004534:	e0bfe915 	stw	r2,-92(fp)
  if (s2 > 0)
 4004538:	e0bfee17 	ldw	r2,-72(fp)
 400453c:	0080050e 	bge	zero,r2,4004554 <_dtoa_r+0x15fc>
    S = lshift (ptr, S, s2);
 4004540:	e1bfee17 	ldw	r6,-72(fp)
 4004544:	e17fe617 	ldw	r5,-104(fp)
 4004548:	e13fd017 	ldw	r4,-192(fp)
 400454c:	40085300 	call	4008530 <__lshift>
 4004550:	e0bfe615 	stw	r2,-104(fp)
  if (k_check)
 4004554:	e0bff217 	ldw	r2,-56(fp)
 4004558:	10001726 	beq	r2,zero,40045b8 <_dtoa_r+0x1660>
    {
      if (cmp (b, S) < 0)
 400455c:	e17fe617 	ldw	r5,-104(fp)
 4004560:	e13fe917 	ldw	r4,-92(fp)
 4004564:	400874c0 	call	400874c <__mcmp>
 4004568:	1000130e 	bge	r2,zero,40045b8 <_dtoa_r+0x1660>
	{
	  k--;
 400456c:	e0bff317 	ldw	r2,-52(fp)
 4004570:	10bfffc4 	addi	r2,r2,-1
 4004574:	e0bff315 	stw	r2,-52(fp)
	  b = multadd (ptr, b, 10, 0);	/* we botched the k estimate */
 4004578:	000f883a 	mov	r7,zero
 400457c:	01800284 	movi	r6,10
 4004580:	e17fe917 	ldw	r5,-92(fp)
 4004584:	e13fd017 	ldw	r4,-192(fp)
 4004588:	4007a780 	call	4007a78 <__multadd>
 400458c:	e0bfe915 	stw	r2,-92(fp)
	  if (leftright)
 4004590:	e0bff117 	ldw	r2,-60(fp)
 4004594:	10000626 	beq	r2,zero,40045b0 <_dtoa_r+0x1658>
	    mhi = multadd (ptr, mhi, 10, 0);
 4004598:	000f883a 	mov	r7,zero
 400459c:	01800284 	movi	r6,10
 40045a0:	e17fe717 	ldw	r5,-100(fp)
 40045a4:	e13fd017 	ldw	r4,-192(fp)
 40045a8:	4007a780 	call	4007a78 <__multadd>
 40045ac:	e0bfe715 	stw	r2,-100(fp)
	  ilim = ilim1;
 40045b0:	e0bff517 	ldw	r2,-44(fp)
 40045b4:	e0bff615 	stw	r2,-40(fp)
	}
    }
  if (ilim <= 0 && mode > 2)
 40045b8:	e0bff617 	ldw	r2,-40(fp)
 40045bc:	00802516 	blt	zero,r2,4004654 <_dtoa_r+0x16fc>
 40045c0:	e0bfcd17 	ldw	r2,-204(fp)
 40045c4:	108000d0 	cmplti	r2,r2,3
 40045c8:	1000221e 	bne	r2,zero,4004654 <_dtoa_r+0x16fc>
    {
      if (ilim < 0 || cmp (b, S = multadd (ptr, S, 5, 0)) <= 0)
 40045cc:	e0bff617 	ldw	r2,-40(fp)
 40045d0:	10000f16 	blt	r2,zero,4004610 <_dtoa_r+0x16b8>
 40045d4:	000f883a 	mov	r7,zero
 40045d8:	01800144 	movi	r6,5
 40045dc:	e17fe617 	ldw	r5,-104(fp)
 40045e0:	e13fd017 	ldw	r4,-192(fp)
 40045e4:	4007a780 	call	4007a78 <__multadd>
 40045e8:	e0bfe615 	stw	r2,-104(fp)
 40045ec:	e17fe617 	ldw	r5,-104(fp)
 40045f0:	e13fe917 	ldw	r4,-92(fp)
 40045f4:	400874c0 	call	400874c <__mcmp>
 40045f8:	00800c16 	blt	zero,r2,400462c <_dtoa_r+0x16d4>
	{
	  /* no digits, fcvt style */
	no_digits:
 40045fc:	00000406 	br	4004610 <_dtoa_r+0x16b8>
	    goto no_digits;
 4004600:	0001883a 	nop
 4004604:	00000306 	br	4004614 <_dtoa_r+0x16bc>
	    goto no_digits;
 4004608:	0001883a 	nop
 400460c:	00000106 	br	4004614 <_dtoa_r+0x16bc>
	no_digits:
 4004610:	0001883a 	nop
	  k = -1 - ndigits;
 4004614:	e0800217 	ldw	r2,8(fp)
 4004618:	0084303a 	nor	r2,zero,r2
 400461c:	e0bff315 	stw	r2,-52(fp)
	  goto ret;
 4004620:	00012c06 	br	4004ad4 <_dtoa_r+0x1b7c>
	    goto one_digit;
 4004624:	0001883a 	nop
 4004628:	00000106 	br	4004630 <_dtoa_r+0x16d8>
	}
    one_digit:
 400462c:	0001883a 	nop
      *s++ = '1';
 4004630:	e0bfe317 	ldw	r2,-116(fp)
 4004634:	10c00044 	addi	r3,r2,1
 4004638:	e0ffe315 	stw	r3,-116(fp)
 400463c:	00c00c44 	movi	r3,49
 4004640:	10c00005 	stb	r3,0(r2)
      k++;
 4004644:	e0bff317 	ldw	r2,-52(fp)
 4004648:	10800044 	addi	r2,r2,1
 400464c:	e0bff315 	stw	r2,-52(fp)
      goto ret;
 4004650:	00012006 	br	4004ad4 <_dtoa_r+0x1b7c>
    }
  if (leftright)
 4004654:	e0bff117 	ldw	r2,-60(fp)
 4004658:	1000c626 	beq	r2,zero,4004974 <_dtoa_r+0x1a1c>
    {
      if (m2 > 0)
 400465c:	e0bff017 	ldw	r2,-64(fp)
 4004660:	0080050e 	bge	zero,r2,4004678 <_dtoa_r+0x1720>
	mhi = lshift (ptr, mhi, m2);
 4004664:	e1bff017 	ldw	r6,-64(fp)
 4004668:	e17fe717 	ldw	r5,-100(fp)
 400466c:	e13fd017 	ldw	r4,-192(fp)
 4004670:	40085300 	call	4008530 <__lshift>
 4004674:	e0bfe715 	stw	r2,-100(fp)

      /* Compute mlo -- check for special case
       * that d is a normalized power of 2.
       */

      mlo = mhi;
 4004678:	e0bfe717 	ldw	r2,-100(fp)
 400467c:	e0bfe815 	stw	r2,-96(fp)
      if (spec_case)
 4004680:	e0bfec17 	ldw	r2,-80(fp)
 4004684:	10002226 	beq	r2,zero,4004710 <_dtoa_r+0x17b8>
	{
	  mhi = eBalloc (ptr, mhi->_k);
 4004688:	e0bfe717 	ldw	r2,-100(fp)
 400468c:	10800117 	ldw	r2,4(r2)
 4004690:	100b883a 	mov	r5,r2
 4004694:	e13fd017 	ldw	r4,-192(fp)
 4004698:	40078e00 	call	40078e0 <_Balloc>
 400469c:	e0bfda15 	stw	r2,-152(fp)
 40046a0:	e0bfda17 	ldw	r2,-152(fp)
 40046a4:	1000071e 	bne	r2,zero,40046c4 <_dtoa_r+0x176c>
 40046a8:	01c10074 	movhi	r7,1025
 40046ac:	39cdc604 	addi	r7,r7,14104
 40046b0:	000d883a 	mov	r6,zero
 40046b4:	0140ba84 	movi	r5,746
 40046b8:	01010074 	movhi	r4,1025
 40046bc:	210dcb04 	addi	r4,r4,14124
 40046c0:	400b01c0 	call	400b01c <__assert_func>
 40046c4:	e0bfda17 	ldw	r2,-152(fp)
 40046c8:	e0bfe715 	stw	r2,-100(fp)
	  Bcopy (mhi, mlo);
 40046cc:	e0bfe717 	ldw	r2,-100(fp)
 40046d0:	10c00304 	addi	r3,r2,12
 40046d4:	e0bfe817 	ldw	r2,-96(fp)
 40046d8:	11000304 	addi	r4,r2,12
 40046dc:	e0bfe817 	ldw	r2,-96(fp)
 40046e0:	10800417 	ldw	r2,16(r2)
 40046e4:	10800084 	addi	r2,r2,2
 40046e8:	100490ba 	slli	r2,r2,2
 40046ec:	100d883a 	mov	r6,r2
 40046f0:	200b883a 	mov	r5,r4
 40046f4:	1809883a 	mov	r4,r3
 40046f8:	40075940 	call	4007594 <memcpy>
	  mhi = lshift (ptr, mhi, Log2P);
 40046fc:	01800044 	movi	r6,1
 4004700:	e17fe717 	ldw	r5,-100(fp)
 4004704:	e13fd017 	ldw	r4,-192(fp)
 4004708:	40085300 	call	4008530 <__lshift>
 400470c:	e0bfe715 	stw	r2,-100(fp)
	}

      for (i = 1;; i++)
 4004710:	00800044 	movi	r2,1
 4004714:	e0bff815 	stw	r2,-32(fp)
	{
	  dig = quorem (b, S) + '0';
 4004718:	e17fe617 	ldw	r5,-104(fp)
 400471c:	e13fe917 	ldw	r4,-92(fp)
 4004720:	4002bb40 	call	4002bb4 <quorem>
 4004724:	10800c04 	addi	r2,r2,48
 4004728:	e0bff915 	stw	r2,-28(fp)
	  /* Do we yet have the shortest decimal string
	   * that will round to d?
	   */
	  j = cmp (b, mlo);
 400472c:	e17fe817 	ldw	r5,-96(fp)
 4004730:	e13fe917 	ldw	r4,-92(fp)
 4004734:	400874c0 	call	400874c <__mcmp>
 4004738:	e0bff415 	stw	r2,-48(fp)
	  delta = diff (ptr, S, mhi);
 400473c:	e1bfe717 	ldw	r6,-100(fp)
 4004740:	e17fe617 	ldw	r5,-104(fp)
 4004744:	e13fd017 	ldw	r4,-192(fp)
 4004748:	40088500 	call	4008850 <__mdiff>
 400474c:	e0bfd915 	stw	r2,-156(fp)
	  j1 = delta->_sign ? 1 : cmp (b, delta);
 4004750:	e0bfd917 	ldw	r2,-156(fp)
 4004754:	10800317 	ldw	r2,12(r2)
 4004758:	1000041e 	bne	r2,zero,400476c <_dtoa_r+0x1814>
 400475c:	e17fd917 	ldw	r5,-156(fp)
 4004760:	e13fe917 	ldw	r4,-92(fp)
 4004764:	400874c0 	call	400874c <__mcmp>
 4004768:	00000106 	br	4004770 <_dtoa_r+0x1818>
 400476c:	00800044 	movi	r2,1
 4004770:	e0bfdd15 	stw	r2,-140(fp)
	  Bfree (ptr, delta);
 4004774:	e17fd917 	ldw	r5,-156(fp)
 4004778:	e13fd017 	ldw	r4,-192(fp)
 400477c:	4007a040 	call	4007a04 <_Bfree>
#ifndef ROUND_BIASED
	  if (j1 == 0 && !mode && !(word1 (d) & 1))
 4004780:	e0bfdd17 	ldw	r2,-140(fp)
 4004784:	1000131e 	bne	r2,zero,40047d4 <_dtoa_r+0x187c>
 4004788:	e0bfcd17 	ldw	r2,-204(fp)
 400478c:	1000111e 	bne	r2,zero,40047d4 <_dtoa_r+0x187c>
 4004790:	e0bfd517 	ldw	r2,-172(fp)
 4004794:	1080004c 	andi	r2,r2,1
 4004798:	10000e1e 	bne	r2,zero,40047d4 <_dtoa_r+0x187c>
	    {
	      if (dig == '9')
 400479c:	e0bff917 	ldw	r2,-28(fp)
 40047a0:	10800e58 	cmpnei	r2,r2,57
 40047a4:	10003726 	beq	r2,zero,4004884 <_dtoa_r+0x192c>
		goto round_9_up;
	      if (j > 0)
 40047a8:	e0bff417 	ldw	r2,-48(fp)
 40047ac:	0080030e 	bge	zero,r2,40047bc <_dtoa_r+0x1864>
		dig++;
 40047b0:	e0bff917 	ldw	r2,-28(fp)
 40047b4:	10800044 	addi	r2,r2,1
 40047b8:	e0bff915 	stw	r2,-28(fp)
	      *s++ = dig;
 40047bc:	e0bfe317 	ldw	r2,-116(fp)
 40047c0:	10c00044 	addi	r3,r2,1
 40047c4:	e0ffe315 	stw	r3,-116(fp)
 40047c8:	e0fff917 	ldw	r3,-28(fp)
 40047cc:	10c00005 	stb	r3,0(r2)
	      goto ret;
 40047d0:	0000c006 	br	4004ad4 <_dtoa_r+0x1b7c>
	    }
#endif
         if ((j < 0) || ((j == 0) && !mode
 40047d4:	e0bff417 	ldw	r2,-48(fp)
 40047d8:	10000716 	blt	r2,zero,40047f8 <_dtoa_r+0x18a0>
 40047dc:	e0bff417 	ldw	r2,-48(fp)
 40047e0:	1000221e 	bne	r2,zero,400486c <_dtoa_r+0x1914>
 40047e4:	e0bfcd17 	ldw	r2,-204(fp)
 40047e8:	1000201e 	bne	r2,zero,400486c <_dtoa_r+0x1914>
#ifndef ROUND_BIASED
	      && !(word1 (d) & 1)
 40047ec:	e0bfd517 	ldw	r2,-172(fp)
 40047f0:	1080004c 	andi	r2,r2,1
 40047f4:	10001d1e 	bne	r2,zero,400486c <_dtoa_r+0x1914>
#endif
           ))
	    {
	      if (j1 > 0)
 40047f8:	e0bfdd17 	ldw	r2,-140(fp)
 40047fc:	0080150e 	bge	zero,r2,4004854 <_dtoa_r+0x18fc>
		{
		  b = lshift (ptr, b, 1);
 4004800:	01800044 	movi	r6,1
 4004804:	e17fe917 	ldw	r5,-92(fp)
 4004808:	e13fd017 	ldw	r4,-192(fp)
 400480c:	40085300 	call	4008530 <__lshift>
 4004810:	e0bfe915 	stw	r2,-92(fp)
		  j1 = cmp (b, S);
 4004814:	e17fe617 	ldw	r5,-104(fp)
 4004818:	e13fe917 	ldw	r4,-92(fp)
 400481c:	400874c0 	call	400874c <__mcmp>
 4004820:	e0bfdd15 	stw	r2,-140(fp)
                 if (((j1 > 0) || ((j1 == 0) && (dig & 1)))
 4004824:	e0bfdd17 	ldw	r2,-140(fp)
 4004828:	00800516 	blt	zero,r2,4004840 <_dtoa_r+0x18e8>
 400482c:	e0bfdd17 	ldw	r2,-140(fp)
 4004830:	1000081e 	bne	r2,zero,4004854 <_dtoa_r+0x18fc>
 4004834:	e0bff917 	ldw	r2,-28(fp)
 4004838:	1080004c 	andi	r2,r2,1
 400483c:	10000526 	beq	r2,zero,4004854 <_dtoa_r+0x18fc>
		      && dig++ == '9')
 4004840:	e0bff917 	ldw	r2,-28(fp)
 4004844:	10c00044 	addi	r3,r2,1
 4004848:	e0fff915 	stw	r3,-28(fp)
 400484c:	10800e58 	cmpnei	r2,r2,57
 4004850:	10000e26 	beq	r2,zero,400488c <_dtoa_r+0x1934>
		    goto round_9_up;
		}
	      *s++ = dig;
 4004854:	e0bfe317 	ldw	r2,-116(fp)
 4004858:	10c00044 	addi	r3,r2,1
 400485c:	e0ffe315 	stw	r3,-116(fp)
 4004860:	e0fff917 	ldw	r3,-28(fp)
 4004864:	10c00005 	stb	r3,0(r2)
	      goto ret;
 4004868:	00009a06 	br	4004ad4 <_dtoa_r+0x1b7c>
	    }
	  if (j1 > 0)
 400486c:	e0bfdd17 	ldw	r2,-140(fp)
 4004870:	0080160e 	bge	zero,r2,40048cc <_dtoa_r+0x1974>
	    {
	      if (dig == '9')
 4004874:	e0bff917 	ldw	r2,-28(fp)
 4004878:	10800e58 	cmpnei	r2,r2,57
 400487c:	10000a1e 	bne	r2,zero,40048a8 <_dtoa_r+0x1950>
		{		/* possible if i == 1 */
		round_9_up:
 4004880:	00000306 	br	4004890 <_dtoa_r+0x1938>
		goto round_9_up;
 4004884:	0001883a 	nop
 4004888:	00000106 	br	4004890 <_dtoa_r+0x1938>
		    goto round_9_up;
 400488c:	0001883a 	nop
		  *s++ = '9';
 4004890:	e0bfe317 	ldw	r2,-116(fp)
 4004894:	10c00044 	addi	r3,r2,1
 4004898:	e0ffe315 	stw	r3,-116(fp)
 400489c:	00c00e44 	movi	r3,57
 40048a0:	10c00005 	stb	r3,0(r2)
		  goto roundoff;
 40048a4:	00006006 	br	4004a28 <_dtoa_r+0x1ad0>
		}
	      *s++ = dig + 1;
 40048a8:	e0bff917 	ldw	r2,-28(fp)
 40048ac:	10800044 	addi	r2,r2,1
 40048b0:	1009883a 	mov	r4,r2
 40048b4:	e0bfe317 	ldw	r2,-116(fp)
 40048b8:	10c00044 	addi	r3,r2,1
 40048bc:	e0ffe315 	stw	r3,-116(fp)
 40048c0:	2007883a 	mov	r3,r4
 40048c4:	10c00005 	stb	r3,0(r2)
	      goto ret;
 40048c8:	00008206 	br	4004ad4 <_dtoa_r+0x1b7c>
	    }
	  *s++ = dig;
 40048cc:	e0bfe317 	ldw	r2,-116(fp)
 40048d0:	10c00044 	addi	r3,r2,1
 40048d4:	e0ffe315 	stw	r3,-116(fp)
 40048d8:	e0fff917 	ldw	r3,-28(fp)
 40048dc:	10c00005 	stb	r3,0(r2)
	  if (i == ilim)
 40048e0:	e0fff817 	ldw	r3,-32(fp)
 40048e4:	e0bff617 	ldw	r2,-40(fp)
 40048e8:	18803b26 	beq	r3,r2,40049d8 <_dtoa_r+0x1a80>
	    break;
	  b = multadd (ptr, b, 10, 0);
 40048ec:	000f883a 	mov	r7,zero
 40048f0:	01800284 	movi	r6,10
 40048f4:	e17fe917 	ldw	r5,-92(fp)
 40048f8:	e13fd017 	ldw	r4,-192(fp)
 40048fc:	4007a780 	call	4007a78 <__multadd>
 4004900:	e0bfe915 	stw	r2,-92(fp)
	  if (mlo == mhi)
 4004904:	e0ffe817 	ldw	r3,-96(fp)
 4004908:	e0bfe717 	ldw	r2,-100(fp)
 400490c:	1880091e 	bne	r3,r2,4004934 <_dtoa_r+0x19dc>
	    mlo = mhi = multadd (ptr, mhi, 10, 0);
 4004910:	000f883a 	mov	r7,zero
 4004914:	01800284 	movi	r6,10
 4004918:	e17fe717 	ldw	r5,-100(fp)
 400491c:	e13fd017 	ldw	r4,-192(fp)
 4004920:	4007a780 	call	4007a78 <__multadd>
 4004924:	e0bfe715 	stw	r2,-100(fp)
 4004928:	e0bfe717 	ldw	r2,-100(fp)
 400492c:	e0bfe815 	stw	r2,-96(fp)
 4004930:	00000c06 	br	4004964 <_dtoa_r+0x1a0c>
	  else
	    {
	      mlo = multadd (ptr, mlo, 10, 0);
 4004934:	000f883a 	mov	r7,zero
 4004938:	01800284 	movi	r6,10
 400493c:	e17fe817 	ldw	r5,-96(fp)
 4004940:	e13fd017 	ldw	r4,-192(fp)
 4004944:	4007a780 	call	4007a78 <__multadd>
 4004948:	e0bfe815 	stw	r2,-96(fp)
	      mhi = multadd (ptr, mhi, 10, 0);
 400494c:	000f883a 	mov	r7,zero
 4004950:	01800284 	movi	r6,10
 4004954:	e17fe717 	ldw	r5,-100(fp)
 4004958:	e13fd017 	ldw	r4,-192(fp)
 400495c:	4007a780 	call	4007a78 <__multadd>
 4004960:	e0bfe715 	stw	r2,-100(fp)
      for (i = 1;; i++)
 4004964:	e0bff817 	ldw	r2,-32(fp)
 4004968:	10800044 	addi	r2,r2,1
 400496c:	e0bff815 	stw	r2,-32(fp)
	  dig = quorem (b, S) + '0';
 4004970:	003f6906 	br	4004718 <_dtoa_r+0x17c0>
	    }
	}
    }
  else
    for (i = 1;; i++)
 4004974:	00800044 	movi	r2,1
 4004978:	e0bff815 	stw	r2,-32(fp)
      {
	*s++ = dig = quorem (b, S) + '0';
 400497c:	e17fe617 	ldw	r5,-104(fp)
 4004980:	e13fe917 	ldw	r4,-92(fp)
 4004984:	4002bb40 	call	4002bb4 <quorem>
 4004988:	10800c04 	addi	r2,r2,48
 400498c:	e0bff915 	stw	r2,-28(fp)
 4004990:	e0bfe317 	ldw	r2,-116(fp)
 4004994:	10c00044 	addi	r3,r2,1
 4004998:	e0ffe315 	stw	r3,-116(fp)
 400499c:	e0fff917 	ldw	r3,-28(fp)
 40049a0:	10c00005 	stb	r3,0(r2)
	if (i >= ilim)
 40049a4:	e0fff817 	ldw	r3,-32(fp)
 40049a8:	e0bff617 	ldw	r2,-40(fp)
 40049ac:	18800c0e 	bge	r3,r2,40049e0 <_dtoa_r+0x1a88>
	  break;
	b = multadd (ptr, b, 10, 0);
 40049b0:	000f883a 	mov	r7,zero
 40049b4:	01800284 	movi	r6,10
 40049b8:	e17fe917 	ldw	r5,-92(fp)
 40049bc:	e13fd017 	ldw	r4,-192(fp)
 40049c0:	4007a780 	call	4007a78 <__multadd>
 40049c4:	e0bfe915 	stw	r2,-92(fp)
    for (i = 1;; i++)
 40049c8:	e0bff817 	ldw	r2,-32(fp)
 40049cc:	10800044 	addi	r2,r2,1
 40049d0:	e0bff815 	stw	r2,-32(fp)
	*s++ = dig = quorem (b, S) + '0';
 40049d4:	003fe906 	br	400497c <_dtoa_r+0x1a24>
	    break;
 40049d8:	0001883a 	nop
 40049dc:	00000106 	br	40049e4 <_dtoa_r+0x1a8c>
	  break;
 40049e0:	0001883a 	nop
      }

  /* Round off last digit */

  b = lshift (ptr, b, 1);
 40049e4:	01800044 	movi	r6,1
 40049e8:	e17fe917 	ldw	r5,-92(fp)
 40049ec:	e13fd017 	ldw	r4,-192(fp)
 40049f0:	40085300 	call	4008530 <__lshift>
 40049f4:	e0bfe915 	stw	r2,-92(fp)
  j = cmp (b, S);
 40049f8:	e17fe617 	ldw	r5,-104(fp)
 40049fc:	e13fe917 	ldw	r4,-92(fp)
 4004a00:	400874c0 	call	400874c <__mcmp>
 4004a04:	e0bff415 	stw	r2,-48(fp)
  if ((j > 0) || ((j == 0) && (dig & 1)))
 4004a08:	e0bff417 	ldw	r2,-48(fp)
 4004a0c:	00800516 	blt	zero,r2,4004a24 <_dtoa_r+0x1acc>
 4004a10:	e0bff417 	ldw	r2,-48(fp)
 4004a14:	1000221e 	bne	r2,zero,4004aa0 <_dtoa_r+0x1b48>
 4004a18:	e0bff917 	ldw	r2,-28(fp)
 4004a1c:	1080004c 	andi	r2,r2,1
 4004a20:	10001f26 	beq	r2,zero,4004aa0 <_dtoa_r+0x1b48>
    {
    roundoff:
 4004a24:	0001883a 	nop
      while (*--s == '9')
 4004a28:	00000c06 	br	4004a5c <_dtoa_r+0x1b04>
	if (s == s0)
 4004a2c:	e0ffe317 	ldw	r3,-116(fp)
 4004a30:	e0bfe017 	ldw	r2,-128(fp)
